

Microchip MPLAB XC8 Assembler V3.10 build 20250813170317 
                                                                                               Sat Dec 13 19:08:43 2025

Microchip MPLAB XC8 C Compiler v3.10 (Free license) build 20250813170317 Og1 
     1                           	processor	16F886
     2                           	pagewidth 120
     3                           	opt	flic
     4                           	psect	strings,global,class=STRING,space=0,delta=2,noexec
     5                           	psect	cinit,global,class=CODE,space=0,merge=1,delta=2
     6                           	psect	bssCOMMON,global,class=COMMON,space=1,delta=1,noexec
     7                           	psect	bssBANK0,global,class=BANK0,space=1,delta=1,noexec
     8                           	psect	bssBANK1,global,class=BANK1,space=1,delta=1,noexec
     9                           	psect	bssBANK3,global,class=BANK3,space=1,delta=1,noexec
    10                           	psect	bssBANK2,global,class=BANK2,space=1,delta=1,noexec
    11                           	psect	clrtext,global,class=CODE,space=0,delta=2
    12                           	psect	cstackBANK3,global,class=BANK3,space=1,delta=1,noexec
    13                           	psect	cstackBANK1,global,class=BANK1,space=1,delta=1,noexec
    14                           	psect	cstackCOMMON,global,class=COMMON,space=1,delta=1,noexec
    15                           	psect	cstackBANK0,global,class=BANK0,space=1,delta=1,noexec
    16                           	psect	maintext,global,class=CODE,space=0,split=1,delta=2
    17                           	psect	text1,local,class=CODE,space=0,merge=1,delta=2
    18                           	psect	text2,local,class=CODE,space=0,merge=1,delta=2
    19                           	psect	text3,local,class=CODE,space=0,merge=1,delta=2
    20                           	psect	text4,local,class=CODE,space=0,merge=1,delta=2
    21                           	psect	text5,local,class=CODE,space=0,merge=1,delta=2
    22                           	psect	text6,local,class=CODE,space=0,merge=1,delta=2
    23                           	psect	text7,local,class=CODE,space=0,merge=1,delta=2,group=3
    24                           	psect	text8,local,class=CODE,space=0,merge=1,delta=2,group=1
    25                           	psect	text9,local,class=CODE,space=0,merge=1,delta=2,group=1
    26                           	psect	text10,local,class=CODE,space=0,merge=1,delta=2,group=1
    27                           	psect	text11,local,class=CODE,space=0,merge=1,delta=2,group=3
    28                           	psect	text12,local,class=CODE,space=0,merge=1,delta=2,group=1
    29                           	psect	text13,local,class=CODE,space=0,merge=1,delta=2,group=3
    30                           	psect	text14,local,class=CODE,space=0,merge=1,delta=2,group=3
    31                           	psect	text15,local,class=CODE,space=0,merge=1,delta=2
    32                           	psect	text16,local,class=CODE,space=0,merge=1,delta=2,group=3
    33                           	psect	text17,local,class=CODE,space=0,merge=1,delta=2,group=3
    34                           	psect	text18,local,class=CODE,space=0,merge=1,delta=2,group=3
    35                           	psect	text19,local,class=CODE,space=0,merge=1,delta=2,group=3
    36                           	psect	text20,local,class=CODE,space=0,merge=1,delta=2,group=2
    37                           	psect	text21,local,class=CODE,space=0,merge=1,delta=2,group=2
    38                           	psect	text22,local,class=CODE,space=0,merge=1,delta=2,group=2
    39                           	psect	text23,local,class=CODE,space=0,merge=1,delta=2,group=2
    40                           	psect	text24,local,class=CODE,space=0,merge=1,delta=2,group=2
    41                           	psect	text25,local,class=CODE,space=0,merge=1,delta=2,group=2
    42                           	psect	text26,local,class=CODE,space=0,merge=1,delta=2,group=3
    43                           	psect	text27,local,class=CODE,space=0,merge=1,delta=2,group=2
    44                           	psect	text28,local,class=CODE,space=0,merge=1,delta=2,group=2
    45                           	psect	text29,local,class=CODE,space=0,merge=1,delta=2
    46                           	psect	text30,local,class=CODE,space=0,merge=1,delta=2
    47                           	psect	text31,local,class=CODE,space=0,merge=1,delta=2,group=2
    48                           	psect	text32,local,class=CODE,space=0,merge=1,delta=2,group=2
    49                           	psect	text33,local,class=CODE,space=0,merge=1,delta=2,group=2
    50                           	psect	text34,local,class=CODE,space=0,merge=1,delta=2,group=2
    51                           	psect	text35,local,class=CODE,space=0,merge=1,delta=2,group=2
    52                           	psect	text36,local,class=CODE,space=0,merge=1,delta=2
    53                           	psect	text37,local,class=CODE,space=0,merge=1,delta=2
    54                           	psect	intentry,global,class=CODE,space=0,delta=2
    55                           	psect	config,global,abs,ovrld,class=CONFIG,space=4,delta=2,noexec
    56                           	psect	text10_split_1,local,class=CODE,space=0,merge=1,delta=2
    57                           	dabs	1,0x7E,2
    58     0000                     
    59                           ; Generated 12/10/2023 GMT
    60                           ; 
    61                           ; Copyright © 2023, Microchip Technology Inc. and its subsidiaries ("Microchip")
    62                           ; All rights reserved.
    63                           ; 
    64                           ; This software is developed by Microchip Technology Inc. and its subsidiaries ("Microch
      +                          ip").
    65                           ; 
    66                           ; Redistribution and use in source and binary forms, with or without modification, are
    67                           ; permitted provided that the following conditions are met:
    68                           ; 
    69                           ;     1. Redistributions of source code must retain the above copyright notice, this lis
      +                          t of
    70                           ;        conditions and the following disclaimer.
    71                           ; 
    72                           ;     2. Redistributions in binary form must reproduce the above copyright notice, this 
      +                          list
    73                           ;        of conditions and the following disclaimer in the documentation and/or other
    74                           ;        materials provided with the distribution. Publication is not required when
    75                           ;        this file is used in an embedded application.
    76                           ; 
    77                           ;     3. Microchip's name may not be used to endorse or promote products derived from th
      +                          is
    78                           ;        software without specific prior written permission.
    79                           ; 
    80                           ; THIS SOFTWARE IS PROVIDED BY MICROCHIP "AS IS" AND ANY EXPRESS OR IMPLIED WARRANTIES,
    81                           ; INCLUDING, BUT NOT LIMITED TO, THE IMPLIED WARRANTIES OF MERCHANTABILITY AND FITNESS F
      +                          OR
    82                           ; PURPOSE ARE DISCLAIMED.  IN NO EVENT SHALL MICROCHIP BE LIABLE FOR ANY DIRECT, INDIREC
      +                          T,
    83                           ; INCIDENTAL, SPECIAL, EXEMPLARY, OR CONSEQUENTIAL DAMAGES (INCLUDING BUT NOT LIMITED TO
    84                           ; PROCUREMENT OF SUBSTITUTE GOODS OR SERVICES; LOSS OF USE, DATA OR PROFITS; OR BUSINESS
    85                           ; INTERRUPTION) HOWSOEVER CAUSED AND ON ANY THEORY OF LIABILITY, WHETHER IN CONTRACT, ST
      +                          RICT
    86                           ; LIABILITY, OR TORT (INCLUDING NEGLIGENCE OR OTHERWISE) ARISING IN ANY WAY OUT OF THE U
      +                          SE OF
    87                           ; THIS SOFTWARE, EVEN IF ADVISED OF THE POSSIBILITY OF SUCH DAMAGE.
    88                           ; 
    89                           ; 
    90                           ; Code-generator required, PIC16F886 Definitions
    91                           ; 
    92                           ; SFR Addresses
    93     0004                     fsr             equ	4
    94     0004                     fsr0            equ	4
    95     0000                     indf            equ	0
    96     0000                     indf0           equ	0
    97     0002                     pc              equ	2
    98     0002                     pcl             equ	2
    99     000A                     pclath          equ	10
   100     0003                     status          equ	3
   101     0000                     INDF            equ	0	;# 
   102     0001                     TMR0            equ	1	;# 
   103     0002                     PCL             equ	2	;# 
   104     0003                     STATUS          equ	3	;# 
   105     0004                     FSR             equ	4	;# 
   106     0005                     PORTA           equ	5	;# 
   107     0006                     PORTB           equ	6	;# 
   108     0007                     PORTC           equ	7	;# 
   109     0009                     PORTE           equ	9	;# 
   110     000A                     PCLATH          equ	10	;# 
   111     000B                     INTCON          equ	11	;# 
   112     000C                     PIR1            equ	12	;# 
   113     000D                     PIR2            equ	13	;# 
   114     000E                     TMR1            equ	14	;# 
   115     000E                     TMR1L           equ	14	;# 
   116     000F                     TMR1H           equ	15	;# 
   117     0010                     T1CON           equ	16	;# 
   118     0011                     TMR2            equ	17	;# 
   119     0012                     T2CON           equ	18	;# 
   120     0013                     SSPBUF          equ	19	;# 
   121     0014                     SSPCON          equ	20	;# 
   122     0015                     CCPR1           equ	21	;# 
   123     0015                     CCPR1L          equ	21	;# 
   124     0016                     CCPR1H          equ	22	;# 
   125     0017                     CCP1CON         equ	23	;# 
   126     0018                     RCSTA           equ	24	;# 
   127     0019                     TXREG           equ	25	;# 
   128     001A                     RCREG           equ	26	;# 
   129     001B                     CCPR2           equ	27	;# 
   130     001B                     CCPR2L          equ	27	;# 
   131     001C                     CCPR2H          equ	28	;# 
   132     001D                     CCP2CON         equ	29	;# 
   133     001E                     ADRESH          equ	30	;# 
   134     001F                     ADCON0          equ	31	;# 
   135     0081                     OPTION_REG      equ	129	;# 
   136     0085                     TRISA           equ	133	;# 
   137     0086                     TRISB           equ	134	;# 
   138     0087                     TRISC           equ	135	;# 
   139     0089                     TRISE           equ	137	;# 
   140     008C                     PIE1            equ	140	;# 
   141     008D                     PIE2            equ	141	;# 
   142     008E                     PCON            equ	142	;# 
   143     008F                     OSCCON          equ	143	;# 
   144     0090                     OSCTUNE         equ	144	;# 
   145     0091                     SSPCON2         equ	145	;# 
   146     0092                     PR2             equ	146	;# 
   147     0093                     SSPADD          equ	147	;# 
   148     0093                     SSPMSK          equ	147	;# 
   149     0093                     MSK             equ	147	;# 
   150     0094                     SSPSTAT         equ	148	;# 
   151     0095                     WPUB            equ	149	;# 
   152     0096                     IOCB            equ	150	;# 
   153     0097                     VRCON           equ	151	;# 
   154     0098                     TXSTA           equ	152	;# 
   155     0099                     SPBRG           equ	153	;# 
   156     009A                     SPBRGH          equ	154	;# 
   157     009B                     PWM1CON         equ	155	;# 
   158     009C                     ECCPAS          equ	156	;# 
   159     009D                     PSTRCON         equ	157	;# 
   160     009E                     ADRESL          equ	158	;# 
   161     009F                     ADCON1          equ	159	;# 
   162     0105                     WDTCON          equ	261	;# 
   163     0107                     CM1CON0         equ	263	;# 
   164     0108                     CM2CON0         equ	264	;# 
   165     0109                     CM2CON1         equ	265	;# 
   166     010C                     EEDATA          equ	268	;# 
   167     010C                     EEDAT           equ	268	;# 
   168     010D                     EEADR           equ	269	;# 
   169     010E                     EEDATH          equ	270	;# 
   170     010F                     EEADRH          equ	271	;# 
   171     0185                     SRCON           equ	389	;# 
   172     0187                     BAUDCTL         equ	391	;# 
   173     0188                     ANSEL           equ	392	;# 
   174     0189                     ANSELH          equ	393	;# 
   175     018C                     EECON1          equ	396	;# 
   176     018D                     EECON2          equ	397	;# 
   177     0000                     INDF            equ	0	;# 
   178     0001                     TMR0            equ	1	;# 
   179     0002                     PCL             equ	2	;# 
   180     0003                     STATUS          equ	3	;# 
   181     0004                     FSR             equ	4	;# 
   182     0005                     PORTA           equ	5	;# 
   183     0006                     PORTB           equ	6	;# 
   184     0007                     PORTC           equ	7	;# 
   185     0009                     PORTE           equ	9	;# 
   186     000A                     PCLATH          equ	10	;# 
   187     000B                     INTCON          equ	11	;# 
   188     000C                     PIR1            equ	12	;# 
   189     000D                     PIR2            equ	13	;# 
   190     000E                     TMR1            equ	14	;# 
   191     000E                     TMR1L           equ	14	;# 
   192     000F                     TMR1H           equ	15	;# 
   193     0010                     T1CON           equ	16	;# 
   194     0011                     TMR2            equ	17	;# 
   195     0012                     T2CON           equ	18	;# 
   196     0013                     SSPBUF          equ	19	;# 
   197     0014                     SSPCON          equ	20	;# 
   198     0015                     CCPR1           equ	21	;# 
   199     0015                     CCPR1L          equ	21	;# 
   200     0016                     CCPR1H          equ	22	;# 
   201     0017                     CCP1CON         equ	23	;# 
   202     0018                     RCSTA           equ	24	;# 
   203     0019                     TXREG           equ	25	;# 
   204     001A                     RCREG           equ	26	;# 
   205     001B                     CCPR2           equ	27	;# 
   206     001B                     CCPR2L          equ	27	;# 
   207     001C                     CCPR2H          equ	28	;# 
   208     001D                     CCP2CON         equ	29	;# 
   209     001E                     ADRESH          equ	30	;# 
   210     001F                     ADCON0          equ	31	;# 
   211     0081                     OPTION_REG      equ	129	;# 
   212     0085                     TRISA           equ	133	;# 
   213     0086                     TRISB           equ	134	;# 
   214     0087                     TRISC           equ	135	;# 
   215     0089                     TRISE           equ	137	;# 
   216     008C                     PIE1            equ	140	;# 
   217     008D                     PIE2            equ	141	;# 
   218     008E                     PCON            equ	142	;# 
   219     008F                     OSCCON          equ	143	;# 
   220     0090                     OSCTUNE         equ	144	;# 
   221     0091                     SSPCON2         equ	145	;# 
   222     0092                     PR2             equ	146	;# 
   223     0093                     SSPADD          equ	147	;# 
   224     0093                     SSPMSK          equ	147	;# 
   225     0093                     MSK             equ	147	;# 
   226     0094                     SSPSTAT         equ	148	;# 
   227     0095                     WPUB            equ	149	;# 
   228     0096                     IOCB            equ	150	;# 
   229     0097                     VRCON           equ	151	;# 
   230     0098                     TXSTA           equ	152	;# 
   231     0099                     SPBRG           equ	153	;# 
   232     009A                     SPBRGH          equ	154	;# 
   233     009B                     PWM1CON         equ	155	;# 
   234     009C                     ECCPAS          equ	156	;# 
   235     009D                     PSTRCON         equ	157	;# 
   236     009E                     ADRESL          equ	158	;# 
   237     009F                     ADCON1          equ	159	;# 
   238     0105                     WDTCON          equ	261	;# 
   239     0107                     CM1CON0         equ	263	;# 
   240     0108                     CM2CON0         equ	264	;# 
   241     0109                     CM2CON1         equ	265	;# 
   242     010C                     EEDATA          equ	268	;# 
   243     010C                     EEDAT           equ	268	;# 
   244     010D                     EEADR           equ	269	;# 
   245     010E                     EEDATH          equ	270	;# 
   246     010F                     EEADRH          equ	271	;# 
   247     0185                     SRCON           equ	389	;# 
   248     0187                     BAUDCTL         equ	391	;# 
   249     0188                     ANSEL           equ	392	;# 
   250     0189                     ANSELH          equ	393	;# 
   251     018C                     EECON1          equ	396	;# 
   252     018D                     EECON2          equ	397	;# 
   253     0000                     INDF            equ	0	;# 
   254     0001                     TMR0            equ	1	;# 
   255     0002                     PCL             equ	2	;# 
   256     0003                     STATUS          equ	3	;# 
   257     0004                     FSR             equ	4	;# 
   258     0005                     PORTA           equ	5	;# 
   259     0006                     PORTB           equ	6	;# 
   260     0007                     PORTC           equ	7	;# 
   261     0009                     PORTE           equ	9	;# 
   262     000A                     PCLATH          equ	10	;# 
   263     000B                     INTCON          equ	11	;# 
   264     000C                     PIR1            equ	12	;# 
   265     000D                     PIR2            equ	13	;# 
   266     000E                     TMR1            equ	14	;# 
   267     000E                     TMR1L           equ	14	;# 
   268     000F                     TMR1H           equ	15	;# 
   269     0010                     T1CON           equ	16	;# 
   270     0011                     TMR2            equ	17	;# 
   271     0012                     T2CON           equ	18	;# 
   272     0013                     SSPBUF          equ	19	;# 
   273     0014                     SSPCON          equ	20	;# 
   274     0015                     CCPR1           equ	21	;# 
   275     0015                     CCPR1L          equ	21	;# 
   276     0016                     CCPR1H          equ	22	;# 
   277     0017                     CCP1CON         equ	23	;# 
   278     0018                     RCSTA           equ	24	;# 
   279     0019                     TXREG           equ	25	;# 
   280     001A                     RCREG           equ	26	;# 
   281     001B                     CCPR2           equ	27	;# 
   282     001B                     CCPR2L          equ	27	;# 
   283     001C                     CCPR2H          equ	28	;# 
   284     001D                     CCP2CON         equ	29	;# 
   285     001E                     ADRESH          equ	30	;# 
   286     001F                     ADCON0          equ	31	;# 
   287     0081                     OPTION_REG      equ	129	;# 
   288     0085                     TRISA           equ	133	;# 
   289     0086                     TRISB           equ	134	;# 
   290     0087                     TRISC           equ	135	;# 
   291     0089                     TRISE           equ	137	;# 
   292     008C                     PIE1            equ	140	;# 
   293     008D                     PIE2            equ	141	;# 
   294     008E                     PCON            equ	142	;# 
   295     008F                     OSCCON          equ	143	;# 
   296     0090                     OSCTUNE         equ	144	;# 
   297     0091                     SSPCON2         equ	145	;# 
   298     0092                     PR2             equ	146	;# 
   299     0093                     SSPADD          equ	147	;# 
   300     0093                     SSPMSK          equ	147	;# 
   301     0093                     MSK             equ	147	;# 
   302     0094                     SSPSTAT         equ	148	;# 
   303     0095                     WPUB            equ	149	;# 
   304     0096                     IOCB            equ	150	;# 
   305     0097                     VRCON           equ	151	;# 
   306     0098                     TXSTA           equ	152	;# 
   307     0099                     SPBRG           equ	153	;# 
   308     009A                     SPBRGH          equ	154	;# 
   309     009B                     PWM1CON         equ	155	;# 
   310     009C                     ECCPAS          equ	156	;# 
   311     009D                     PSTRCON         equ	157	;# 
   312     009E                     ADRESL          equ	158	;# 
   313     009F                     ADCON1          equ	159	;# 
   314     0105                     WDTCON          equ	261	;# 
   315     0107                     CM1CON0         equ	263	;# 
   316     0108                     CM2CON0         equ	264	;# 
   317     0109                     CM2CON1         equ	265	;# 
   318     010C                     EEDATA          equ	268	;# 
   319     010C                     EEDAT           equ	268	;# 
   320     010D                     EEADR           equ	269	;# 
   321     010E                     EEDATH          equ	270	;# 
   322     010F                     EEADRH          equ	271	;# 
   323     0185                     SRCON           equ	389	;# 
   324     0187                     BAUDCTL         equ	391	;# 
   325     0188                     ANSEL           equ	392	;# 
   326     0189                     ANSELH          equ	393	;# 
   327     018C                     EECON1          equ	396	;# 
   328     018D                     EECON2          equ	397	;# 
   329     0000                     INDF            equ	0	;# 
   330     0001                     TMR0            equ	1	;# 
   331     0002                     PCL             equ	2	;# 
   332     0003                     STATUS          equ	3	;# 
   333     0004                     FSR             equ	4	;# 
   334     0005                     PORTA           equ	5	;# 
   335     0006                     PORTB           equ	6	;# 
   336     0007                     PORTC           equ	7	;# 
   337     0009                     PORTE           equ	9	;# 
   338     000A                     PCLATH          equ	10	;# 
   339     000B                     INTCON          equ	11	;# 
   340     000C                     PIR1            equ	12	;# 
   341     000D                     PIR2            equ	13	;# 
   342     000E                     TMR1            equ	14	;# 
   343     000E                     TMR1L           equ	14	;# 
   344     000F                     TMR1H           equ	15	;# 
   345     0010                     T1CON           equ	16	;# 
   346     0011                     TMR2            equ	17	;# 
   347     0012                     T2CON           equ	18	;# 
   348     0013                     SSPBUF          equ	19	;# 
   349     0014                     SSPCON          equ	20	;# 
   350     0015                     CCPR1           equ	21	;# 
   351     0015                     CCPR1L          equ	21	;# 
   352     0016                     CCPR1H          equ	22	;# 
   353     0017                     CCP1CON         equ	23	;# 
   354     0018                     RCSTA           equ	24	;# 
   355     0019                     TXREG           equ	25	;# 
   356     001A                     RCREG           equ	26	;# 
   357     001B                     CCPR2           equ	27	;# 
   358     001B                     CCPR2L          equ	27	;# 
   359     001C                     CCPR2H          equ	28	;# 
   360     001D                     CCP2CON         equ	29	;# 
   361     001E                     ADRESH          equ	30	;# 
   362     001F                     ADCON0          equ	31	;# 
   363     0081                     OPTION_REG      equ	129	;# 
   364     0085                     TRISA           equ	133	;# 
   365     0086                     TRISB           equ	134	;# 
   366     0087                     TRISC           equ	135	;# 
   367     0089                     TRISE           equ	137	;# 
   368     008C                     PIE1            equ	140	;# 
   369     008D                     PIE2            equ	141	;# 
   370     008E                     PCON            equ	142	;# 
   371     008F                     OSCCON          equ	143	;# 
   372     0090                     OSCTUNE         equ	144	;# 
   373     0091                     SSPCON2         equ	145	;# 
   374     0092                     PR2             equ	146	;# 
   375     0093                     SSPADD          equ	147	;# 
   376     0093                     SSPMSK          equ	147	;# 
   377     0093                     MSK             equ	147	;# 
   378     0094                     SSPSTAT         equ	148	;# 
   379     0095                     WPUB            equ	149	;# 
   380     0096                     IOCB            equ	150	;# 
   381     0097                     VRCON           equ	151	;# 
   382     0098                     TXSTA           equ	152	;# 
   383     0099                     SPBRG           equ	153	;# 
   384     009A                     SPBRGH          equ	154	;# 
   385     009B                     PWM1CON         equ	155	;# 
   386     009C                     ECCPAS          equ	156	;# 
   387     009D                     PSTRCON         equ	157	;# 
   388     009E                     ADRESL          equ	158	;# 
   389     009F                     ADCON1          equ	159	;# 
   390     0105                     WDTCON          equ	261	;# 
   391     0107                     CM1CON0         equ	263	;# 
   392     0108                     CM2CON0         equ	264	;# 
   393     0109                     CM2CON1         equ	265	;# 
   394     010C                     EEDATA          equ	268	;# 
   395     010C                     EEDAT           equ	268	;# 
   396     010D                     EEADR           equ	269	;# 
   397     010E                     EEDATH          equ	270	;# 
   398     010F                     EEADRH          equ	271	;# 
   399     0185                     SRCON           equ	389	;# 
   400     0187                     BAUDCTL         equ	391	;# 
   401     0188                     ANSEL           equ	392	;# 
   402     0189                     ANSELH          equ	393	;# 
   403     018C                     EECON1          equ	396	;# 
   404     018D                     EECON2          equ	397	;# 
   405     0000                     INDF            equ	0	;# 
   406     0001                     TMR0            equ	1	;# 
   407     0002                     PCL             equ	2	;# 
   408     0003                     STATUS          equ	3	;# 
   409     0004                     FSR             equ	4	;# 
   410     0005                     PORTA           equ	5	;# 
   411     0006                     PORTB           equ	6	;# 
   412     0007                     PORTC           equ	7	;# 
   413     0009                     PORTE           equ	9	;# 
   414     000A                     PCLATH          equ	10	;# 
   415     000B                     INTCON          equ	11	;# 
   416     000C                     PIR1            equ	12	;# 
   417     000D                     PIR2            equ	13	;# 
   418     000E                     TMR1            equ	14	;# 
   419     000E                     TMR1L           equ	14	;# 
   420     000F                     TMR1H           equ	15	;# 
   421     0010                     T1CON           equ	16	;# 
   422     0011                     TMR2            equ	17	;# 
   423     0012                     T2CON           equ	18	;# 
   424     0013                     SSPBUF          equ	19	;# 
   425     0014                     SSPCON          equ	20	;# 
   426     0015                     CCPR1           equ	21	;# 
   427     0015                     CCPR1L          equ	21	;# 
   428     0016                     CCPR1H          equ	22	;# 
   429     0017                     CCP1CON         equ	23	;# 
   430     0018                     RCSTA           equ	24	;# 
   431     0019                     TXREG           equ	25	;# 
   432     001A                     RCREG           equ	26	;# 
   433     001B                     CCPR2           equ	27	;# 
   434     001B                     CCPR2L          equ	27	;# 
   435     001C                     CCPR2H          equ	28	;# 
   436     001D                     CCP2CON         equ	29	;# 
   437     001E                     ADRESH          equ	30	;# 
   438     001F                     ADCON0          equ	31	;# 
   439     0081                     OPTION_REG      equ	129	;# 
   440     0085                     TRISA           equ	133	;# 
   441     0086                     TRISB           equ	134	;# 
   442     0087                     TRISC           equ	135	;# 
   443     0089                     TRISE           equ	137	;# 
   444     008C                     PIE1            equ	140	;# 
   445     008D                     PIE2            equ	141	;# 
   446     008E                     PCON            equ	142	;# 
   447     008F                     OSCCON          equ	143	;# 
   448     0090                     OSCTUNE         equ	144	;# 
   449     0091                     SSPCON2         equ	145	;# 
   450     0092                     PR2             equ	146	;# 
   451     0093                     SSPADD          equ	147	;# 
   452     0093                     SSPMSK          equ	147	;# 
   453     0093                     MSK             equ	147	;# 
   454     0094                     SSPSTAT         equ	148	;# 
   455     0095                     WPUB            equ	149	;# 
   456     0096                     IOCB            equ	150	;# 
   457     0097                     VRCON           equ	151	;# 
   458     0098                     TXSTA           equ	152	;# 
   459     0099                     SPBRG           equ	153	;# 
   460     009A                     SPBRGH          equ	154	;# 
   461     009B                     PWM1CON         equ	155	;# 
   462     009C                     ECCPAS          equ	156	;# 
   463     009D                     PSTRCON         equ	157	;# 
   464     009E                     ADRESL          equ	158	;# 
   465     009F                     ADCON1          equ	159	;# 
   466     0105                     WDTCON          equ	261	;# 
   467     0107                     CM1CON0         equ	263	;# 
   468     0108                     CM2CON0         equ	264	;# 
   469     0109                     CM2CON1         equ	265	;# 
   470     010C                     EEDATA          equ	268	;# 
   471     010C                     EEDAT           equ	268	;# 
   472     010D                     EEADR           equ	269	;# 
   473     010E                     EEDATH          equ	270	;# 
   474     010F                     EEADRH          equ	271	;# 
   475     0185                     SRCON           equ	389	;# 
   476     0187                     BAUDCTL         equ	391	;# 
   477     0188                     ANSEL           equ	392	;# 
   478     0189                     ANSELH          equ	393	;# 
   479     018C                     EECON1          equ	396	;# 
   480     018D                     EECON2          equ	397	;# 
   481     0000                     INDF            equ	0	;# 
   482     0001                     TMR0            equ	1	;# 
   483     0002                     PCL             equ	2	;# 
   484     0003                     STATUS          equ	3	;# 
   485     0004                     FSR             equ	4	;# 
   486     0005                     PORTA           equ	5	;# 
   487     0006                     PORTB           equ	6	;# 
   488     0007                     PORTC           equ	7	;# 
   489     0009                     PORTE           equ	9	;# 
   490     000A                     PCLATH          equ	10	;# 
   491     000B                     INTCON          equ	11	;# 
   492     000C                     PIR1            equ	12	;# 
   493     000D                     PIR2            equ	13	;# 
   494     000E                     TMR1            equ	14	;# 
   495     000E                     TMR1L           equ	14	;# 
   496     000F                     TMR1H           equ	15	;# 
   497     0010                     T1CON           equ	16	;# 
   498     0011                     TMR2            equ	17	;# 
   499     0012                     T2CON           equ	18	;# 
   500     0013                     SSPBUF          equ	19	;# 
   501     0014                     SSPCON          equ	20	;# 
   502     0015                     CCPR1           equ	21	;# 
   503     0015                     CCPR1L          equ	21	;# 
   504     0016                     CCPR1H          equ	22	;# 
   505     0017                     CCP1CON         equ	23	;# 
   506     0018                     RCSTA           equ	24	;# 
   507     0019                     TXREG           equ	25	;# 
   508     001A                     RCREG           equ	26	;# 
   509     001B                     CCPR2           equ	27	;# 
   510     001B                     CCPR2L          equ	27	;# 
   511     001C                     CCPR2H          equ	28	;# 
   512     001D                     CCP2CON         equ	29	;# 
   513     001E                     ADRESH          equ	30	;# 
   514     001F                     ADCON0          equ	31	;# 
   515     0081                     OPTION_REG      equ	129	;# 
   516     0085                     TRISA           equ	133	;# 
   517     0086                     TRISB           equ	134	;# 
   518     0087                     TRISC           equ	135	;# 
   519     0089                     TRISE           equ	137	;# 
   520     008C                     PIE1            equ	140	;# 
   521     008D                     PIE2            equ	141	;# 
   522     008E                     PCON            equ	142	;# 
   523     008F                     OSCCON          equ	143	;# 
   524     0090                     OSCTUNE         equ	144	;# 
   525     0091                     SSPCON2         equ	145	;# 
   526     0092                     PR2             equ	146	;# 
   527     0093                     SSPADD          equ	147	;# 
   528     0093                     SSPMSK          equ	147	;# 
   529     0093                     MSK             equ	147	;# 
   530     0094                     SSPSTAT         equ	148	;# 
   531     0095                     WPUB            equ	149	;# 
   532     0096                     IOCB            equ	150	;# 
   533     0097                     VRCON           equ	151	;# 
   534     0098                     TXSTA           equ	152	;# 
   535     0099                     SPBRG           equ	153	;# 
   536     009A                     SPBRGH          equ	154	;# 
   537     009B                     PWM1CON         equ	155	;# 
   538     009C                     ECCPAS          equ	156	;# 
   539     009D                     PSTRCON         equ	157	;# 
   540     009E                     ADRESL          equ	158	;# 
   541     009F                     ADCON1          equ	159	;# 
   542     0105                     WDTCON          equ	261	;# 
   543     0107                     CM1CON0         equ	263	;# 
   544     0108                     CM2CON0         equ	264	;# 
   545     0109                     CM2CON1         equ	265	;# 
   546     010C                     EEDATA          equ	268	;# 
   547     010C                     EEDAT           equ	268	;# 
   548     010D                     EEADR           equ	269	;# 
   549     010E                     EEDATH          equ	270	;# 
   550     010F                     EEADRH          equ	271	;# 
   551     0185                     SRCON           equ	389	;# 
   552     0187                     BAUDCTL         equ	391	;# 
   553     0188                     ANSEL           equ	392	;# 
   554     0189                     ANSELH          equ	393	;# 
   555     018C                     EECON1          equ	396	;# 
   556     018D                     EECON2          equ	397	;# 
   557     0000                     INDF            equ	0	;# 
   558     0001                     TMR0            equ	1	;# 
   559     0002                     PCL             equ	2	;# 
   560     0003                     STATUS          equ	3	;# 
   561     0004                     FSR             equ	4	;# 
   562     0005                     PORTA           equ	5	;# 
   563     0006                     PORTB           equ	6	;# 
   564     0007                     PORTC           equ	7	;# 
   565     0009                     PORTE           equ	9	;# 
   566     000A                     PCLATH          equ	10	;# 
   567     000B                     INTCON          equ	11	;# 
   568     000C                     PIR1            equ	12	;# 
   569     000D                     PIR2            equ	13	;# 
   570     000E                     TMR1            equ	14	;# 
   571     000E                     TMR1L           equ	14	;# 
   572     000F                     TMR1H           equ	15	;# 
   573     0010                     T1CON           equ	16	;# 
   574     0011                     TMR2            equ	17	;# 
   575     0012                     T2CON           equ	18	;# 
   576     0013                     SSPBUF          equ	19	;# 
   577     0014                     SSPCON          equ	20	;# 
   578     0015                     CCPR1           equ	21	;# 
   579     0015                     CCPR1L          equ	21	;# 
   580     0016                     CCPR1H          equ	22	;# 
   581     0017                     CCP1CON         equ	23	;# 
   582     0018                     RCSTA           equ	24	;# 
   583     0019                     TXREG           equ	25	;# 
   584     001A                     RCREG           equ	26	;# 
   585     001B                     CCPR2           equ	27	;# 
   586     001B                     CCPR2L          equ	27	;# 
   587     001C                     CCPR2H          equ	28	;# 
   588     001D                     CCP2CON         equ	29	;# 
   589     001E                     ADRESH          equ	30	;# 
   590     001F                     ADCON0          equ	31	;# 
   591     0081                     OPTION_REG      equ	129	;# 
   592     0085                     TRISA           equ	133	;# 
   593     0086                     TRISB           equ	134	;# 
   594     0087                     TRISC           equ	135	;# 
   595     0089                     TRISE           equ	137	;# 
   596     008C                     PIE1            equ	140	;# 
   597     008D                     PIE2            equ	141	;# 
   598     008E                     PCON            equ	142	;# 
   599     008F                     OSCCON          equ	143	;# 
   600     0090                     OSCTUNE         equ	144	;# 
   601     0091                     SSPCON2         equ	145	;# 
   602     0092                     PR2             equ	146	;# 
   603     0093                     SSPADD          equ	147	;# 
   604     0093                     SSPMSK          equ	147	;# 
   605     0093                     MSK             equ	147	;# 
   606     0094                     SSPSTAT         equ	148	;# 
   607     0095                     WPUB            equ	149	;# 
   608     0096                     IOCB            equ	150	;# 
   609     0097                     VRCON           equ	151	;# 
   610     0098                     TXSTA           equ	152	;# 
   611     0099                     SPBRG           equ	153	;# 
   612     009A                     SPBRGH          equ	154	;# 
   613     009B                     PWM1CON         equ	155	;# 
   614     009C                     ECCPAS          equ	156	;# 
   615     009D                     PSTRCON         equ	157	;# 
   616     009E                     ADRESL          equ	158	;# 
   617     009F                     ADCON1          equ	159	;# 
   618     0105                     WDTCON          equ	261	;# 
   619     0107                     CM1CON0         equ	263	;# 
   620     0108                     CM2CON0         equ	264	;# 
   621     0109                     CM2CON1         equ	265	;# 
   622     010C                     EEDATA          equ	268	;# 
   623     010C                     EEDAT           equ	268	;# 
   624     010D                     EEADR           equ	269	;# 
   625     010E                     EEDATH          equ	270	;# 
   626     010F                     EEADRH          equ	271	;# 
   627     0185                     SRCON           equ	389	;# 
   628     0187                     BAUDCTL         equ	391	;# 
   629     0188                     ANSEL           equ	392	;# 
   630     0189                     ANSELH          equ	393	;# 
   631     018C                     EECON1          equ	396	;# 
   632     018D                     EECON2          equ	397	;# 
   633     001E                     _ADRESH         set	30
   634     0001                     _TMR0           set	1
   635     000B                     _INTCONbits     set	11
   636     0014                     _SSPCON         set	20
   637     0005                     _PORTAbits      set	5
   638     0007                     _PORTCbits      set	7
   639     0013                     _SSPBUF         set	19
   640     001F                     _ADCON0bits     set	31
   641     001A                     _RCREG          set	26
   642     000C                     _PIR1bits       set	12
   643     0019                     _TXREG          set	25
   644     0018                     _RCSTAbits      set	24
   645     0015                     _CCPR1L         set	21
   646     0017                     _CCP1CONbits    set	23
   647     0012                     _T2CONbits      set	18
   648     0064                     _TXIF           set	100
   649     008F                     _OSCCONbits     set	143
   650     009E                     _ADRESL         set	158
   651     0081                     _OPTION_REGbits set	129
   652     0094                     _SSPSTAT        set	148
   653     0093                     _SSPADD         set	147
   654     0091                     _SSPCON2bits    set	145
   655     009F                     _ADCON1bits     set	159
   656     0085                     _TRISAbits      set	133
   657     008C                     _PIE1bits       set	140
   658     0099                     _SPBRG          set	153
   659     009A                     _SPBRGH         set	154
   660     0098                     _TXSTAbits      set	152
   661     0087                     _TRISCbits      set	135
   662     0092                     _PR2            set	146
   663     0189                     _ANSELH         set	393
   664     0188                     _ANSEL          set	392
   665     0187                     _BAUDCTLbits    set	391
   666                           
   667                           	psect	strings
   668     1800                     __pstrings:
   669     1800                     stringtab:
   670     1800                     __stringtab:
   671     1800                     stringcode:	
   672                           ;	String table - string pointers are 1 byte each
   673                           
   674     1800                     stringdir:
   675     1800  3018               	movlw	high stringdir
   676     1801  008A               	movwf	10
   677     1802  0804               	movf	4,w
   678     1803  0A84               	incf	4,f
   679     1804  0782               	addwf	2,f
   680     1805                     __stringbase:
   681     1805  3400               	retlw	0
   682     1806                     __end_of__stringtab:
   683     1806                     STR_1:
   684     1806  344C               	retlw	76	;'L'
   685     1807  3475               	retlw	117	;'u'
   686     1808  346D               	retlw	109	;'m'
   687     1809  3469               	retlw	105	;'i'
   688     180A  346E               	retlw	110	;'n'
   689     180B  346F               	retlw	111	;'o'
   690     180C  3473               	retlw	115	;'s'
   691     180D  3469               	retlw	105	;'i'
   692     180E  3464               	retlw	100	;'d'
   693     180F  3461               	retlw	97	;'a'
   694     1810  3464               	retlw	100	;'d'
   695     1811  343A               	retlw	58	;':'
   696     1812  3420               	retlw	32	;' '
   697     1813  3425               	retlw	37	;'%'
   698     1814  3466               	retlw	102	;'f'
   699     1815  3420               	retlw	32	;' '
   700     1816  342D               	retlw	45	;'-'
   701     1817  3420               	retlw	32	;' '
   702     1818  3443               	retlw	67	;'C'
   703     1819  344F               	retlw	79	;'O'
   704     181A  3432               	retlw	50	;'2'
   705     181B  343A               	retlw	58	;':'
   706     181C  3420               	retlw	32	;' '
   707     181D  3425               	retlw	37	;'%'
   708     181E  3464               	retlw	100	;'d'
   709     181F  3420               	retlw	32	;' '
   710     1820  342D               	retlw	45	;'-'
   711     1821  3420               	retlw	32	;' '
   712     1822  3448               	retlw	72	;'H'
   713     1823  3475               	retlw	117	;'u'
   714     1824  346D               	retlw	109	;'m'
   715     1825  3465               	retlw	101	;'e'
   716     1826  3464               	retlw	100	;'d'
   717     1827  3461               	retlw	97	;'a'
   718     1828  3464               	retlw	100	;'d'
   719     1829  3420               	retlw	32	;' '
   720     182A  3452               	retlw	82	;'R'
   721     182B  3465               	retlw	101	;'e'
   722     182C  346C               	retlw	108	;'l'
   723     182D  3461               	retlw	97	;'a'
   724     182E  3474               	retlw	116	;'t'
   725     182F  3469               	retlw	105	;'i'
   726     1830  3476               	retlw	118	;'v'
   727     1831  3461               	retlw	97	;'a'
   728     1832  343A               	retlw	58	;':'
   729     1833  3420               	retlw	32	;' '
   730     1834  3425               	retlw	37	;'%'
   731     1835  3464               	retlw	100	;'d'
   732     1836  3420               	retlw	32	;' '
   733     1837  342D               	retlw	45	;'-'
   734     1838  3420               	retlw	32	;' '
   735     1839  3456               	retlw	86	;'V'
   736     183A  3465               	retlw	101	;'e'
   737     183B  346C               	retlw	108	;'l'
   738     183C  346F               	retlw	111	;'o'
   739     183D  3463               	retlw	99	;'c'
   740     183E  3469               	retlw	105	;'i'
   741     183F  3464               	retlw	100	;'d'
   742     1840  3461               	retlw	97	;'a'
   743     1841  3464               	retlw	100	;'d'
   744     1842  3420               	retlw	32	;' '
   745     1843  3456               	retlw	86	;'V'
   746     1844  3465               	retlw	101	;'e'
   747     1845  346E               	retlw	110	;'n'
   748     1846  3474               	retlw	116	;'t'
   749     1847  3469               	retlw	105	;'i'
   750     1848  346C               	retlw	108	;'l'
   751     1849  3461               	retlw	97	;'a'
   752     184A  3464               	retlw	100	;'d'
   753     184B  346F               	retlw	111	;'o'
   754     184C  3472               	retlw	114	;'r'
   755     184D  343A               	retlw	58	;':'
   756     184E  3420               	retlw	32	;' '
   757     184F  3425               	retlw	37	;'%'
   758     1850  3466               	retlw	102	;'f'
   759     1851  3420               	retlw	32	;' '
   760     1852  342D               	retlw	45	;'-'
   761     1853  3420               	retlw	32	;' '
   762     1854  344C               	retlw	76	;'L'
   763     1855  3465               	retlw	101	;'e'
   764     1856  3464               	retlw	100	;'d'
   765     1857  3473               	retlw	115	;'s'
   766     1858  343A               	retlw	58	;':'
   767     1859  3420               	retlw	32	;' '
   768     185A  3452               	retlw	82	;'R'
   769     185B  3425               	retlw	37	;'%'
   770     185C  3464               	retlw	100	;'d'
   771     185D  3420               	retlw	32	;' '
   772     185E  3447               	retlw	71	;'G'
   773     185F  3425               	retlw	37	;'%'
   774     1860  3464               	retlw	100	;'d'
   775     1861  3420               	retlw	32	;' '
   776     1862  3442               	retlw	66	;'B'
   777     1863  3425               	retlw	37	;'%'
   778     1864  3464               	retlw	100	;'d'
   779     1865  3420               	retlw	32	;' '
   780     1866  3449               	retlw	73	;'I'
   781     1867  3425               	retlw	37	;'%'
   782     1868  3464               	retlw	100	;'d'
   783     1869  3420               	retlw	32	;' '
   784     186A  342D               	retlw	45	;'-'
   785     186B  3420               	retlw	32	;' '
   786     186C  3454               	retlw	84	;'T'
   787     186D  3465               	retlw	101	;'e'
   788     186E  346D               	retlw	109	;'m'
   789     186F  3470               	retlw	112	;'p'
   790     1870  3465               	retlw	101	;'e'
   791     1871  3472               	retlw	114	;'r'
   792     1872  3461               	retlw	97	;'a'
   793     1873  3474               	retlw	116	;'t'
   794     1874  3475               	retlw	117	;'u'
   795     1875  3472               	retlw	114	;'r'
   796     1876  3461               	retlw	97	;'a'
   797     1877  343A               	retlw	58	;':'
   798     1878  3420               	retlw	32	;' '
   799     1879  3425               	retlw	37	;'%'
   800     187A  3464               	retlw	100	;'d'
   801     187B  340A               	retlw	10
   802     187C  3400               	retlw	0
   803     187D                     STR_2:
   804     187D  3452               	retlw	82	;'R'
   805     187E  3475               	retlw	117	;'u'
   806     187F  3469               	retlw	105	;'i'
   807     1880  3464               	retlw	100	;'d'
   808     1881  346F               	retlw	111	;'o'
   809     1882  343A               	retlw	58	;':'
   810     1883  3420               	retlw	32	;' '
   811     1884  3425               	retlw	37	;'%'
   812     1885  3464               	retlw	100	;'d'
   813     1886  340A               	retlw	10
   814     1887  3400               	retlw	0
   815     1888                     STR_3:
   816     1888  3469               	retlw	105	;'i'
   817     1889  346E               	retlw	110	;'n'
   818     188A  3466               	retlw	102	;'f'
   819     188B  3400               	retlw	0
   820     188C                     STR_6:
   821     188C  346E               	retlw	110	;'n'
   822     188D  3461               	retlw	97	;'a'
   823     188E  346E               	retlw	110	;'n'
   824     188F  3400               	retlw	0
   825     188C                     STR_7           equ	STR_6
   826     188C                     STR_8           equ	STR_6
   827     1888                     STR_4           equ	STR_3
   828     1888                     STR_5           equ	STR_3
   829                           
   830                           	psect	cinit
   831     0013                     start_initialization:	
   832                           ; #config settings
   833                           
   834     0013                     __initialization:
   835                           
   836                           ; Clear objects allocated to COMMON
   837     0013  01F0               	clrf	__pbssCOMMON& (0+127)
   838     0014  01F1               	clrf	(__pbssCOMMON+1)& (0+127)
   839     0015  01F2               	clrf	(__pbssCOMMON+2)& (0+127)
   840     0016  01F3               	clrf	(__pbssCOMMON+3)& (0+127)
   841     0017  01F4               	clrf	(__pbssCOMMON+4)& (0+127)
   842     0018  01F5               	clrf	(__pbssCOMMON+5)& (0+127)
   843     0019  01F6               	clrf	(__pbssCOMMON+6)& (0+127)
   844                           
   845                           ; Clear objects allocated to BANK0
   846     001A  1283               	bcf	3,5	;RP0=0, select bank0
   847     001B  1303               	bcf	3,6	;RP1=0, select bank0
   848     001C  01EC               	clrf	__pbssBANK0& (0+127)
   849     001D  01ED               	clrf	(__pbssBANK0+1)& (0+127)
   850     001E  01EE               	clrf	(__pbssBANK0+2)& (0+127)
   851                           
   852                           ; Clear objects allocated to BANK1
   853     001F  1683               	bsf	3,5	;RP0=1, select bank1
   854     0020  1303               	bcf	3,6	;RP1=0, select bank1
   855     0021  01E9               	clrf	__pbssBANK1& (0+127)
   856     0022  01EA               	clrf	(__pbssBANK1+1)& (0+127)
   857     0023  01EB               	clrf	(__pbssBANK1+2)& (0+127)
   858     0024  01EC               	clrf	(__pbssBANK1+3)& (0+127)
   859                           
   860                           ; Clear objects allocated to BANK3
   861     0025  1783               	bsf	3,7	;select IRP bank2
   862     0026  30AE               	movlw	low __pbssBANK3
   863     0027  0084               	movwf	4
   864     0028  30C2               	movlw	low (__pbssBANK3+20)
   865     0029  160A  158A  2150  120A  118A  	fcall	clear_ram0
   866                           
   867                           ; Clear objects allocated to BANK2
   868     002E  3010               	movlw	low __pbssBANK2
   869     002F  0084               	movwf	4
   870     0030  3060               	movlw	low (__pbssBANK2+80)
   871     0031  160A  158A  2150  120A  118A  	fcall	clear_ram0
   872     0036                     end_of_initialization:	
   873                           ;End of C runtime variable initialization code
   874                           
   875     0036                     __end_of__initialization:
   876     0036  0183               	clrf	3
   877     0037  160A  118A  2D7A   	ljmp	_main	;jump to C main() function
   878                           
   879                           	psect	bssCOMMON
   880     0070                     __pbssCOMMON:
   881     0070                     _conversion_lista:
   882     0070                     	ds	2
   883     0072                     _canal_actual:
   884     0072                     	ds	2
   885     0074                     _dato:
   886     0074                     	ds	2
   887     0076                     _status:
   888     0076                     	ds	1
   889                           
   890                           	psect	bssBANK0
   891     006C                     __pbssBANK0:
   892     006C                     _tvoc_prediction:
   893     006C                     	ds	2
   894     006E                     _flags:
   895     006E                     	ds	1
   896                           
   897                           	psect	bssBANK1
   898     00E9                     __pbssBANK1:
   899     00E9                     _width:
   900     00E9                     	ds	2
   901     00EB                     _prec:
   902     00EB                     	ds	2
   903                           
   904                           	psect	bssBANK3
   905     01AE                     __pbssBANK3:
   906     01AE                     _lecturas:
   907     01AE                     	ds	6
   908     01B4                     floorf@F521:
   909     01B4                     	ds	4
   910     01B8                     ___fpclassifyf@F465:
   911     01B8                     	ds	4
   912     01BC                     _resistance:
   913     01BC                     	ds	4
   914     01C0                     _co2_prediction:
   915     01C0                     	ds	2
   916                           
   917                           	psect	bssBANK2
   918     0110                     __pbssBANK2:
   919     0110                     _dbuf:
   920     0110                     	ds	80
   921                           
   922                           	psect	clrtext
   923     1950                     clear_ram0:	
   924                           ;	Called with FSR containing the base address, and
   925                           ;	W with the last address+1
   926                           
   927     1950  0064               	clrwdt	;clear the watchdog before getting into this loop
   928     1951                     clrloop0:
   929     1951  0180               	clrf	0	;clear RAM location pointed to by FSR
   930     1952  0A84               	incf	4,f	;increment pointer
   931     1953  0604               	xorwf	4,w	;XOR with final address
   932     1954  1903               	btfsc	3,2	;have we reached the end yet?
   933     1955  3400               	retlw	0	;all done for this memory range, return
   934     1956  0604               	xorwf	4,w	;XOR again to restore value
   935     1957  2951               	goto	clrloop0	;do the next byte
   936                           
   937                           	psect	cstackBANK3
   938     0190                     __pcstackBANK3:
   939     0190                     main@fan_percent:
   940                           
   941                           ; 1 bytes @ 0x0
   942     0190                     	ds	1
   943     0191                     main@lux_value:
   944                           
   945                           ; 4 bytes @ 0x1
   946     0191                     	ds	4
   947     0195                     main@lux_int:
   948                           
   949                           ; 2 bytes @ 0x5
   950     0195                     	ds	2
   951     0197                     main@hum_int:
   952                           
   953                           ; 2 bytes @ 0x7
   954     0197                     	ds	2
   955     0199                     main@adc_noise:
   956                           
   957                           ; 2 bytes @ 0x9
   958     0199                     	ds	2
   959     019B                     main@count:
   960                           
   961                           ; 2 bytes @ 0xB
   962     019B                     	ds	2
   963     019D                     main@rojo:
   964                           
   965                           ; 2 bytes @ 0xD
   966     019D                     	ds	2
   967     019F                     main@verde:
   968                           
   969                           ; 2 bytes @ 0xF
   970     019F                     	ds	2
   971     01A1                     main@azul:
   972                           
   973                           ; 2 bytes @ 0x11
   974     01A1                     	ds	2
   975     01A3                     main@intensity:
   976                           
   977                           ; 2 bytes @ 0x13
   978     01A3                     	ds	2
   979     01A5                     main@noise_category:
   980                           
   981                           ; 1 bytes @ 0x15
   982     01A5                     	ds	1
   983     01A6                     main@velocidad_pwm:
   984                           
   985                           ; 4 bytes @ 0x16
   986     01A6                     	ds	4
   987     01AA                     main@payload:
   988                           
   989                           ; 4 bytes @ 0x1A
   990     01AA                     	ds	4
   991                           
   992                           	psect	cstackBANK1
   993     00A0                     __pcstackBANK1:
   994     00A0                     efgtoa@ne:
   995                           
   996                           ; 2 bytes @ 0x0
   997     00A0                     	ds	2
   998     00A2                     efgtoa@p:
   999                           
  1000                           ; 2 bytes @ 0x2
  1001     00A2                     	ds	2
  1002     00A4                     efgtoa@t:
  1003                           
  1004                           ; 2 bytes @ 0x4
  1005     00A4                     	ds	2
  1006     00A6                     _efgtoa$1357:
  1007                           
  1008                           ; 2 bytes @ 0x6
  1009     00A6                     	ds	2
  1010     00A8                     efgtoa@pp:
  1011                           
  1012                           ; 1 bytes @ 0x8
  1013     00A8                     	ds	1
  1014     00A9                     efgtoa@mode:
  1015                           
  1016                           ; 1 bytes @ 0x9
  1017     00A9                     	ds	1
  1018     00AA                     efgtoa@nmode:
  1019                           
  1020                           ; 1 bytes @ 0xA
  1021     00AA                     	ds	1
  1022     00AB                     efgtoa@d:
  1023                           
  1024                           ; 2 bytes @ 0xB
  1025     00AB                     	ds	2
  1026     00AD                     efgtoa@m:
  1027                           
  1028                           ; 2 bytes @ 0xD
  1029     00AD                     	ds	2
  1030     00AF                     efgtoa@e:
  1031                           
  1032                           ; 2 bytes @ 0xF
  1033     00AF                     	ds	2
  1034     00B1                     efgtoa@w:
  1035                           
  1036                           ; 2 bytes @ 0x11
  1037     00B1                     	ds	2
  1038     00B3                     efgtoa@ou:
  1039                           
  1040                           ; 4 bytes @ 0x13
  1041     00B3                     	ds	4
  1042     00B7                     efgtoa@i:
  1043                           
  1044                           ; 2 bytes @ 0x17
  1045     00B7                     	ds	2
  1046     00B9                     efgtoa@h:
  1047                           
  1048                           ; 4 bytes @ 0x19
  1049     00B9                     	ds	4
  1050     00BD                     efgtoa@l:
  1051                           
  1052                           ; 4 bytes @ 0x1D
  1053     00BD                     	ds	4
  1054     00C1                     efgtoa@sign:
  1055                           
  1056                           ; 1 bytes @ 0x21
  1057     00C1                     	ds	1
  1058     00C2                     efgtoa@n:
  1059                           
  1060                           ; 2 bytes @ 0x22
  1061     00C2                     	ds	2
  1062     00C4                     efgtoa@g:
  1063                           
  1064                           ; 4 bytes @ 0x24
  1065     00C4                     	ds	4
  1066     00C8                     efgtoa@u:
  1067                           
  1068                           ; 4 bytes @ 0x28
  1069     00C8                     	ds	4
  1070     00CC                     ?_vfpfcnvrt:
  1071     00CC                     vfpfcnvrt@fp:	
  1072                           ; 1 bytes @ 0x2C
  1073                           
  1074                           
  1075                           ; 1 bytes @ 0x2C
  1076     00CC                     	ds	1
  1077     00CD                     vfpfcnvrt@fmt:
  1078                           
  1079                           ; 1 bytes @ 0x2D
  1080     00CD                     	ds	1
  1081     00CE                     vfpfcnvrt@ap:
  1082                           
  1083                           ; 1 bytes @ 0x2E
  1084     00CE                     	ds	1
  1085     00CF                     ?_vfprintf:
  1086     00CF                     vfprintf@fp:	
  1087                           ; 2 bytes @ 0x2F
  1088                           
  1089                           
  1090                           ; 1 bytes @ 0x2F
  1091     00CF                     	ds	1
  1092     00D0                     vfprintf@fmt:
  1093                           
  1094                           ; 1 bytes @ 0x30
  1095     00D0                     	ds	1
  1096     00D1                     vfprintf@ap:
  1097                           
  1098                           ; 1 bytes @ 0x31
  1099     00D1                     	ds	1
  1100     00D2                     ?_printf:
  1101     00D2                     printf@fmt:	
  1102                           ; 2 bytes @ 0x32
  1103                           
  1104                           
  1105                           ; 1 bytes @ 0x32
  1106     00D2                     	ds	23
  1107                           
  1108                           	psect	cstackCOMMON
  1109     0077                     __pcstackCOMMON:
  1110     0077                     ?_uart_init:
  1111     0077                     ?_putch:	
  1112                           ; 1 bytes @ 0x0
  1113                           
  1114     0077                     ?_init_ADC:	
  1115                           ; 1 bytes @ 0x0
  1116                           
  1117     0077                     ?_spi_write_read:	
  1118                           ; 1 bytes @ 0x0
  1119                           
  1120     0077                     ?_init_TMR0:	
  1121                           ; 1 bytes @ 0x0
  1122                           
  1123     0077                     ?_interrupt_manager:	
  1124                           ; 1 bytes @ 0x0
  1125                           
  1126     0077                     ?_main:	
  1127                           ; 1 bytes @ 0x0
  1128                           
  1129     0077                     ??_interrupt_manager:	
  1130                           ; 1 bytes @ 0x0
  1131                           
  1132                           
  1133                           ; 1 bytes @ 0x0
  1134     0077                     	ds	5
  1135     007C                     interrupt_manager@valor:
  1136                           
  1137                           ; 2 bytes @ 0x5
  1138     007C                     	ds	2
  1139                           
  1140                           	psect	cstackBANK0
  1141     0020                     __pcstackBANK0:
  1142     0020                     ?_strcpy:
  1143     0020                     ?_memcpy:	
  1144                           ; 1 bytes @ 0x0
  1145                           
  1146     0020                     ?_uart_write:	
  1147                           ; 1 bytes @ 0x0
  1148                           
  1149     0020                     ?___fleq:	
  1150                           ; 1 bytes @ 0x0
  1151                           
  1152     0020                     ?__Umul8_16:	
  1153                           ; 1 bit 
  1154                           
  1155     0020                     ?___fpclassifyf:	
  1156                           ; 2 bytes @ 0x0
  1157                           
  1158     0020                     ?___awdiv:	
  1159                           ; 2 bytes @ 0x0
  1160                           
  1161     0020                     ?___awmod:	
  1162                           ; 2 bytes @ 0x0
  1163                           
  1164     0020                     ?_labs:	
  1165                           ; 2 bytes @ 0x0
  1166                           
  1167     0020                     ?___aldiv:	
  1168                           ; 4 bytes @ 0x0
  1169                           
  1170     0020                     ?___flneg:	
  1171                           ; 4 bytes @ 0x0
  1172                           
  1173     0020                     ?___fladd:	
  1174                           ; 4 bytes @ 0x0
  1175                           
  1176     0020                     ?___fldiv:	
  1177                           ; 4 bytes @ 0x0
  1178                           
  1179     0020                     ?___xxtofl:	
  1180                           ; 4 bytes @ 0x0
  1181                           
  1182     0020                     putch@c:	
  1183                           ; 4 bytes @ 0x0
  1184                           
  1185     0020                     __Umul8_16@multiplicand:	
  1186                           ; 1 bytes @ 0x0
  1187                           
  1188     0020                     memcpy@d1:	
  1189                           ; 1 bytes @ 0x0
  1190                           
  1191     0020                     strcpy@dest:	
  1192                           ; 1 bytes @ 0x0
  1193                           
  1194     0020                     uart_write@c:	
  1195                           ; 1 bytes @ 0x0
  1196                           
  1197     0020                     ___awdiv@divisor:	
  1198                           ; 2 bytes @ 0x0
  1199                           
  1200     0020                     ___awmod@divisor:	
  1201                           ; 2 bytes @ 0x0
  1202                           
  1203     0020                     ___aldiv@divisor:	
  1204                           ; 2 bytes @ 0x0
  1205                           
  1206     0020                     ___fleq@ff1:	
  1207                           ; 4 bytes @ 0x0
  1208                           
  1209     0020                     ___flneg@f1:	
  1210                           ; 4 bytes @ 0x0
  1211                           
  1212     0020                     ___fladd@b:	
  1213                           ; 4 bytes @ 0x0
  1214                           
  1215     0020                     ___fldiv@a:	
  1216                           ; 4 bytes @ 0x0
  1217                           
  1218     0020                     ___xxtofl@val:	
  1219                           ; 4 bytes @ 0x0
  1220                           
  1221     0020                     ___fpclassifyf@x:	
  1222                           ; 4 bytes @ 0x0
  1223                           
  1224     0020                     labs@a:	
  1225                           ; 4 bytes @ 0x0
  1226                           
  1227     0020                     ??_uart_init:	
  1228                           ; 4 bytes @ 0x0
  1229                           
  1230     0020                     ??_putch:	
  1231                           ; 1 bytes @ 0x0
  1232                           
  1233     0020                     ??_init_ADC:	
  1234                           ; 1 bytes @ 0x0
  1235                           
  1236     0020                     ??_spi_write_read:	
  1237                           ; 1 bytes @ 0x0
  1238                           
  1239     0020                     ??_init_TMR0:	
  1240                           ; 1 bytes @ 0x0
  1241                           
  1242                           
  1243                           ; 1 bytes @ 0x0
  1244     0020                     	ds	1
  1245     0021                     ?_fputc:
  1246     0021                     spi_write_read@one_byte:	
  1247                           ; 2 bytes @ 0x1
  1248                           
  1249     0021                     memcpy@s1:	
  1250                           ; 1 bytes @ 0x1
  1251                           
  1252     0021                     strcpy@src:	
  1253                           ; 1 bytes @ 0x1
  1254                           
  1255     0021                     fputc@c:	
  1256                           ; 1 bytes @ 0x1
  1257                           
  1258                           
  1259                           ; 2 bytes @ 0x1
  1260     0021                     	ds	1
  1261     0022                     ?_send_frame:
  1262     0022                     send_frame@length:	
  1263                           ; 1 bytes @ 0x2
  1264                           
  1265     0022                     spi_write_read@answer:	
  1266                           ; 1 bytes @ 0x2
  1267                           
  1268     0022                     strcpy@d:	
  1269                           ; 1 bytes @ 0x2
  1270                           
  1271     0022                     ___awdiv@dividend:	
  1272                           ; 1 bytes @ 0x2
  1273                           
  1274     0022                     ___awmod@dividend:	
  1275                           ; 2 bytes @ 0x2
  1276                           
  1277     0022                     memcpy@n:	
  1278                           ; 2 bytes @ 0x2
  1279                           
  1280     0022                     ??__Umul8_16:	
  1281                           ; 2 bytes @ 0x2
  1282                           
  1283     0022                     ??_strcpy:	
  1284                           ; 1 bytes @ 0x2
  1285                           
  1286     0022                     ??_uart_write:	
  1287                           ; 1 bytes @ 0x2
  1288                           
  1289                           
  1290                           ; 1 bytes @ 0x2
  1291     0022                     	ds	1
  1292     0023                     send_frame@data:
  1293     0023                     spi_write_read@x:	
  1294                           ; 1 bytes @ 0x3
  1295                           
  1296     0023                     fputc@fp:	
  1297                           ; 1 bytes @ 0x3
  1298                           
  1299                           
  1300                           ; 1 bytes @ 0x3
  1301     0023                     	ds	1
  1302     0024                     ?_set_leds:
  1303     0024                     ___awdiv@counter:	
  1304                           ; 1 bytes @ 0x4
  1305                           
  1306     0024                     ___awmod@counter:	
  1307                           ; 1 bytes @ 0x4
  1308                           
  1309     0024                     memcpy@tmp:	
  1310                           ; 1 bytes @ 0x4
  1311                           
  1312     0024                     set_leds@red:	
  1313                           ; 1 bytes @ 0x4
  1314                           
  1315     0024                     __Umul8_16@product:	
  1316                           ; 2 bytes @ 0x4
  1317                           
  1318     0024                     ___aldiv@dividend:	
  1319                           ; 2 bytes @ 0x4
  1320                           
  1321     0024                     ___fleq@ff2:	
  1322                           ; 4 bytes @ 0x4
  1323                           
  1324     0024                     ___fladd@a:	
  1325                           ; 4 bytes @ 0x4
  1326                           
  1327     0024                     ___fldiv@b:	
  1328                           ; 4 bytes @ 0x4
  1329                           
  1330     0024                     ??_fputc:	
  1331                           ; 4 bytes @ 0x4
  1332                           
  1333     0024                     ??___fpclassifyf:	
  1334                           ; 1 bytes @ 0x4
  1335                           
  1336     0024                     ??_labs:	
  1337                           ; 1 bytes @ 0x4
  1338                           
  1339     0024                     ??_memcpy:	
  1340                           ; 1 bytes @ 0x4
  1341                           
  1342     0024                     ??_send_frame:	
  1343                           ; 1 bytes @ 0x4
  1344                           
  1345     0024                     ??___awdiv:	
  1346                           ; 1 bytes @ 0x4
  1347                           
  1348     0024                     ??___awmod:	
  1349                           ; 1 bytes @ 0x4
  1350                           
  1351     0024                     ??___flneg:	
  1352                           ; 1 bytes @ 0x4
  1353                           
  1354     0024                     ??___xxtofl:	
  1355                           ; 1 bytes @ 0x4
  1356                           
  1357                           
  1358                           ; 1 bytes @ 0x4
  1359     0024                     	ds	1
  1360     0025                     ___awdiv@sign:
  1361     0025                     ___awmod@sign:	
  1362                           ; 1 bytes @ 0x5
  1363                           
  1364     0025                     memcpy@d:	
  1365                           ; 1 bytes @ 0x5
  1366                           
  1367                           
  1368                           ; 1 bytes @ 0x5
  1369     0025                     	ds	1
  1370     0026                     ?_abs:
  1371     0026                     memcpy@s:	
  1372                           ; 2 bytes @ 0x6
  1373                           
  1374     0026                     set_leds@green:	
  1375                           ; 1 bytes @ 0x6
  1376                           
  1377     0026                     ___awdiv@quotient:	
  1378                           ; 2 bytes @ 0x6
  1379                           
  1380     0026                     __Umul8_16@word_mpld:	
  1381                           ; 2 bytes @ 0x6
  1382                           
  1383     0026                     abs@a:	
  1384                           ; 2 bytes @ 0x6
  1385                           
  1386                           
  1387                           ; 2 bytes @ 0x6
  1388     0026                     	ds	1
  1389     0027                     send_frame@command:
  1390                           
  1391                           ; 1 bytes @ 0x7
  1392     0027                     	ds	1
  1393     0028                     __Umul8_16@multiplier:
  1394     0028                     ___xxtofl@sign:	
  1395                           ; 1 bytes @ 0x8
  1396                           
  1397     0028                     send_frame@i:	
  1398                           ; 1 bytes @ 0x8
  1399                           
  1400     0028                     set_leds@blue:	
  1401                           ; 2 bytes @ 0x8
  1402                           
  1403     0028                     ??_abs:	
  1404                           ; 2 bytes @ 0x8
  1405                           
  1406     0028                     ??___aldiv:	
  1407                           ; 1 bytes @ 0x8
  1408                           
  1409     0028                     ??___fleq:	
  1410                           ; 1 bytes @ 0x8
  1411                           
  1412     0028                     ??___fladd:	
  1413                           ; 1 bytes @ 0x8
  1414                           
  1415     0028                     ??___fldiv:	
  1416                           ; 1 bytes @ 0x8
  1417                           
  1418                           
  1419                           ; 1 bytes @ 0x8
  1420     0028                     	ds	1
  1421     0029                     ?_fputs:
  1422     0029                     ___aldiv@counter:	
  1423                           ; 2 bytes @ 0x9
  1424                           
  1425     0029                     ___xxtofl@exp:	
  1426                           ; 1 bytes @ 0x9
  1427                           
  1428     0029                     fputs@s:	
  1429                           ; 1 bytes @ 0x9
  1430                           
  1431                           
  1432                           ; 1 bytes @ 0x9
  1433     0029                     	ds	1
  1434     002A                     ___aldiv@sign:
  1435     002A                     fputs@fp:	
  1436                           ; 1 bytes @ 0xA
  1437                           
  1438     002A                     set_leds@intensity:	
  1439                           ; 1 bytes @ 0xA
  1440                           
  1441     002A                     ___fpclassifyf@e:	
  1442                           ; 2 bytes @ 0xA
  1443                           
  1444     002A                     ___xxtofl@arg:	
  1445                           ; 2 bytes @ 0xA
  1446                           
  1447                           
  1448                           ; 4 bytes @ 0xA
  1449     002A                     	ds	1
  1450     002B                     ___aldiv@quotient:
  1451     002B                     ??_fputs:	
  1452                           ; 4 bytes @ 0xB
  1453                           
  1454                           
  1455                           ; 1 bytes @ 0xB
  1456     002B                     	ds	1
  1457     002C                     set_leds@i:
  1458     002C                     ___fpclassifyf@u:	
  1459                           ; 2 bytes @ 0xC
  1460                           
  1461     002C                     ??_set_leds:	
  1462                           ; 4 bytes @ 0xC
  1463                           
  1464                           
  1465                           ; 1 bytes @ 0xC
  1466     002C                     	ds	1
  1467     002D                     fputs@c:
  1468     002D                     ___fldiv@rem:	
  1469                           ; 1 bytes @ 0xD
  1470                           
  1471                           
  1472                           ; 4 bytes @ 0xD
  1473     002D                     	ds	1
  1474     002E                     ?___flmul:
  1475     002E                     fputs@i:	
  1476                           ; 4 bytes @ 0xE
  1477                           
  1478     002E                     ___flmul@b:	
  1479                           ; 2 bytes @ 0xE
  1480                           
  1481                           
  1482                           ; 4 bytes @ 0xE
  1483     002E                     	ds	2
  1484     0030                     ?_pad:
  1485     0030                     ___fladd@signs:	
  1486                           ; 1 bytes @ 0x10
  1487                           
  1488     0030                     pad@fp:	
  1489                           ; 1 bytes @ 0x10
  1490                           
  1491                           
  1492                           ; 1 bytes @ 0x10
  1493     0030                     	ds	1
  1494     0031                     ___fladd@aexp:
  1495     0031                     ___fldiv@sign:	
  1496                           ; 1 bytes @ 0x11
  1497                           
  1498     0031                     pad@buf:	
  1499                           ; 1 bytes @ 0x11
  1500                           
  1501                           
  1502                           ; 1 bytes @ 0x11
  1503     0031                     	ds	1
  1504     0032                     ___fladd@bexp:
  1505     0032                     ___fldiv@new_exp:	
  1506                           ; 1 bytes @ 0x12
  1507                           
  1508     0032                     pad@p:	
  1509                           ; 2 bytes @ 0x12
  1510                           
  1511     0032                     ___flmul@a:	
  1512                           ; 2 bytes @ 0x12
  1513                           
  1514                           
  1515                           ; 4 bytes @ 0x12
  1516     0032                     	ds	1
  1517     0033                     ___fladd@grs:
  1518                           
  1519                           ; 1 bytes @ 0x13
  1520     0033                     	ds	1
  1521     0034                     ___fldiv@grs:
  1522     0034                     ??_pad:	
  1523                           ; 4 bytes @ 0x14
  1524                           
  1525                           
  1526                           ; 1 bytes @ 0x14
  1527     0034                     	ds	1
  1528     0035                     pad@i:
  1529                           
  1530                           ; 2 bytes @ 0x15
  1531     0035                     	ds	1
  1532     0036                     ??___flmul:
  1533                           
  1534                           ; 1 bytes @ 0x16
  1535     0036                     	ds	2
  1536     0038                     ___fldiv@bexp:
  1537                           
  1538                           ; 1 bytes @ 0x18
  1539     0038                     	ds	1
  1540     0039                     ___fldiv@aexp:
  1541                           
  1542                           ; 1 bytes @ 0x19
  1543     0039                     	ds	1
  1544     003A                     ?_floorf:
  1545     003A                     floorf@x:	
  1546                           ; 4 bytes @ 0x1A
  1547                           
  1548                           
  1549                           ; 4 bytes @ 0x1A
  1550     003A                     	ds	1
  1551     003B                     ___flmul@sign:
  1552                           
  1553                           ; 1 bytes @ 0x1B
  1554     003B                     	ds	1
  1555     003C                     ___flmul@grs:
  1556                           
  1557                           ; 4 bytes @ 0x1C
  1558     003C                     	ds	2
  1559     003E                     ??_floorf:
  1560                           
  1561                           ; 1 bytes @ 0x1E
  1562     003E                     	ds	2
  1563     0040                     ___flmul@aexp:
  1564                           
  1565                           ; 1 bytes @ 0x20
  1566     0040                     	ds	1
  1567     0041                     ___flmul@bexp:
  1568                           
  1569                           ; 1 bytes @ 0x21
  1570     0041                     	ds	1
  1571     0042                     ___flmul@prod:
  1572                           
  1573                           ; 4 bytes @ 0x22
  1574     0042                     	ds	2
  1575     0044                     floorf@m:
  1576                           
  1577                           ; 4 bytes @ 0x24
  1578     0044                     	ds	2
  1579     0046                     ___flmul@temp:
  1580                           
  1581                           ; 2 bytes @ 0x26
  1582     0046                     	ds	2
  1583     0048                     ?___flge:
  1584     0048                     ?___fltol:	
  1585                           ; 1 bit 
  1586                           
  1587     0048                     ?___flsub:	
  1588                           ; 4 bytes @ 0x28
  1589                           
  1590     0048                     floorf@e:	
  1591                           ; 4 bytes @ 0x28
  1592                           
  1593     0048                     ___flge@ff1:	
  1594                           ; 2 bytes @ 0x28
  1595                           
  1596     0048                     ___fltol@f1:	
  1597                           ; 4 bytes @ 0x28
  1598                           
  1599     0048                     ___flsub@a:	
  1600                           ; 4 bytes @ 0x28
  1601                           
  1602                           
  1603                           ; 4 bytes @ 0x28
  1604     0048                     	ds	2
  1605     004A                     floorf@u:
  1606                           
  1607                           ; 4 bytes @ 0x2A
  1608     004A                     	ds	2
  1609     004C                     ___flge@ff2:
  1610     004C                     ___flsub@b:	
  1611                           ; 4 bytes @ 0x2C
  1612                           
  1613     004C                     ??___fltol:	
  1614                           ; 4 bytes @ 0x2C
  1615                           
  1616                           
  1617                           ; 1 bytes @ 0x2C
  1618     004C                     	ds	4
  1619     0050                     ___fltol@sign1:
  1620     0050                     ??___flge:	
  1621                           ; 1 bytes @ 0x30
  1622                           
  1623     0050                     ??___flsub:	
  1624                           ; 1 bytes @ 0x30
  1625                           
  1626                           
  1627                           ; 1 bytes @ 0x30
  1628     0050                     	ds	1
  1629     0051                     ___fltol@exp1:
  1630                           
  1631                           ; 1 bytes @ 0x31
  1632     0051                     	ds	1
  1633     0052                     ?_init_PWM:
  1634     0052                     ?_set_PWM:	
  1635                           ; 1 bytes @ 0x32
  1636                           
  1637     0052                     init_PWM@freq:	
  1638                           ; 1 bytes @ 0x32
  1639                           
  1640     0052                     set_PWM@freq:	
  1641                           ; 2 bytes @ 0x32
  1642                           
  1643                           
  1644                           ; 2 bytes @ 0x32
  1645     0052                     	ds	2
  1646     0054                     ?_efgtoa:
  1647     0054                     efgtoa@fp:	
  1648                           ; 1 bytes @ 0x34
  1649                           
  1650     0054                     init_PWM@porcentaje:	
  1651                           ; 1 bytes @ 0x34
  1652                           
  1653     0054                     set_PWM@porcentaje:	
  1654                           ; 4 bytes @ 0x34
  1655                           
  1656                           
  1657                           ; 4 bytes @ 0x34
  1658     0054                     	ds	1
  1659     0055                     efgtoa@f:
  1660                           
  1661                           ; 4 bytes @ 0x35
  1662     0055                     	ds	3
  1663     0058                     ??_init_PWM:
  1664     0058                     ??_set_PWM:	
  1665                           ; 1 bytes @ 0x38
  1666                           
  1667                           
  1668                           ; 1 bytes @ 0x38
  1669     0058                     	ds	1
  1670     0059                     efgtoa@c:
  1671                           
  1672                           ; 1 bytes @ 0x39
  1673     0059                     	ds	1
  1674     005A                     ??_efgtoa:
  1675                           
  1676                           ; 1 bytes @ 0x3A
  1677     005A                     	ds	4
  1678     005E                     ??_vfpfcnvrt:
  1679                           
  1680                           ; 1 bytes @ 0x3E
  1681     005E                     	ds	2
  1682     0060                     vfpfcnvrt@done:
  1683                           
  1684                           ; 1 bytes @ 0x40
  1685     0060                     	ds	1
  1686     0061                     vfpfcnvrt@convarg:
  1687                           
  1688                           ; 4 bytes @ 0x41
  1689     0061                     	ds	4
  1690     0065                     vfpfcnvrt@cp:
  1691                           
  1692                           ; 1 bytes @ 0x45
  1693     0065                     	ds	1
  1694     0066                     vfpfcnvrt@c:
  1695                           
  1696                           ; 1 bytes @ 0x46
  1697     0066                     	ds	1
  1698     0067                     vfprintf@cfmt:
  1699     0067                     ??_vfprintf:	
  1700                           ; 1 bytes @ 0x47
  1701                           
  1702                           
  1703                           ; 1 bytes @ 0x47
  1704     0067                     	ds	1
  1705     0068                     printf@ap:
  1706     0068                     ??_printf:	
  1707                           ; 1 bytes @ 0x48
  1708                           
  1709                           
  1710                           ; 1 bytes @ 0x48
  1711     0068                     	ds	1
  1712     0069                     ??_main:
  1713                           
  1714                           ; 1 bytes @ 0x49
  1715     0069                     	ds	3
  1716                           
  1717                           	psect	maintext
  1718     157A                     __pmaintext:	
  1719 ;;
  1720 ;;Main: autosize = 0, tempsize = 3, incstack = 0, save=0
  1721 ;;
  1722 ;; *************** function _main *****************
  1723 ;; Defined at:
  1724 ;;		line 228 in file "../../Code/main.c"
  1725 ;; Parameters:    Size  Location     Type
  1726 ;;		None
  1727 ;; Auto vars:     Size  Location     Type
  1728 ;;  adc_noise       2    9[BANK3 ] int 
  1729 ;;  noise_catego    1   21[BANK3 ] unsigned char 
  1730 ;;  hum_int         2    7[BANK3 ] unsigned int 
  1731 ;;  lux_int         2    5[BANK3 ] unsigned int 
  1732 ;;  fan_percent     1    0[BANK3 ] unsigned char 
  1733 ;;  buffer          9    0        unsigned char [9]
  1734 ;;  payload         4   26[BANK3 ] unsigned char [4]
  1735 ;;  velocidad_pw    4   22[BANK3 ] float 
  1736 ;;  lux_value       4    1[BANK3 ] float 
  1737 ;;  intensity       2   19[BANK3 ] int 
  1738 ;;  azul            2   17[BANK3 ] int 
  1739 ;;  verde           2   15[BANK3 ] int 
  1740 ;;  rojo            2   13[BANK3 ] int 
  1741 ;;  count           2   11[BANK3 ] int 
  1742 ;;  luz_raw         2    0        unsigned int 
  1743 ;; Return value:  Size  Location     Type
  1744 ;;                  1    wreg      void 
  1745 ;; Registers used:
  1746 ;;		wreg, fsr0l, fsr0h, status,2, status,0, pclath, btemp1, cstack
  1747 ;; Tracked objects:
  1748 ;;		On entry : B00/0
  1749 ;;		On exit  : 0/0
  1750 ;;		Unchanged: 0/0
  1751 ;; Data sizes:     COMMON   BANK0   BANK1   BANK3   BANK2
  1752 ;;      Params:         0       0       0       0       0
  1753 ;;      Locals:         0       0       0      30       0
  1754 ;;      Temps:          0       3       0       0       0
  1755 ;;      Totals:         0       3       0      30       0
  1756 ;;Total ram usage:       33 bytes
  1757 ;; Hardware stack levels required when called: 8
  1758 ;; This function calls:
  1759 ;;		___flmul
  1760 ;;		___fltol
  1761 ;;		_init_ADC
  1762 ;;		_init_PWM
  1763 ;;		_init_TMR0
  1764 ;;		_printf
  1765 ;;		_send_frame
  1766 ;;		_set_PWM
  1767 ;;		_set_leds
  1768 ;;		_uart_init
  1769 ;; This function is called by:
  1770 ;;		Startup code after reset
  1771 ;; This function uses a non-reentrant model
  1772 ;;
  1773                           
  1774     157A                     _main:	
  1775                           ;psect for function _main
  1776                           
  1777     157A                     l3952:	
  1778                           ;incstack = 0
  1779                           ; Regs used in _main: [wreg-fsr0h+status,2+status,0+pclath+btemp1+cstack]
  1780                           
  1781                           
  1782                           ;../../Code/main.c: 229:     unsigned char buffer[9];;../../Code/main.c: 230:     unsign
      +                          ed int luz_raw;;../../Code/main.c: 231:     float lux_value, velocidad_pwm = 0.3;
  1783     157A  303E               	movlw	62
  1784     157B  1683               	bsf	3,5	;RP0=1, select bank3
  1785     157C  1703               	bsf	3,6	;RP1=1, select bank3
  1786     157D  00A9               	movwf	(main@velocidad_pwm+3)^(0+384)
  1787     157E  3099               	movlw	153
  1788     157F  00A8               	movwf	(main@velocidad_pwm+2)^(0+384)
  1789     1580  3099               	movlw	153
  1790     1581  00A7               	movwf	(main@velocidad_pwm+1)^(0+384)
  1791     1582  309A               	movlw	154
  1792     1583  00A6               	movwf	main@velocidad_pwm^(0+384)
  1793     1584                     l3954:
  1794                           
  1795                           ;../../Code/main.c: 232:     int count = 0, rojo = 0, verde = 0, azul = 0, intensity = 3
      +                          2;
  1796     1584  019B               	clrf	main@count^(0+384)
  1797     1585  019C               	clrf	(main@count+1)^(0+384)
  1798     1586                     l3956:
  1799     1586  019D               	clrf	main@rojo^(0+384)
  1800     1587  019E               	clrf	(main@rojo+1)^(0+384)
  1801     1588                     l3958:
  1802     1588  019F               	clrf	main@verde^(0+384)
  1803     1589  01A0               	clrf	(main@verde+1)^(0+384)
  1804     158A                     l3960:
  1805     158A  01A1               	clrf	main@azul^(0+384)
  1806     158B  01A2               	clrf	(main@azul+1)^(0+384)
  1807     158C  3020               	movlw	32
  1808     158D  00A3               	movwf	main@intensity^(0+384)
  1809     158E  3000               	movlw	0
  1810     158F  00A4               	movwf	(main@intensity^(0+384)+1)
  1811     1590                     l3962:
  1812                           
  1813                           ;../../Code/main.c: 234:     uint8_t payload[4];;../../Code/main.c: 236:     OSCCONbits.
      +                          OSTS = 1;
  1814     1590  1683               	bsf	3,5	;RP0=1, select bank1
  1815     1591  1303               	bcf	3,6	;RP1=0, select bank1
  1816     1592  158F               	bsf	15,3	;volatile
  1817     1593                     l3964:
  1818                           
  1819                           ;../../Code/main.c: 238:     init_TMR0();
  1820     1593  160A  158A  2178  160A  118A  	fcall	_init_TMR0
  1821     1598                     l3966:
  1822                           
  1823                           ;../../Code/main.c: 240:     INTCONbits.GIE = 1;
  1824     1598  178B               	bsf	11,7	;volatile
  1825     1599                     l3968:
  1826                           
  1827                           ;../../Code/main.c: 241:     INTCONbits.PEIE = 1;
  1828     1599  170B               	bsf	11,6	;volatile
  1829     159A                     l3970:
  1830                           
  1831                           ;../../Code/main.c: 243:     init_PWM(20000, velocidad_pwm);
  1832     159A  3020               	movlw	32
  1833     159B  1283               	bcf	3,5	;RP0=0, select bank0
  1834     159C  1303               	bcf	3,6	;RP1=0, select bank0
  1835     159D  00D2               	movwf	init_PWM@freq
  1836     159E  304E               	movlw	78
  1837     159F  00D3               	movwf	init_PWM@freq+1
  1838     15A0  1683               	bsf	3,5	;RP0=1, select bank3
  1839     15A1  1703               	bsf	3,6	;RP1=1, select bank3
  1840     15A2  0829               	movf	(main@velocidad_pwm+3)^(0+384),w
  1841     15A3  1283               	bcf	3,5	;RP0=0, select bank0
  1842     15A4  1303               	bcf	3,6	;RP1=0, select bank0
  1843     15A5  00D7               	movwf	init_PWM@porcentaje+3
  1844     15A6  1683               	bsf	3,5	;RP0=1, select bank3
  1845     15A7  1703               	bsf	3,6	;RP1=1, select bank3
  1846     15A8  0828               	movf	(main@velocidad_pwm+2)^(0+384),w
  1847     15A9  1283               	bcf	3,5	;RP0=0, select bank0
  1848     15AA  1303               	bcf	3,6	;RP1=0, select bank0
  1849     15AB  00D6               	movwf	init_PWM@porcentaje+2
  1850     15AC  1683               	bsf	3,5	;RP0=1, select bank3
  1851     15AD  1703               	bsf	3,6	;RP1=1, select bank3
  1852     15AE  0827               	movf	(main@velocidad_pwm+1)^(0+384),w
  1853     15AF  1283               	bcf	3,5	;RP0=0, select bank0
  1854     15B0  1303               	bcf	3,6	;RP1=0, select bank0
  1855     15B1  00D5               	movwf	init_PWM@porcentaje+1
  1856     15B2  1683               	bsf	3,5	;RP0=1, select bank3
  1857     15B3  1703               	bsf	3,6	;RP1=1, select bank3
  1858     15B4  0826               	movf	main@velocidad_pwm^(0+384),w
  1859     15B5  1283               	bcf	3,5	;RP0=0, select bank0
  1860     15B6  1303               	bcf	3,6	;RP1=0, select bank0
  1861     15B7  00D4               	movwf	init_PWM@porcentaje
  1862     15B8  160A  158A  2660  160A  118A  	fcall	_init_PWM
  1863     15BD                     l3972:
  1864                           
  1865                           ;../../Code/main.c: 245:     uart_init();
  1866     15BD  160A  158A  21DD  160A  118A  	fcall	_uart_init
  1867     15C2                     l3974:
  1868                           
  1869                           ;../../Code/main.c: 246:     init_ADC();
  1870     15C2  120A  118A  27E1  160A  118A  	fcall	_init_ADC
  1871     15C7                     l3976:
  1872                           
  1873                           ;../../Code/main.c: 252:         if (count == 4) {
  1874     15C7  3004               	movlw	4
  1875     15C8  1683               	bsf	3,5	;RP0=1, select bank3
  1876     15C9  1703               	bsf	3,6	;RP1=1, select bank3
  1877     15CA  061B               	xorwf	main@count^(0+384),w
  1878     15CB  041C               	iorwf	(main@count+1)^(0+384),w
  1879     15CC  1D03               	btfss	3,2
  1880     15CD  2DCF               	goto	u5581
  1881     15CE  2DD0               	goto	u5580
  1882     15CF                     u5581:
  1883     15CF  2F30               	goto	l4024
  1884     15D0                     u5580:
  1885     15D0                     l3978:
  1886                           
  1887                           ;../../Code/main.c: 258:             printf("Luminosidad: %f - CO2: %d - Humedad Relativ
      +                          a: %d - Velocidad Ventilador: %f - Leds: R%d G%d B%d I%d - Temperatura: %d\n", lux_value
      +                          , co2_prediction, lecturas[1], velocidad_pwm, rojo, verde, azul, intensity, lecturas[2])
      +                          ;
  1888     15D0  3001               	movlw	(low ((STR_1-__stringbase)| (0+32768)))& (0+255)
  1889     15D1  1683               	bsf	3,5	;RP0=1, select bank1
  1890     15D2  1303               	bcf	3,6	;RP1=0, select bank1
  1891     15D3  00D2               	movwf	printf@fmt^(0+128)
  1892     15D4  1683               	bsf	3,5	;RP0=1, select bank3
  1893     15D5  1703               	bsf	3,6	;RP1=1, select bank3
  1894     15D6  0814               	movf	(main@lux_value+3)^(0+384),w
  1895     15D7  1683               	bsf	3,5	;RP0=1, select bank1
  1896     15D8  1303               	bcf	3,6	;RP1=0, select bank1
  1897     15D9  00D6               	movwf	((?_printf+3)^(0+128)+1)
  1898     15DA  1683               	bsf	3,5	;RP0=1, select bank3
  1899     15DB  1703               	bsf	3,6	;RP1=1, select bank3
  1900     15DC  0813               	movf	(main@lux_value+2)^(0+384),w
  1901     15DD  1683               	bsf	3,5	;RP0=1, select bank1
  1902     15DE  1303               	bcf	3,6	;RP1=0, select bank1
  1903     15DF  00D5               	movwf	((?_printf+2)^(0+128)+1)
  1904     15E0  1683               	bsf	3,5	;RP0=1, select bank3
  1905     15E1  1703               	bsf	3,6	;RP1=1, select bank3
  1906     15E2  0812               	movf	(main@lux_value+1)^(0+384),w
  1907     15E3  1683               	bsf	3,5	;RP0=1, select bank1
  1908     15E4  1303               	bcf	3,6	;RP1=0, select bank1
  1909     15E5  00D4               	movwf	((?_printf+1)^(0+128)+1)
  1910     15E6  1683               	bsf	3,5	;RP0=1, select bank3
  1911     15E7  1703               	bsf	3,6	;RP1=1, select bank3
  1912     15E8  0811               	movf	main@lux_value^(0+384),w
  1913     15E9  1683               	bsf	3,5	;RP0=1, select bank1
  1914     15EA  1303               	bcf	3,6	;RP1=0, select bank1
  1915     15EB  00D3               	movwf	(?_printf^(0+128)+1)
  1916     15EC  1683               	bsf	3,5	;RP0=1, select bank3
  1917     15ED  1703               	bsf	3,6	;RP1=1, select bank3
  1918     15EE  0841               	movf	(_co2_prediction+1)^(0+384),w
  1919     15EF  1683               	bsf	3,5	;RP0=1, select bank1
  1920     15F0  1303               	bcf	3,6	;RP1=0, select bank1
  1921     15F1  00D8               	movwf	((?_printf+1)^(0+128)+5)
  1922     15F2  1683               	bsf	3,5	;RP0=1, select bank3
  1923     15F3  1703               	bsf	3,6	;RP1=1, select bank3
  1924     15F4  0840               	movf	_co2_prediction^(0+384),w
  1925     15F5  1683               	bsf	3,5	;RP0=1, select bank1
  1926     15F6  1303               	bcf	3,6	;RP1=0, select bank1
  1927     15F7  00D7               	movwf	(?_printf^(0+128)+5)
  1928     15F8  1683               	bsf	3,5	;RP0=1, select bank3
  1929     15F9  1703               	bsf	3,6	;RP1=1, select bank3
  1930     15FA  0831               	movf	((_lecturas+1)^(0+384)+2),w
  1931     15FB  1683               	bsf	3,5	;RP0=1, select bank1
  1932     15FC  1303               	bcf	3,6	;RP1=0, select bank1
  1933     15FD  00DA               	movwf	((?_printf+1)^(0+128)+7)
  1934     15FE  1683               	bsf	3,5	;RP0=1, select bank3
  1935     15FF  1703               	bsf	3,6	;RP1=1, select bank3
  1936     1600  0830               	movf	(_lecturas^(0+384)+2),w
  1937     1601  1683               	bsf	3,5	;RP0=1, select bank1
  1938     1602  1303               	bcf	3,6	;RP1=0, select bank1
  1939     1603  00D9               	movwf	(?_printf^(0+128)+7)
  1940     1604  1683               	bsf	3,5	;RP0=1, select bank3
  1941     1605  1703               	bsf	3,6	;RP1=1, select bank3
  1942     1606  0829               	movf	(main@velocidad_pwm+3)^(0+384),w
  1943     1607  1683               	bsf	3,5	;RP0=1, select bank1
  1944     1608  1303               	bcf	3,6	;RP1=0, select bank1
  1945     1609  00DE               	movwf	((?_printf+3)^(0+128)+9)
  1946     160A  1683               	bsf	3,5	;RP0=1, select bank3
  1947     160B  1703               	bsf	3,6	;RP1=1, select bank3
  1948     160C  0828               	movf	(main@velocidad_pwm+2)^(0+384),w
  1949     160D  1683               	bsf	3,5	;RP0=1, select bank1
  1950     160E  1303               	bcf	3,6	;RP1=0, select bank1
  1951     160F  00DD               	movwf	((?_printf+2)^(0+128)+9)
  1952     1610  1683               	bsf	3,5	;RP0=1, select bank3
  1953     1611  1703               	bsf	3,6	;RP1=1, select bank3
  1954     1612  0827               	movf	(main@velocidad_pwm+1)^(0+384),w
  1955     1613  1683               	bsf	3,5	;RP0=1, select bank1
  1956     1614  1303               	bcf	3,6	;RP1=0, select bank1
  1957     1615  00DC               	movwf	((?_printf+1)^(0+128)+9)
  1958     1616  1683               	bsf	3,5	;RP0=1, select bank3
  1959     1617  1703               	bsf	3,6	;RP1=1, select bank3
  1960     1618  0826               	movf	main@velocidad_pwm^(0+384),w
  1961     1619  1683               	bsf	3,5	;RP0=1, select bank1
  1962     161A  1303               	bcf	3,6	;RP1=0, select bank1
  1963     161B  00DB               	movwf	(?_printf^(0+128)+9)
  1964     161C  1683               	bsf	3,5	;RP0=1, select bank3
  1965     161D  1703               	bsf	3,6	;RP1=1, select bank3
  1966     161E  081E               	movf	(main@rojo+1)^(0+384),w
  1967     161F  1683               	bsf	3,5	;RP0=1, select bank1
  1968     1620  1303               	bcf	3,6	;RP1=0, select bank1
  1969     1621  00E0               	movwf	((?_printf+1)^(0+128)+13)
  1970     1622  1683               	bsf	3,5	;RP0=1, select bank3
  1971     1623  1703               	bsf	3,6	;RP1=1, select bank3
  1972     1624  081D               	movf	main@rojo^(0+384),w
  1973     1625  1683               	bsf	3,5	;RP0=1, select bank1
  1974     1626  1303               	bcf	3,6	;RP1=0, select bank1
  1975     1627  00DF               	movwf	(?_printf^(0+128)+13)
  1976     1628  1683               	bsf	3,5	;RP0=1, select bank3
  1977     1629  1703               	bsf	3,6	;RP1=1, select bank3
  1978     162A  0820               	movf	(main@verde+1)^(0+384),w
  1979     162B  1683               	bsf	3,5	;RP0=1, select bank1
  1980     162C  1303               	bcf	3,6	;RP1=0, select bank1
  1981     162D  00E2               	movwf	((?_printf+1)^(0+128)+15)
  1982     162E  1683               	bsf	3,5	;RP0=1, select bank3
  1983     162F  1703               	bsf	3,6	;RP1=1, select bank3
  1984     1630  081F               	movf	main@verde^(0+384),w
  1985     1631  1683               	bsf	3,5	;RP0=1, select bank1
  1986     1632  1303               	bcf	3,6	;RP1=0, select bank1
  1987     1633  00E1               	movwf	(?_printf^(0+128)+15)
  1988     1634  1683               	bsf	3,5	;RP0=1, select bank3
  1989     1635  1703               	bsf	3,6	;RP1=1, select bank3
  1990     1636  0822               	movf	(main@azul+1)^(0+384),w
  1991     1637  1683               	bsf	3,5	;RP0=1, select bank1
  1992     1638  1303               	bcf	3,6	;RP1=0, select bank1
  1993     1639  00E4               	movwf	((?_printf+1)^(0+128)+17)
  1994     163A  1683               	bsf	3,5	;RP0=1, select bank3
  1995     163B  1703               	bsf	3,6	;RP1=1, select bank3
  1996     163C  0821               	movf	main@azul^(0+384),w
  1997     163D  1683               	bsf	3,5	;RP0=1, select bank1
  1998     163E  1303               	bcf	3,6	;RP1=0, select bank1
  1999     163F  00E3               	movwf	(?_printf^(0+128)+17)
  2000     1640  1683               	bsf	3,5	;RP0=1, select bank3
  2001     1641  1703               	bsf	3,6	;RP1=1, select bank3
  2002     1642  0824               	movf	(main@intensity+1)^(0+384),w
  2003     1643  1683               	bsf	3,5	;RP0=1, select bank1
  2004     1644  1303               	bcf	3,6	;RP1=0, select bank1
  2005     1645  00E6               	movwf	((?_printf+1)^(0+128)+19)
  2006     1646  1683               	bsf	3,5	;RP0=1, select bank3
  2007     1647  1703               	bsf	3,6	;RP1=1, select bank3
  2008     1648  0823               	movf	main@intensity^(0+384),w
  2009     1649  1683               	bsf	3,5	;RP0=1, select bank1
  2010     164A  1303               	bcf	3,6	;RP1=0, select bank1
  2011     164B  00E5               	movwf	(?_printf^(0+128)+19)
  2012     164C  1683               	bsf	3,5	;RP0=1, select bank3
  2013     164D  1703               	bsf	3,6	;RP1=1, select bank3
  2014     164E  0833               	movf	((_lecturas+1)^(0+384)+4),w
  2015     164F  1683               	bsf	3,5	;RP0=1, select bank1
  2016     1650  1303               	bcf	3,6	;RP1=0, select bank1
  2017     1651  00E8               	movwf	((?_printf+1)^(0+128)+21)
  2018     1652  1683               	bsf	3,5	;RP0=1, select bank3
  2019     1653  1703               	bsf	3,6	;RP1=1, select bank3
  2020     1654  0832               	movf	(_lecturas^(0+384)+4),w
  2021     1655  1683               	bsf	3,5	;RP0=1, select bank1
  2022     1656  1303               	bcf	3,6	;RP1=0, select bank1
  2023     1657  00E7               	movwf	(?_printf^(0+128)+21)
  2024     1658  160A  158A  2187  160A  118A  	fcall	_printf
  2025     165D                     l3980:
  2026                           
  2027                           ;../../Code/main.c: 262:             unsigned int lux_int = (unsigned int)lux_value;
  2028     165D  1683               	bsf	3,5	;RP0=1, select bank3
  2029     165E  1703               	bsf	3,6	;RP1=1, select bank3
  2030     165F  0814               	movf	(main@lux_value+3)^(0+384),w
  2031     1660  1283               	bcf	3,5	;RP0=0, select bank0
  2032     1661  1303               	bcf	3,6	;RP1=0, select bank0
  2033     1662  00CB               	movwf	___fltol@f1+3
  2034     1663  1683               	bsf	3,5	;RP0=1, select bank3
  2035     1664  1703               	bsf	3,6	;RP1=1, select bank3
  2036     1665  0813               	movf	(main@lux_value+2)^(0+384),w
  2037     1666  1283               	bcf	3,5	;RP0=0, select bank0
  2038     1667  1303               	bcf	3,6	;RP1=0, select bank0
  2039     1668  00CA               	movwf	___fltol@f1+2
  2040     1669  1683               	bsf	3,5	;RP0=1, select bank3
  2041     166A  1703               	bsf	3,6	;RP1=1, select bank3
  2042     166B  0812               	movf	(main@lux_value+1)^(0+384),w
  2043     166C  1283               	bcf	3,5	;RP0=0, select bank0
  2044     166D  1303               	bcf	3,6	;RP1=0, select bank0
  2045     166E  00C9               	movwf	___fltol@f1+1
  2046     166F  1683               	bsf	3,5	;RP0=1, select bank3
  2047     1670  1703               	bsf	3,6	;RP1=1, select bank3
  2048     1671  0811               	movf	main@lux_value^(0+384),w
  2049     1672  1283               	bcf	3,5	;RP0=0, select bank0
  2050     1673  1303               	bcf	3,6	;RP1=0, select bank0
  2051     1674  00C8               	movwf	___fltol@f1
  2052     1675  160A  158A  25EA  160A  118A  	fcall	___fltol
  2053     167A  1283               	bcf	3,5	;RP0=0, select bank0
  2054     167B  1303               	bcf	3,6	;RP1=0, select bank0
  2055     167C  0849               	movf	?___fltol+1,w
  2056     167D  1683               	bsf	3,5	;RP0=1, select bank3
  2057     167E  1703               	bsf	3,6	;RP1=1, select bank3
  2058     167F  0096               	movwf	(main@lux_int+1)^(0+384)
  2059     1680  1283               	bcf	3,5	;RP0=0, select bank0
  2060     1681  1303               	bcf	3,6	;RP1=0, select bank0
  2061     1682  0848               	movf	?___fltol,w
  2062     1683  1683               	bsf	3,5	;RP0=1, select bank3
  2063     1684  1703               	bsf	3,6	;RP1=1, select bank3
  2064     1685  0095               	movwf	main@lux_int^(0+384)
  2065     1686                     l3982:
  2066                           
  2067                           ;../../Code/main.c: 263:             payload[0] = (lux_int >> 8) & 0xFF;
  2068     1686  0816               	movf	(main@lux_int+1)^(0+384),w
  2069     1687  00AA               	movwf	main@payload^(0+384)
  2070     1688                     l3984:
  2071                           
  2072                           ;../../Code/main.c: 264:             payload[1] = (lux_int) & 0xFF;
  2073     1688  0815               	movf	main@lux_int^(0+384),w
  2074     1689  00AB               	movwf	(main@payload^(0+384)+1)
  2075     168A                     l3986:
  2076                           
  2077                           ;../../Code/main.c: 265:             send_frame(0x01, 2, payload);
  2078     168A  3002               	movlw	2
  2079     168B  1283               	bcf	3,5	;RP0=0, select bank0
  2080     168C  1303               	bcf	3,6	;RP1=0, select bank0
  2081     168D  00A2               	movwf	send_frame@length
  2082     168E  30AA               	movlw	(low (main@payload| (0+256)))& (0+255)
  2083     168F  00A3               	movwf	send_frame@data
  2084     1690  3001               	movlw	1
  2085     1691  160A  158A  2514  160A  118A  	fcall	_send_frame
  2086     1696                     l3988:
  2087                           
  2088                           ;../../Code/main.c: 268:             payload[0] = (co2_prediction >> 8) & 0xFF;
  2089     1696  1683               	bsf	3,5	;RP0=1, select bank3
  2090     1697  1703               	bsf	3,6	;RP1=1, select bank3
  2091     1698  0841               	movf	(_co2_prediction+1)^(0+384),w
  2092     1699  00AA               	movwf	main@payload^(0+384)
  2093     169A                     l3990:
  2094                           
  2095                           ;../../Code/main.c: 269:             payload[1] = (co2_prediction) & 0xFF;
  2096     169A  0840               	movf	_co2_prediction^(0+384),w
  2097     169B  00AB               	movwf	(main@payload^(0+384)+1)
  2098     169C                     l3992:
  2099                           
  2100                           ;../../Code/main.c: 270:             send_frame(0x02, 2, payload);
  2101     169C  3002               	movlw	2
  2102     169D  1283               	bcf	3,5	;RP0=0, select bank0
  2103     169E  1303               	bcf	3,6	;RP1=0, select bank0
  2104     169F  00A2               	movwf	send_frame@length
  2105     16A0  30AA               	movlw	(low (main@payload| (0+256)))& (0+255)
  2106     16A1  00A3               	movwf	send_frame@data
  2107     16A2  3002               	movlw	2
  2108     16A3  160A  158A  2514  160A  118A  	fcall	_send_frame
  2109     16A8                     l3994:
  2110                           
  2111                           ;../../Code/main.c: 274:             unsigned int hum_int = (unsigned int)lecturas[1];
  2112     16A8  1683               	bsf	3,5	;RP0=1, select bank3
  2113     16A9  1703               	bsf	3,6	;RP1=1, select bank3
  2114     16AA  0831               	movf	((_lecturas+1)^(0+384)+2),w
  2115     16AB  0098               	movwf	(main@hum_int+1)^(0+384)
  2116     16AC  0830               	movf	(_lecturas^(0+384)+2),w
  2117     16AD  0097               	movwf	main@hum_int^(0+384)
  2118     16AE                     l3996:
  2119                           
  2120                           ;../../Code/main.c: 275:             payload[0] = (hum_int >> 8) & 0xFF;
  2121     16AE  0818               	movf	(main@hum_int+1)^(0+384),w
  2122     16AF  00AA               	movwf	main@payload^(0+384)
  2123     16B0                     l3998:
  2124                           
  2125                           ;../../Code/main.c: 276:             payload[1] = (hum_int) & 0xFF;
  2126     16B0  0817               	movf	main@hum_int^(0+384),w
  2127     16B1  00AB               	movwf	(main@payload^(0+384)+1)
  2128     16B2                     l4000:
  2129                           
  2130                           ;../../Code/main.c: 277:             send_frame(0x03, 2, payload);
  2131     16B2  3002               	movlw	2
  2132     16B3  1283               	bcf	3,5	;RP0=0, select bank0
  2133     16B4  1303               	bcf	3,6	;RP1=0, select bank0
  2134     16B5  00A2               	movwf	send_frame@length
  2135     16B6  30AA               	movlw	(low (main@payload| (0+256)))& (0+255)
  2136     16B7  00A3               	movwf	send_frame@data
  2137     16B8  3003               	movlw	3
  2138     16B9  160A  158A  2514  160A  118A  	fcall	_send_frame
  2139     16BE                     l4002:
  2140                           
  2141                           ;../../Code/main.c: 282:             uint8_t fan_percent = (uint8_t)(velocidad_pwm * 100
      +                          );
  2142     16BE  1683               	bsf	3,5	;RP0=1, select bank3
  2143     16BF  1703               	bsf	3,6	;RP1=1, select bank3
  2144     16C0  0829               	movf	(main@velocidad_pwm+3)^(0+384),w
  2145     16C1  1283               	bcf	3,5	;RP0=0, select bank0
  2146     16C2  1303               	bcf	3,6	;RP1=0, select bank0
  2147     16C3  00B5               	movwf	___flmul@a+3
  2148     16C4  1683               	bsf	3,5	;RP0=1, select bank3
  2149     16C5  1703               	bsf	3,6	;RP1=1, select bank3
  2150     16C6  0828               	movf	(main@velocidad_pwm+2)^(0+384),w
  2151     16C7  1283               	bcf	3,5	;RP0=0, select bank0
  2152     16C8  1303               	bcf	3,6	;RP1=0, select bank0
  2153     16C9  00B4               	movwf	___flmul@a+2
  2154     16CA  1683               	bsf	3,5	;RP0=1, select bank3
  2155     16CB  1703               	bsf	3,6	;RP1=1, select bank3
  2156     16CC  0827               	movf	(main@velocidad_pwm+1)^(0+384),w
  2157     16CD  1283               	bcf	3,5	;RP0=0, select bank0
  2158     16CE  1303               	bcf	3,6	;RP1=0, select bank0
  2159     16CF  00B3               	movwf	___flmul@a+1
  2160     16D0  1683               	bsf	3,5	;RP0=1, select bank3
  2161     16D1  1703               	bsf	3,6	;RP1=1, select bank3
  2162     16D2  0826               	movf	main@velocidad_pwm^(0+384),w
  2163     16D3  1283               	bcf	3,5	;RP0=0, select bank0
  2164     16D4  1303               	bcf	3,6	;RP1=0, select bank0
  2165     16D5  00B2               	movwf	___flmul@a
  2166     16D6  3042               	movlw	66
  2167     16D7  00B1               	movwf	___flmul@b+3
  2168     16D8  30C8               	movlw	200
  2169     16D9  00B0               	movwf	___flmul@b+2
  2170     16DA  3000               	movlw	0
  2171     16DB  00AF               	movwf	___flmul@b+1
  2172     16DC  3000               	movlw	0
  2173     16DD  00AE               	movwf	___flmul@b
  2174     16DE  120A  158A  2144  160A  118A  	fcall	___flmul
  2175     16E3  1283               	bcf	3,5	;RP0=0, select bank0
  2176     16E4  1303               	bcf	3,6	;RP1=0, select bank0
  2177     16E5  0831               	movf	?___flmul+3,w
  2178     16E6  00CB               	movwf	___fltol@f1+3
  2179     16E7  0830               	movf	?___flmul+2,w
  2180     16E8  00CA               	movwf	___fltol@f1+2
  2181     16E9  082F               	movf	?___flmul+1,w
  2182     16EA  00C9               	movwf	___fltol@f1+1
  2183     16EB  082E               	movf	?___flmul,w
  2184     16EC  00C8               	movwf	___fltol@f1
  2185     16ED  160A  158A  25EA  160A  118A  	fcall	___fltol
  2186     16F2  1283               	bcf	3,5	;RP0=0, select bank0
  2187     16F3  1303               	bcf	3,6	;RP1=0, select bank0
  2188     16F4  0848               	movf	?___fltol,w
  2189     16F5  1683               	bsf	3,5	;RP0=1, select bank3
  2190     16F6  1703               	bsf	3,6	;RP1=1, select bank3
  2191     16F7  0090               	movwf	main@fan_percent^(0+384)
  2192     16F8                     l4004:
  2193                           
  2194                           ;../../Code/main.c: 283:             payload[0] = fan_percent;
  2195     16F8  0810               	movf	main@fan_percent^(0+384),w
  2196     16F9  00AA               	movwf	main@payload^(0+384)
  2197     16FA                     l4006:
  2198                           
  2199                           ;../../Code/main.c: 284:             send_frame(0x04, 1, payload);
  2200     16FA  1283               	bcf	3,5	;RP0=0, select bank0
  2201     16FB  1303               	bcf	3,6	;RP1=0, select bank0
  2202     16FC  01A2               	clrf	send_frame@length
  2203     16FD  0AA2               	incf	send_frame@length,f
  2204     16FE  30AA               	movlw	(low (main@payload| (0+256)))& (0+255)
  2205     16FF  00A3               	movwf	send_frame@data
  2206     1700  3004               	movlw	4
  2207     1701  160A  158A  2514  160A  118A  	fcall	_send_frame
  2208     1706                     l4008:
  2209                           
  2210                           ;../../Code/main.c: 288:             payload[0] = (uint8_t)rojo;
  2211     1706  1683               	bsf	3,5	;RP0=1, select bank3
  2212     1707  1703               	bsf	3,6	;RP1=1, select bank3
  2213     1708  081D               	movf	main@rojo^(0+384),w
  2214     1709  00AA               	movwf	main@payload^(0+384)
  2215     170A                     l4010:
  2216                           
  2217                           ;../../Code/main.c: 289:             payload[1] = (uint8_t)verde;
  2218     170A  081F               	movf	main@verde^(0+384),w
  2219     170B  00AB               	movwf	(main@payload^(0+384)+1)
  2220     170C                     l4012:
  2221                           
  2222                           ;../../Code/main.c: 290:             payload[2] = (uint8_t)azul;
  2223     170C  0821               	movf	main@azul^(0+384),w
  2224     170D  00AC               	movwf	(main@payload^(0+384)+2)
  2225     170E                     l4014:
  2226                           
  2227                           ;../../Code/main.c: 291:             payload[3] = (uint8_t)intensity;
  2228     170E  0823               	movf	main@intensity^(0+384),w
  2229     170F  00AD               	movwf	(main@payload^(0+384)+3)
  2230     1710                     l4016:
  2231                           
  2232                           ;../../Code/main.c: 292:             send_frame(0x05, 4, payload);
  2233     1710  3004               	movlw	4
  2234     1711  1283               	bcf	3,5	;RP0=0, select bank0
  2235     1712  1303               	bcf	3,6	;RP1=0, select bank0
  2236     1713  00A2               	movwf	send_frame@length
  2237     1714  30AA               	movlw	(low (main@payload| (0+256)))& (0+255)
  2238     1715  00A3               	movwf	send_frame@data
  2239     1716  3005               	movlw	5
  2240     1717  160A  158A  2514  160A  118A  	fcall	_send_frame
  2241     171C                     l4018:
  2242                           
  2243                           ;../../Code/main.c: 296:             payload[0] = (uint8_t)lecturas[2];
  2244     171C  1683               	bsf	3,5	;RP0=1, select bank3
  2245     171D  1703               	bsf	3,6	;RP1=1, select bank3
  2246     171E  0832               	movf	(_lecturas^(0+384)+4),w
  2247     171F  00AA               	movwf	main@payload^(0+384)
  2248     1720                     l4020:
  2249                           
  2250                           ;../../Code/main.c: 297:             send_frame(0x06, 1, payload);
  2251     1720  1283               	bcf	3,5	;RP0=0, select bank0
  2252     1721  1303               	bcf	3,6	;RP1=0, select bank0
  2253     1722  01A2               	clrf	send_frame@length
  2254     1723  0AA2               	incf	send_frame@length,f
  2255     1724  30AA               	movlw	(low (main@payload| (0+256)))& (0+255)
  2256     1725  00A3               	movwf	send_frame@data
  2257     1726  3006               	movlw	6
  2258     1727  160A  158A  2514  160A  118A  	fcall	_send_frame
  2259     172C                     l4022:
  2260                           
  2261                           ;../../Code/main.c: 299:             count = 0;
  2262     172C  1683               	bsf	3,5	;RP0=1, select bank3
  2263     172D  1703               	bsf	3,6	;RP1=1, select bank3
  2264     172E  019B               	clrf	main@count^(0+384)
  2265     172F  019C               	clrf	(main@count+1)^(0+384)
  2266     1730                     l4024:
  2267                           
  2268                           ;../../Code/main.c: 302:         if (count == 1) {
  2269     1730  031B               	decf	main@count^(0+384),w
  2270     1731  041C               	iorwf	(main@count+1)^(0+384),w
  2271     1732  1D03               	btfss	3,2
  2272     1733  2F35               	goto	u5591
  2273     1734  2F36               	goto	u5590
  2274     1735                     u5591:
  2275     1735  2F8D               	goto	l4044
  2276     1736                     u5590:
  2277     1736                     l4026:
  2278     1736                     l4028:
  2279                           
  2280                           ;../../Code/main.c: 304:             int adc_noise = lecturas[0];
  2281     1736  082F               	movf	(_lecturas+1)^(0+384),w
  2282     1737  009A               	movwf	(main@adc_noise+1)^(0+384)
  2283     1738  082E               	movf	_lecturas^(0+384),w
  2284     1739  0099               	movwf	main@adc_noise^(0+384)
  2285     173A                     l4030:
  2286                           
  2287                           ;../../Code/main.c: 306:             if (adc_noise <= 400) {
  2288     173A  081A               	movf	(main@adc_noise+1)^(0+384),w
  2289     173B  3A80               	xorlw	128
  2290     173C  00FF               	movwf	btemp1
  2291     173D  3081               	movlw	129
  2292     173E  027F               	subwf	btemp1,w
  2293     173F  1D03               	skipz
  2294     1740  2F43               	goto	u5605
  2295     1741  3091               	movlw	145
  2296     1742  0219               	subwf	main@adc_noise^(0+384),w
  2297     1743                     u5605:
  2298     1743  1803               	skipnc
  2299     1744  2F46               	goto	u5601
  2300     1745  2F47               	goto	u5600
  2301     1746                     u5601:
  2302     1746  2F4B               	goto	l4034
  2303     1747                     u5600:
  2304     1747                     l4032:
  2305                           
  2306                           ;../../Code/main.c: 307:                 noise_category = 0;
  2307     1747  1683               	bsf	3,5	;RP0=1, select bank3
  2308     1748  1703               	bsf	3,6	;RP1=1, select bank3
  2309     1749  01A5               	clrf	main@noise_category^(0+384)
  2310                           
  2311                           ;../../Code/main.c: 308:             } else if (adc_noise <= 900) {
  2312     174A  2F63               	goto	l4038
  2313     174B                     l4034:
  2314     174B  1683               	bsf	3,5	;RP0=1, select bank3
  2315     174C  1703               	bsf	3,6	;RP1=1, select bank3
  2316     174D  081A               	movf	(main@adc_noise+1)^(0+384),w
  2317     174E  3A80               	xorlw	128
  2318     174F  00FF               	movwf	btemp1
  2319     1750  3083               	movlw	131
  2320     1751  027F               	subwf	btemp1,w
  2321     1752  1D03               	skipz
  2322     1753  2F56               	goto	u5615
  2323     1754  3085               	movlw	133
  2324     1755  0219               	subwf	main@adc_noise^(0+384),w
  2325     1756                     u5615:
  2326     1756  1803               	skipnc
  2327     1757  2F59               	goto	u5611
  2328     1758  2F5A               	goto	u5610
  2329     1759                     u5611:
  2330     1759  2F5F               	goto	l231
  2331     175A                     u5610:
  2332     175A                     l4036:
  2333                           
  2334                           ;../../Code/main.c: 309:                 noise_category = 1;
  2335     175A  3001               	movlw	1
  2336     175B  1683               	bsf	3,5	;RP0=1, select bank3
  2337     175C  1703               	bsf	3,6	;RP1=1, select bank3
  2338     175D  00A5               	movwf	main@noise_category^(0+384)
  2339                           
  2340                           ;../../Code/main.c: 310:             } else {
  2341     175E  2F63               	goto	l4038
  2342     175F                     l231:
  2343                           
  2344                           ;../../Code/main.c: 311:                 noise_category = 2;
  2345     175F  3002               	movlw	2
  2346     1760  1683               	bsf	3,5	;RP0=1, select bank3
  2347     1761  1703               	bsf	3,6	;RP1=1, select bank3
  2348     1762  00A5               	movwf	main@noise_category^(0+384)
  2349     1763                     l4038:
  2350                           
  2351                           ;../../Code/main.c: 314:             printf("Ruido: %d\n", noise_category);
  2352     1763  3078               	movlw	(low ((STR_2-__stringbase)| (0+32768)))& (0+255)
  2353     1764  1683               	bsf	3,5	;RP0=1, select bank1
  2354     1765  1303               	bcf	3,6	;RP1=0, select bank1
  2355     1766  00D2               	movwf	printf@fmt^(0+128)
  2356     1767  1683               	bsf	3,5	;RP0=1, select bank3
  2357     1768  1703               	bsf	3,6	;RP1=1, select bank3
  2358     1769  0825               	movf	main@noise_category^(0+384),w
  2359     176A  1283               	bcf	3,5	;RP0=0, select bank0
  2360     176B  1303               	bcf	3,6	;RP1=0, select bank0
  2361     176C  00E9               	movwf	??_main
  2362     176D  01EA               	clrf	??_main+1
  2363     176E  0869               	movf	??_main,w
  2364     176F  1683               	bsf	3,5	;RP0=1, select bank1
  2365     1770  1303               	bcf	3,6	;RP1=0, select bank1
  2366     1771  00D3               	movwf	(?_printf^(0+128)+1)
  2367     1772  1283               	bcf	3,5	;RP0=0, select bank0
  2368     1773  1303               	bcf	3,6	;RP1=0, select bank0
  2369     1774  086A               	movf	??_main+1,w
  2370     1775  1683               	bsf	3,5	;RP0=1, select bank1
  2371     1776  1303               	bcf	3,6	;RP1=0, select bank1
  2372     1777  00D4               	movwf	((?_printf+1)^(0+128)+1)
  2373     1778  160A  158A  2187  160A  118A  	fcall	_printf
  2374     177D                     l4040:
  2375                           
  2376                           ;../../Code/main.c: 316:             payload[0] = noise_category;
  2377     177D  1683               	bsf	3,5	;RP0=1, select bank3
  2378     177E  1703               	bsf	3,6	;RP1=1, select bank3
  2379     177F  0825               	movf	main@noise_category^(0+384),w
  2380     1780  00AA               	movwf	main@payload^(0+384)
  2381     1781                     l4042:
  2382                           
  2383                           ;../../Code/main.c: 317:             send_frame(0x00, 1, payload);
  2384     1781  1283               	bcf	3,5	;RP0=0, select bank0
  2385     1782  1303               	bcf	3,6	;RP1=0, select bank0
  2386     1783  01A2               	clrf	send_frame@length
  2387     1784  0AA2               	incf	send_frame@length,f
  2388     1785  30AA               	movlw	(low (main@payload| (0+256)))& (0+255)
  2389     1786  00A3               	movwf	send_frame@data
  2390     1787  3000               	movlw	0
  2391     1788  160A  158A  2514  160A  118A  	fcall	_send_frame
  2392     178D                     l4044:
  2393                           
  2394                           ;../../Code/main.c: 320:         set_PWM(20000, velocidad_pwm);
  2395     178D  3020               	movlw	32
  2396     178E  1283               	bcf	3,5	;RP0=0, select bank0
  2397     178F  1303               	bcf	3,6	;RP1=0, select bank0
  2398     1790  00D2               	movwf	set_PWM@freq
  2399     1791  304E               	movlw	78
  2400     1792  00D3               	movwf	set_PWM@freq+1
  2401     1793  1683               	bsf	3,5	;RP0=1, select bank3
  2402     1794  1703               	bsf	3,6	;RP1=1, select bank3
  2403     1795  0829               	movf	(main@velocidad_pwm+3)^(0+384),w
  2404     1796  1283               	bcf	3,5	;RP0=0, select bank0
  2405     1797  1303               	bcf	3,6	;RP1=0, select bank0
  2406     1798  00D7               	movwf	set_PWM@porcentaje+3
  2407     1799  1683               	bsf	3,5	;RP0=1, select bank3
  2408     179A  1703               	bsf	3,6	;RP1=1, select bank3
  2409     179B  0828               	movf	(main@velocidad_pwm+2)^(0+384),w
  2410     179C  1283               	bcf	3,5	;RP0=0, select bank0
  2411     179D  1303               	bcf	3,6	;RP1=0, select bank0
  2412     179E  00D6               	movwf	set_PWM@porcentaje+2
  2413     179F  1683               	bsf	3,5	;RP0=1, select bank3
  2414     17A0  1703               	bsf	3,6	;RP1=1, select bank3
  2415     17A1  0827               	movf	(main@velocidad_pwm+1)^(0+384),w
  2416     17A2  1283               	bcf	3,5	;RP0=0, select bank0
  2417     17A3  1303               	bcf	3,6	;RP1=0, select bank0
  2418     17A4  00D5               	movwf	set_PWM@porcentaje+1
  2419     17A5  1683               	bsf	3,5	;RP0=1, select bank3
  2420     17A6  1703               	bsf	3,6	;RP1=1, select bank3
  2421     17A7  0826               	movf	main@velocidad_pwm^(0+384),w
  2422     17A8  1283               	bcf	3,5	;RP0=0, select bank0
  2423     17A9  1303               	bcf	3,6	;RP1=0, select bank0
  2424     17AA  00D4               	movwf	set_PWM@porcentaje
  2425     17AB  160A  158A  24AB  160A  118A  	fcall	_set_PWM
  2426     17B0                     l4046:
  2427                           
  2428                           ;../../Code/main.c: 321:         set_leds(rojo, verde, azul, intensity);
  2429     17B0  1683               	bsf	3,5	;RP0=1, select bank3
  2430     17B1  1703               	bsf	3,6	;RP1=1, select bank3
  2431     17B2  081E               	movf	(main@rojo+1)^(0+384),w
  2432     17B3  1283               	bcf	3,5	;RP0=0, select bank0
  2433     17B4  1303               	bcf	3,6	;RP1=0, select bank0
  2434     17B5  00A5               	movwf	set_leds@red+1
  2435     17B6  1683               	bsf	3,5	;RP0=1, select bank3
  2436     17B7  1703               	bsf	3,6	;RP1=1, select bank3
  2437     17B8  081D               	movf	main@rojo^(0+384),w
  2438     17B9  1283               	bcf	3,5	;RP0=0, select bank0
  2439     17BA  1303               	bcf	3,6	;RP1=0, select bank0
  2440     17BB  00A4               	movwf	set_leds@red
  2441     17BC  1683               	bsf	3,5	;RP0=1, select bank3
  2442     17BD  1703               	bsf	3,6	;RP1=1, select bank3
  2443     17BE  0820               	movf	(main@verde+1)^(0+384),w
  2444     17BF  1283               	bcf	3,5	;RP0=0, select bank0
  2445     17C0  1303               	bcf	3,6	;RP1=0, select bank0
  2446     17C1  00A7               	movwf	set_leds@green+1
  2447     17C2  1683               	bsf	3,5	;RP0=1, select bank3
  2448     17C3  1703               	bsf	3,6	;RP1=1, select bank3
  2449     17C4  081F               	movf	main@verde^(0+384),w
  2450     17C5  1283               	bcf	3,5	;RP0=0, select bank0
  2451     17C6  1303               	bcf	3,6	;RP1=0, select bank0
  2452     17C7  00A6               	movwf	set_leds@green
  2453     17C8  1683               	bsf	3,5	;RP0=1, select bank3
  2454     17C9  1703               	bsf	3,6	;RP1=1, select bank3
  2455     17CA  0822               	movf	(main@azul+1)^(0+384),w
  2456     17CB  1283               	bcf	3,5	;RP0=0, select bank0
  2457     17CC  1303               	bcf	3,6	;RP1=0, select bank0
  2458     17CD  00A9               	movwf	set_leds@blue+1
  2459     17CE  1683               	bsf	3,5	;RP0=1, select bank3
  2460     17CF  1703               	bsf	3,6	;RP1=1, select bank3
  2461     17D0  0821               	movf	main@azul^(0+384),w
  2462     17D1  1283               	bcf	3,5	;RP0=0, select bank0
  2463     17D2  1303               	bcf	3,6	;RP1=0, select bank0
  2464     17D3  00A8               	movwf	set_leds@blue
  2465     17D4  1683               	bsf	3,5	;RP0=1, select bank3
  2466     17D5  1703               	bsf	3,6	;RP1=1, select bank3
  2467     17D6  0824               	movf	(main@intensity+1)^(0+384),w
  2468     17D7  1283               	bcf	3,5	;RP0=0, select bank0
  2469     17D8  1303               	bcf	3,6	;RP1=0, select bank0
  2470     17D9  00AB               	movwf	set_leds@intensity+1
  2471     17DA  1683               	bsf	3,5	;RP0=1, select bank3
  2472     17DB  1703               	bsf	3,6	;RP1=1, select bank3
  2473     17DC  0823               	movf	main@intensity^(0+384),w
  2474     17DD  1283               	bcf	3,5	;RP0=0, select bank0
  2475     17DE  1303               	bcf	3,6	;RP1=0, select bank0
  2476     17DF  00AA               	movwf	set_leds@intensity
  2477     17E0  160A  158A  257F  160A  118A  	fcall	_set_leds
  2478     17E5                     l4048:
  2479                           
  2480                           ;../../Code/main.c: 323:         count++;
  2481     17E5  3001               	movlw	1
  2482     17E6  1683               	bsf	3,5	;RP0=1, select bank3
  2483     17E7  1703               	bsf	3,6	;RP1=1, select bank3
  2484     17E8  079B               	addwf	main@count^(0+384),f
  2485     17E9  1803               	skipnc
  2486     17EA  0A9C               	incf	(main@count+1)^(0+384),f
  2487     17EB  3000               	movlw	0
  2488     17EC  079C               	addwf	(main@count+1)^(0+384),f
  2489     17ED                     l4050:
  2490                           
  2491                           ;../../Code/main.c: 324:         _delay((unsigned long)((1000)*(20000000/4000.0)));
  2492     17ED  301A               	movlw	26
  2493     17EE  1283               	bcf	3,5	;RP0=0, select bank0
  2494     17EF  1303               	bcf	3,6	;RP1=0, select bank0
  2495     17F0  00EB               	movwf	??_main+2
  2496     17F1  305E               	movlw	94
  2497     17F2  00EA               	movwf	??_main+1
  2498     17F3  306D               	movlw	109
  2499     17F4  00E9               	movwf	??_main
  2500     17F5                     u5627:
  2501     17F5  0BE9               	decfsz	??_main,f
  2502     17F6  2FF5               	goto	u5627
  2503     17F7  0BEA               	decfsz	??_main+1,f
  2504     17F8  2FF5               	goto	u5627
  2505     17F9  0BEB               	decfsz	??_main+2,f
  2506     17FA  2FF5               	goto	u5627
  2507     17FB  2FFC               	nop2
  2508     17FC  2DC7               	goto	l3976
  2509     17FD  120A  118A  2810   	ljmp	start
  2510     1800                     __end_of_main:
  2511                           
  2512                           	psect	text1
  2513     19DD                     __ptext1:	
  2514 ;; *************** function _uart_init *****************
  2515 ;; Defined at:
  2516 ;;		line 10 in file "../../Functions/uart-v1.c"
  2517 ;; Parameters:    Size  Location     Type
  2518 ;;		None
  2519 ;; Auto vars:     Size  Location     Type
  2520 ;;		None
  2521 ;; Return value:  Size  Location     Type
  2522 ;;                  1    wreg      void 
  2523 ;; Registers used:
  2524 ;;		status,2
  2525 ;; Tracked objects:
  2526 ;;		On entry : 0/0
  2527 ;;		On exit  : 0/0
  2528 ;;		Unchanged: 0/0
  2529 ;; Data sizes:     COMMON   BANK0   BANK1   BANK3   BANK2
  2530 ;;      Params:         0       0       0       0       0
  2531 ;;      Locals:         0       0       0       0       0
  2532 ;;      Temps:          0       0       0       0       0
  2533 ;;      Totals:         0       0       0       0       0
  2534 ;;Total ram usage:        0 bytes
  2535 ;; Hardware stack levels used: 1
  2536 ;; Hardware stack levels required when called: 1
  2537 ;; This function calls:
  2538 ;;		Nothing
  2539 ;; This function is called by:
  2540 ;;		_main
  2541 ;; This function uses a non-reentrant model
  2542 ;;
  2543                           
  2544     19DD                     _uart_init:	
  2545                           ;psect for function _uart_init
  2546                           
  2547     19DD                     l3734:	
  2548                           ;incstack = 0
  2549                           ; Regs used in _uart_init: [status,2]
  2550                           
  2551                           
  2552                           ;../../Functions/uart-v1.c: 12:     TXSTAbits.BRGH = 0;
  2553     19DD  1683               	bsf	3,5	;RP0=1, select bank1
  2554     19DE  1303               	bcf	3,6	;RP1=0, select bank1
  2555     19DF  1118               	bcf	24,2	;volatile
  2556                           
  2557                           ;../../Functions/uart-v1.c: 13:     BAUDCTLbits.BRG16 = 0;
  2558     19E0  1683               	bsf	3,5	;RP0=1, select bank3
  2559     19E1  1703               	bsf	3,6	;RP1=1, select bank3
  2560     19E2  1187               	bcf	7,3	;volatile
  2561     19E3                     l3736:
  2562                           
  2563                           ;../../Functions/uart-v1.c: 16:     SPBRGH = 0;
  2564     19E3  1683               	bsf	3,5	;RP0=1, select bank1
  2565     19E4  1303               	bcf	3,6	;RP1=0, select bank1
  2566     19E5  019A               	clrf	26	;volatile
  2567     19E6                     l3738:
  2568                           
  2569                           ;../../Functions/uart-v1.c: 17:     SPBRG = 32;
  2570     19E6  3020               	movlw	32
  2571     19E7  0099               	movwf	25	;volatile
  2572     19E8                     l3740:
  2573                           
  2574                           ;../../Functions/uart-v1.c: 19:     TXSTAbits.SYNC = 0;
  2575     19E8  1218               	bcf	24,4	;volatile
  2576     19E9                     l3742:
  2577                           
  2578                           ;../../Functions/uart-v1.c: 20:     TXSTAbits.TX9 = 0;
  2579     19E9  1318               	bcf	24,6	;volatile
  2580     19EA                     l3744:
  2581                           
  2582                           ;../../Functions/uart-v1.c: 21:     RCSTAbits.RX9 = 0;
  2583     19EA  1283               	bcf	3,5	;RP0=0, select bank0
  2584     19EB  1303               	bcf	3,6	;RP1=0, select bank0
  2585     19EC  1318               	bcf	24,6	;volatile
  2586     19ED                     l3746:
  2587                           
  2588                           ;../../Functions/uart-v1.c: 23:     PIE1bits.TXIE = 0;
  2589     19ED  1683               	bsf	3,5	;RP0=1, select bank1
  2590     19EE  1303               	bcf	3,6	;RP1=0, select bank1
  2591     19EF  120C               	bcf	12,4	;volatile
  2592     19F0                     l3748:
  2593                           
  2594                           ;../../Functions/uart-v1.c: 24:     PIE1bits.RCIE = 1;
  2595     19F0  168C               	bsf	12,5	;volatile
  2596     19F1                     l3750:
  2597                           
  2598                           ;../../Functions/uart-v1.c: 26:     RCSTAbits.SPEN = 1;
  2599     19F1  1283               	bcf	3,5	;RP0=0, select bank0
  2600     19F2  1303               	bcf	3,6	;RP1=0, select bank0
  2601     19F3  1798               	bsf	24,7	;volatile
  2602     19F4                     l3752:
  2603                           
  2604                           ;../../Functions/uart-v1.c: 28:     TXSTAbits.TXEN = 1;
  2605     19F4  1683               	bsf	3,5	;RP0=1, select bank1
  2606     19F5  1303               	bcf	3,6	;RP1=0, select bank1
  2607     19F6  1698               	bsf	24,5	;volatile
  2608     19F7                     l3754:
  2609                           
  2610                           ;../../Functions/uart-v1.c: 29:     RCSTAbits.CREN = 1;
  2611     19F7  1283               	bcf	3,5	;RP0=0, select bank0
  2612     19F8  1303               	bcf	3,6	;RP1=0, select bank0
  2613     19F9  1618               	bsf	24,4	;volatile
  2614     19FA                     l39:
  2615     19FA  0008               	return
  2616     19FB                     __end_of_uart_init:
  2617                           
  2618                           	psect	text2
  2619     1D7F                     __ptext2:	
  2620 ;; *************** function _set_leds *****************
  2621 ;; Defined at:
  2622 ;;		line 206 in file "../../Code/main.c"
  2623 ;; Parameters:    Size  Location     Type
  2624 ;;  red             2    4[BANK0 ] int 
  2625 ;;  green           2    6[BANK0 ] int 
  2626 ;;  blue            2    8[BANK0 ] int 
  2627 ;;  intensity       2   10[BANK0 ] int 
  2628 ;; Auto vars:     Size  Location     Type
  2629 ;;  i               2   12[BANK0 ] int 
  2630 ;; Return value:  Size  Location     Type
  2631 ;;                  1    wreg      void 
  2632 ;; Registers used:
  2633 ;;		wreg, status,2, status,0, pclath, btemp1, cstack
  2634 ;; Tracked objects:
  2635 ;;		On entry : 0/0
  2636 ;;		On exit  : 0/0
  2637 ;;		Unchanged: 0/0
  2638 ;; Data sizes:     COMMON   BANK0   BANK1   BANK3   BANK2
  2639 ;;      Params:         0       8       0       0       0
  2640 ;;      Locals:         0       2       0       0       0
  2641 ;;      Temps:          0       0       0       0       0
  2642 ;;      Totals:         0      10       0       0       0
  2643 ;;Total ram usage:       10 bytes
  2644 ;; Hardware stack levels used: 1
  2645 ;; Hardware stack levels required when called: 2
  2646 ;; This function calls:
  2647 ;;		_spi_write_read
  2648 ;; This function is called by:
  2649 ;;		_main
  2650 ;; This function uses a non-reentrant model
  2651 ;;
  2652                           
  2653     1D7F                     _set_leds:	
  2654                           ;psect for function _set_leds
  2655                           
  2656     1D7F                     l3804:	
  2657                           ;incstack = 0
  2658                           ; Regs used in _set_leds: [wreg+status,2+status,0+pclath+btemp1+cstack]
  2659                           
  2660                           
  2661                           ;../../Code/main.c: 208:     spi_write_read(0x00);
  2662     1D7F  3000               	movlw	0
  2663     1D80  120A  158A  2001  160A  158A  	fcall	_spi_write_read
  2664                           
  2665                           ;../../Code/main.c: 209:     spi_write_read(0x00);
  2666     1D85  3000               	movlw	0
  2667     1D86  120A  158A  2001  160A  158A  	fcall	_spi_write_read
  2668                           
  2669                           ;../../Code/main.c: 210:     spi_write_read(0x00);
  2670     1D8B  3000               	movlw	0
  2671     1D8C  120A  158A  2001  160A  158A  	fcall	_spi_write_read
  2672                           
  2673                           ;../../Code/main.c: 211:     spi_write_read(0x00);
  2674     1D91  3000               	movlw	0
  2675     1D92  120A  158A  2001  160A  158A  	fcall	_spi_write_read
  2676     1D97                     l3806:
  2677                           
  2678                           ;../../Code/main.c: 213:     for (int i = 0 ; i < 8 ; i++) {
  2679     1D97  1283               	bcf	3,5	;RP0=0, select bank0
  2680     1D98  1303               	bcf	3,6	;RP1=0, select bank0
  2681     1D99  01AC               	clrf	set_leds@i
  2682     1D9A  01AD               	clrf	set_leds@i+1
  2683     1D9B                     l3812:
  2684                           
  2685                           ;../../Code/main.c: 215:         spi_write_read(0b11100000 | intensity);
  2686     1D9B  1283               	bcf	3,5	;RP0=0, select bank0
  2687     1D9C  1303               	bcf	3,6	;RP1=0, select bank0
  2688     1D9D  082A               	movf	set_leds@intensity,w
  2689     1D9E  38E0               	iorlw	224
  2690     1D9F  120A  158A  2001  160A  158A  	fcall	_spi_write_read
  2691                           
  2692                           ;../../Code/main.c: 216:         spi_write_read(0x00 | blue);
  2693     1DA4  1283               	bcf	3,5	;RP0=0, select bank0
  2694     1DA5  1303               	bcf	3,6	;RP1=0, select bank0
  2695     1DA6  0828               	movf	set_leds@blue,w
  2696     1DA7  120A  158A  2001  160A  158A  	fcall	_spi_write_read
  2697                           
  2698                           ;../../Code/main.c: 217:         spi_write_read(0x00 | green);
  2699     1DAC  1283               	bcf	3,5	;RP0=0, select bank0
  2700     1DAD  1303               	bcf	3,6	;RP1=0, select bank0
  2701     1DAE  0826               	movf	set_leds@green,w
  2702     1DAF  120A  158A  2001  160A  158A  	fcall	_spi_write_read
  2703                           
  2704                           ;../../Code/main.c: 218:         spi_write_read(0x00 | red);
  2705     1DB4  1283               	bcf	3,5	;RP0=0, select bank0
  2706     1DB5  1303               	bcf	3,6	;RP1=0, select bank0
  2707     1DB6  0824               	movf	set_leds@red,w
  2708     1DB7  120A  158A  2001  160A  158A  	fcall	_spi_write_read
  2709     1DBC                     l3814:
  2710                           
  2711                           ;../../Code/main.c: 219:     }
  2712     1DBC  3001               	movlw	1
  2713     1DBD  1283               	bcf	3,5	;RP0=0, select bank0
  2714     1DBE  1303               	bcf	3,6	;RP1=0, select bank0
  2715     1DBF  07AC               	addwf	set_leds@i,f
  2716     1DC0  1803               	skipnc
  2717     1DC1  0AAD               	incf	set_leds@i+1,f
  2718     1DC2  3000               	movlw	0
  2719     1DC3  07AD               	addwf	set_leds@i+1,f
  2720     1DC4                     l3816:
  2721     1DC4  082D               	movf	set_leds@i+1,w
  2722     1DC5  3A80               	xorlw	128
  2723     1DC6  00FF               	movwf	btemp1
  2724     1DC7  3080               	movlw	128
  2725     1DC8  027F               	subwf	btemp1,w
  2726     1DC9  1D03               	skipz
  2727     1DCA  2DCD               	goto	u5485
  2728     1DCB  3008               	movlw	8
  2729     1DCC  022C               	subwf	set_leds@i,w
  2730     1DCD                     u5485:
  2731     1DCD  1C03               	skipc
  2732     1DCE  2DD0               	goto	u5481
  2733     1DCF  2DD1               	goto	u5480
  2734     1DD0                     u5481:
  2735     1DD0  2D9B               	goto	l3812
  2736     1DD1                     u5480:
  2737     1DD1                     l3818:
  2738                           
  2739                           ;../../Code/main.c: 222:     spi_write_read(0xFF);
  2740     1DD1  30FF               	movlw	255
  2741     1DD2  120A  158A  2001  160A  158A  	fcall	_spi_write_read
  2742                           
  2743                           ;../../Code/main.c: 223:     spi_write_read(0xFF);
  2744     1DD7  30FF               	movlw	255
  2745     1DD8  120A  158A  2001  160A  158A  	fcall	_spi_write_read
  2746                           
  2747                           ;../../Code/main.c: 224:     spi_write_read(0xFF);
  2748     1DDD  30FF               	movlw	255
  2749     1DDE  120A  158A  2001  160A  158A  	fcall	_spi_write_read
  2750                           
  2751                           ;../../Code/main.c: 225:     spi_write_read(0xFF);
  2752     1DE3  30FF               	movlw	255
  2753     1DE4  120A  158A  2001  160A  158A  	fcall	_spi_write_read
  2754     1DE9                     l221:
  2755     1DE9  0008               	return
  2756     1DEA                     __end_of_set_leds:
  2757                           
  2758                           	psect	text3
  2759     0801                     __ptext3:	
  2760 ;; *************** function _spi_write_read *****************
  2761 ;; Defined at:
  2762 ;;		line 8 in file "../../Functions/spi-master-v1.c"
  2763 ;; Parameters:    Size  Location     Type
  2764 ;;  one_byte        1    wreg     unsigned char 
  2765 ;; Auto vars:     Size  Location     Type
  2766 ;;  one_byte        1    1[BANK0 ] unsigned char 
  2767 ;;  x               1    3[BANK0 ] unsigned char 
  2768 ;;  answer          1    2[BANK0 ] unsigned char 
  2769 ;; Return value:  Size  Location     Type
  2770 ;;                  1    wreg      unsigned char 
  2771 ;; Registers used:
  2772 ;;		wreg, status,2, status,0
  2773 ;; Tracked objects:
  2774 ;;		On entry : 0/0
  2775 ;;		On exit  : 0/0
  2776 ;;		Unchanged: 0/0
  2777 ;; Data sizes:     COMMON   BANK0   BANK1   BANK3   BANK2
  2778 ;;      Params:         0       0       0       0       0
  2779 ;;      Locals:         0       3       0       0       0
  2780 ;;      Temps:          0       1       0       0       0
  2781 ;;      Totals:         0       4       0       0       0
  2782 ;;Total ram usage:        4 bytes
  2783 ;; Hardware stack levels used: 1
  2784 ;; Hardware stack levels required when called: 1
  2785 ;; This function calls:
  2786 ;;		Nothing
  2787 ;; This function is called by:
  2788 ;;		_set_leds
  2789 ;; This function uses a non-reentrant model
  2790 ;;
  2791                           
  2792     0801                     _spi_write_read:	
  2793                           ;psect for function _spi_write_read
  2794                           
  2795                           
  2796                           ;incstack = 0
  2797                           ; Regs used in _spi_write_read: [wreg+status,2+status,0]
  2798                           ;spi_write_read@one_byte stored from wreg
  2799     0801  1283               	bcf	3,5	;RP0=0, select bank0
  2800     0802  1303               	bcf	3,6	;RP1=0, select bank0
  2801     0803  00A1               	movwf	spi_write_read@one_byte
  2802     0804                     l3606:
  2803                           
  2804                           ;../../Functions/spi-master-v1.c: 8: char spi_write_read(char one_byte);../../Functions/
      +                          spi-master-v1.c: 9: {;../../Functions/spi-master-v1.c: 10:     char answer, x;;../../Fun
      +                          ctions/spi-master-v1.c: 12:     answer = 0;
  2805     0804  01A2               	clrf	spi_write_read@answer
  2806     0805                     l3608:
  2807                           
  2808                           ;../../Functions/spi-master-v1.c: 14:     for(x = 8; x > 0; x--)
  2809     0805  3008               	movlw	8
  2810     0806  00A3               	movwf	spi_write_read@x
  2811     0807                     l3614:
  2812                           
  2813                           ;../../Functions/spi-master-v1.c: 15:     {;../../Functions/spi-master-v1.c: 16:        
      +                           PORTCbits.RC0 = (__bit)((one_byte >> (x - 1)) & 0b00000001);
  2814     0807  0821               	movf	spi_write_read@one_byte,w
  2815     0808  00A0               	movwf	??_spi_write_read
  2816     0809  0823               	movf	spi_write_read@x,w
  2817     080A  3EFF               	addlw	-1
  2818     080B  3E01               	addlw	1
  2819     080C  280F               	goto	u5174
  2820     080D                     u5175:
  2821     080D  1003               	clrc
  2822     080E  0CA0               	rrf	??_spi_write_read,f
  2823     080F                     u5174:
  2824     080F  3EFF               	addlw	-1
  2825     0810  1D03               	skipz
  2826     0811  280D               	goto	u5175
  2827     0812  1820               	btfsc	??_spi_write_read,0
  2828     0813  2815               	goto	u5181
  2829     0814  2819               	goto	u5180
  2830     0815                     u5181:
  2831     0815  1283               	bcf	3,5	;RP0=0, select bank0
  2832     0816  1303               	bcf	3,6	;RP1=0, select bank0
  2833     0817  1407               	bsf	7,0	;volatile
  2834     0818  281C               	goto	u5194
  2835     0819                     u5180:
  2836     0819  1283               	bcf	3,5	;RP0=0, select bank0
  2837     081A  1303               	bcf	3,6	;RP1=0, select bank0
  2838     081B  1007               	bcf	7,0	;volatile
  2839     081C                     u5194:
  2840     081C                     l3616:
  2841                           
  2842                           ;../../Functions/spi-master-v1.c: 18:         PORTCbits.RC5 = 1;
  2843     081C  1687               	bsf	7,5	;volatile
  2844                           
  2845                           ;../../Functions/spi-master-v1.c: 20:         answer |= (char)PORTAbits.RA5;
  2846     081D  0E05               	swapf	5,w	;volatile
  2847     081E  00A0               	movwf	??_spi_write_read
  2848     081F  0C20               	rrf	??_spi_write_read,w
  2849     0820  3901               	andlw	1
  2850     0821  04A2               	iorwf	spi_write_read@answer,f
  2851     0822                     l3618:
  2852                           
  2853                           ;../../Functions/spi-master-v1.c: 21:         PORTCbits.RC5 = 0;
  2854     0822  1287               	bcf	7,5	;volatile
  2855     0823                     l3620:
  2856                           
  2857                           ;../../Functions/spi-master-v1.c: 23:         if(x > 1)
  2858     0823  3002               	movlw	2
  2859     0824  0223               	subwf	spi_write_read@x,w
  2860     0825  1C03               	skipc
  2861     0826  2828               	goto	u5201
  2862     0827  2829               	goto	u5200
  2863     0828                     u5201:
  2864     0828  282D               	goto	l119
  2865     0829                     u5200:
  2866     0829                     l3622:
  2867                           
  2868                           ;../../Functions/spi-master-v1.c: 24:             answer = answer << 1;
  2869     0829  0822               	movf	spi_write_read@answer,w
  2870     082A  00A0               	movwf	??_spi_write_read
  2871     082B  0720               	addwf	??_spi_write_read,w
  2872     082C  00A2               	movwf	spi_write_read@answer
  2873     082D                     l119:
  2874                           
  2875                           ;../../Functions/spi-master-v1.c: 25:     }
  2876     082D  3001               	movlw	1
  2877     082E  02A3               	subwf	spi_write_read@x,f
  2878     082F  0823               	movf	spi_write_read@x,w
  2879     0830  1D03               	btfss	3,2
  2880     0831  2833               	goto	u5211
  2881     0832  2834               	goto	u5210
  2882     0833                     u5211:
  2883     0833  2807               	goto	l3614
  2884     0834                     u5210:
  2885     0834                     l120:
  2886     0834  0008               	return
  2887     0835                     __end_of_spi_write_read:
  2888                           
  2889                           	psect	text4
  2890     1CAB                     __ptext4:	
  2891 ;; *************** function _set_PWM *****************
  2892 ;; Defined at:
  2893 ;;		line 26 in file "../../Functions/pwm-v1.c"
  2894 ;; Parameters:    Size  Location     Type
  2895 ;;  freq            2   50[BANK0 ] int 
  2896 ;;  porcentaje      4   52[BANK0 ] float 
  2897 ;; Auto vars:     Size  Location     Type
  2898 ;;		None
  2899 ;; Return value:  Size  Location     Type
  2900 ;;                  1    wreg      void 
  2901 ;; Registers used:
  2902 ;;		wreg, status,2, status,0, pclath, btemp1, cstack
  2903 ;; Tracked objects:
  2904 ;;		On entry : 0/0
  2905 ;;		On exit  : 0/0
  2906 ;;		Unchanged: 0/0
  2907 ;; Data sizes:     COMMON   BANK0   BANK1   BANK3   BANK2
  2908 ;;      Params:         0       6       0       0       0
  2909 ;;      Locals:         0       0       0       0       0
  2910 ;;      Temps:          0       4       0       0       0
  2911 ;;      Totals:         0      10       0       0       0
  2912 ;;Total ram usage:       10 bytes
  2913 ;; Hardware stack levels used: 1
  2914 ;; Hardware stack levels required when called: 2
  2915 ;; This function calls:
  2916 ;;		___aldiv
  2917 ;;		___flmul
  2918 ;;		___fltol
  2919 ;;		___xxtofl
  2920 ;; This function is called by:
  2921 ;;		_main
  2922 ;; This function uses a non-reentrant model
  2923 ;;
  2924                           
  2925     1CAB                     _set_PWM:	
  2926                           ;psect for function _set_PWM
  2927                           
  2928     1CAB                     l3730:	
  2929                           ;incstack = 0
  2930                           ; Regs used in _set_PWM: [wreg+status,2+status,0+pclath+btemp1+cstack]
  2931                           
  2932                           
  2933                           ;../../Functions/pwm-v1.c: 27:     PR2 = 5000000 / (4 * freq * 1) - 1;
  2934     1CAB  1283               	bcf	3,5	;RP0=0, select bank0
  2935     1CAC  1303               	bcf	3,6	;RP1=0, select bank0
  2936     1CAD  0853               	movf	set_PWM@freq+1,w
  2937     1CAE  00D9               	movwf	??_set_PWM+1
  2938     1CAF  0852               	movf	set_PWM@freq,w
  2939     1CB0  00D8               	movwf	??_set_PWM
  2940     1CB1  1003               	clrc
  2941     1CB2  0DD8               	rlf	??_set_PWM,f
  2942     1CB3  0DD9               	rlf	??_set_PWM+1,f
  2943     1CB4  1003               	clrc
  2944     1CB5  0DD8               	rlf	??_set_PWM,f
  2945     1CB6  0DD9               	rlf	??_set_PWM+1,f
  2946     1CB7  0858               	movf	??_set_PWM,w
  2947     1CB8  00A0               	movwf	___aldiv@divisor
  2948     1CB9  0859               	movf	??_set_PWM+1,w
  2949     1CBA  00A1               	movwf	___aldiv@divisor+1
  2950     1CBB  3000               	movlw	0
  2951     1CBC  1BA1               	btfsc	___aldiv@divisor+1,7
  2952     1CBD  30FF               	movlw	255
  2953     1CBE  00A2               	movwf	___aldiv@divisor+2
  2954     1CBF  00A3               	movwf	___aldiv@divisor+3
  2955     1CC0  3000               	movlw	0
  2956     1CC1  00A7               	movwf	___aldiv@dividend+3
  2957     1CC2  304C               	movlw	76
  2958     1CC3  00A6               	movwf	___aldiv@dividend+2
  2959     1CC4  304B               	movlw	75
  2960     1CC5  00A5               	movwf	___aldiv@dividend+1
  2961     1CC6  3040               	movlw	64
  2962     1CC7  00A4               	movwf	___aldiv@dividend
  2963     1CC8  160A  158A  2767  160A  158A  	fcall	___aldiv
  2964     1CCD  1283               	bcf	3,5	;RP0=0, select bank0
  2965     1CCE  1303               	bcf	3,6	;RP1=0, select bank0
  2966     1CCF  0820               	movf	?___aldiv,w
  2967     1CD0  3EFF               	addlw	255
  2968     1CD1  1683               	bsf	3,5	;RP0=1, select bank1
  2969     1CD2  1303               	bcf	3,6	;RP1=0, select bank1
  2970     1CD3  0092               	movwf	18	;volatile
  2971     1CD4                     l3732:
  2972                           
  2973                           ;../../Functions/pwm-v1.c: 28:     CCPR1L = PR2 * porcentaje;
  2974     1CD4  0812               	movf	18,w	;volatile
  2975     1CD5  1283               	bcf	3,5	;RP0=0, select bank0
  2976     1CD6  1303               	bcf	3,6	;RP1=0, select bank0
  2977     1CD7  00D8               	movwf	??_set_PWM
  2978     1CD8  01D9               	clrf	??_set_PWM+1
  2979     1CD9  01DA               	clrf	??_set_PWM+2
  2980     1CDA  01DB               	clrf	??_set_PWM+3
  2981     1CDB  085B               	movf	??_set_PWM+3,w
  2982     1CDC  00A3               	movwf	___xxtofl@val+3
  2983     1CDD  085A               	movf	??_set_PWM+2,w
  2984     1CDE  00A2               	movwf	___xxtofl@val+2
  2985     1CDF  0859               	movf	??_set_PWM+1,w
  2986     1CE0  00A1               	movwf	___xxtofl@val+1
  2987     1CE1  0858               	movf	??_set_PWM,w
  2988     1CE2  00A0               	movwf	___xxtofl@val
  2989     1CE3  3001               	movlw	1
  2990     1CE4  160A  118A  20AA  160A  158A  	fcall	___xxtofl
  2991     1CE9  1283               	bcf	3,5	;RP0=0, select bank0
  2992     1CEA  1303               	bcf	3,6	;RP1=0, select bank0
  2993     1CEB  0823               	movf	?___xxtofl+3,w
  2994     1CEC  00B5               	movwf	___flmul@a+3
  2995     1CED  0822               	movf	?___xxtofl+2,w
  2996     1CEE  00B4               	movwf	___flmul@a+2
  2997     1CEF  0821               	movf	?___xxtofl+1,w
  2998     1CF0  00B3               	movwf	___flmul@a+1
  2999     1CF1  0820               	movf	?___xxtofl,w
  3000     1CF2  00B2               	movwf	___flmul@a
  3001     1CF3  0857               	movf	set_PWM@porcentaje+3,w
  3002     1CF4  00B1               	movwf	___flmul@b+3
  3003     1CF5  0856               	movf	set_PWM@porcentaje+2,w
  3004     1CF6  00B0               	movwf	___flmul@b+2
  3005     1CF7  0855               	movf	set_PWM@porcentaje+1,w
  3006     1CF8  00AF               	movwf	___flmul@b+1
  3007     1CF9  0854               	movf	set_PWM@porcentaje,w
  3008     1CFA  00AE               	movwf	___flmul@b
  3009     1CFB  120A  158A  2144  160A  158A  	fcall	___flmul
  3010     1D00  1283               	bcf	3,5	;RP0=0, select bank0
  3011     1D01  1303               	bcf	3,6	;RP1=0, select bank0
  3012     1D02  0831               	movf	?___flmul+3,w
  3013     1D03  00CB               	movwf	___fltol@f1+3
  3014     1D04  0830               	movf	?___flmul+2,w
  3015     1D05  00CA               	movwf	___fltol@f1+2
  3016     1D06  082F               	movf	?___flmul+1,w
  3017     1D07  00C9               	movwf	___fltol@f1+1
  3018     1D08  082E               	movf	?___flmul,w
  3019     1D09  00C8               	movwf	___fltol@f1
  3020     1D0A  160A  158A  25EA  160A  158A  	fcall	___fltol
  3021     1D0F  1283               	bcf	3,5	;RP0=0, select bank0
  3022     1D10  1303               	bcf	3,6	;RP1=0, select bank0
  3023     1D11  0848               	movf	?___fltol,w
  3024     1D12  0095               	movwf	21	;volatile
  3025     1D13                     l16:
  3026     1D13  0008               	return
  3027     1D14                     __end_of_set_PWM:
  3028                           
  3029                           	psect	text5
  3030     1D14                     __ptext5:	
  3031 ;; *************** function _send_frame *****************
  3032 ;; Defined at:
  3033 ;;		line 61 in file "../../Functions/uart-v1.c"
  3034 ;; Parameters:    Size  Location     Type
  3035 ;;  command         1    wreg     unsigned char 
  3036 ;;  length          1    2[BANK0 ] unsigned char 
  3037 ;;  data            1    3[BANK0 ] PTR unsigned char 
  3038 ;;		 -> main@payload(4), 
  3039 ;; Auto vars:     Size  Location     Type
  3040 ;;  command         1    7[BANK0 ] unsigned char 
  3041 ;;  i               2    8[BANK0 ] int 
  3042 ;; Return value:  Size  Location     Type
  3043 ;;                  1    wreg      void 
  3044 ;; Registers used:
  3045 ;;		wreg, fsr0l, fsr0h, status,2, status,0, pclath, cstack
  3046 ;; Tracked objects:
  3047 ;;		On entry : 0/0
  3048 ;;		On exit  : 0/0
  3049 ;;		Unchanged: 0/0
  3050 ;; Data sizes:     COMMON   BANK0   BANK1   BANK3   BANK2
  3051 ;;      Params:         0       2       0       0       0
  3052 ;;      Locals:         0       3       0       0       0
  3053 ;;      Temps:          0       3       0       0       0
  3054 ;;      Totals:         0       8       0       0       0
  3055 ;;Total ram usage:        8 bytes
  3056 ;; Hardware stack levels used: 1
  3057 ;; Hardware stack levels required when called: 2
  3058 ;; This function calls:
  3059 ;;		_uart_write
  3060 ;; This function is called by:
  3061 ;;		_main
  3062 ;; This function uses a non-reentrant model
  3063 ;;
  3064                           
  3065     1D14                     _send_frame:	
  3066                           ;psect for function _send_frame
  3067                           
  3068                           
  3069                           ;incstack = 0
  3070                           ; Regs used in _send_frame: [wreg-fsr0h+status,2+status,0+pclath+cstack]
  3071                           ;send_frame@command stored from wreg
  3072     1D14  1283               	bcf	3,5	;RP0=0, select bank0
  3073     1D15  1303               	bcf	3,6	;RP1=0, select bank0
  3074     1D16  00A7               	movwf	send_frame@command
  3075     1D17                     l3756:
  3076                           
  3077                           ;../../Functions/uart-v1.c: 62:     uart_write(0xAA);
  3078     1D17  30AA               	movlw	170
  3079     1D18  00A0               	movwf	uart_write@c
  3080     1D19  3000               	movlw	0
  3081     1D1A  00A1               	movwf	uart_write@c+1
  3082     1D1B  160A  158A  2158  160A  158A  	fcall	_uart_write
  3083                           
  3084                           ;../../Functions/uart-v1.c: 63:     uart_write(length);
  3085     1D20  1283               	bcf	3,5	;RP0=0, select bank0
  3086     1D21  1303               	bcf	3,6	;RP1=0, select bank0
  3087     1D22  0822               	movf	send_frame@length,w
  3088     1D23  00A4               	movwf	??_send_frame
  3089     1D24  01A5               	clrf	??_send_frame+1
  3090     1D25  0824               	movf	??_send_frame,w
  3091     1D26  00A0               	movwf	uart_write@c
  3092     1D27  0825               	movf	??_send_frame+1,w
  3093     1D28  00A1               	movwf	uart_write@c+1
  3094     1D29  160A  158A  2158  160A  158A  	fcall	_uart_write
  3095                           
  3096                           ;../../Functions/uart-v1.c: 64:     uart_write(command);
  3097     1D2E  1283               	bcf	3,5	;RP0=0, select bank0
  3098     1D2F  1303               	bcf	3,6	;RP1=0, select bank0
  3099     1D30  0827               	movf	send_frame@command,w
  3100     1D31  00A4               	movwf	??_send_frame
  3101     1D32  01A5               	clrf	??_send_frame+1
  3102     1D33  0824               	movf	??_send_frame,w
  3103     1D34  00A0               	movwf	uart_write@c
  3104     1D35  0825               	movf	??_send_frame+1,w
  3105     1D36  00A1               	movwf	uart_write@c+1
  3106     1D37  160A  158A  2158  160A  158A  	fcall	_uart_write
  3107     1D3C                     l3758:
  3108                           
  3109                           ;../../Functions/uart-v1.c: 66:     for (int i = 0 ; i < length ; i++) {
  3110     1D3C  1283               	bcf	3,5	;RP0=0, select bank0
  3111     1D3D  1303               	bcf	3,6	;RP1=0, select bank0
  3112     1D3E  01A8               	clrf	send_frame@i
  3113     1D3F  01A9               	clrf	send_frame@i+1
  3114     1D40  2D5D               	goto	l3764
  3115     1D41                     l3760:
  3116                           
  3117                           ;../../Functions/uart-v1.c: 67:         uart_write(data[i]);
  3118     1D41  1283               	bcf	3,5	;RP0=0, select bank0
  3119     1D42  1303               	bcf	3,6	;RP1=0, select bank0
  3120     1D43  0828               	movf	send_frame@i,w
  3121     1D44  0723               	addwf	send_frame@data,w
  3122     1D45  00A4               	movwf	??_send_frame
  3123     1D46  0824               	movf	??_send_frame,w
  3124     1D47  0084               	movwf	4
  3125     1D48  1783               	bsf	3,7	;select IRP bank2
  3126     1D49  0800               	movf	0,w
  3127     1D4A  00A5               	movwf	??_send_frame+1
  3128     1D4B  01A6               	clrf	??_send_frame+2
  3129     1D4C  0825               	movf	??_send_frame+1,w
  3130     1D4D  00A0               	movwf	uart_write@c
  3131     1D4E  0826               	movf	??_send_frame+2,w
  3132     1D4F  00A1               	movwf	uart_write@c+1
  3133     1D50  160A  158A  2158  160A  158A  	fcall	_uart_write
  3134     1D55                     l3762:
  3135                           
  3136                           ;../../Functions/uart-v1.c: 68:     }
  3137     1D55  3001               	movlw	1
  3138     1D56  1283               	bcf	3,5	;RP0=0, select bank0
  3139     1D57  1303               	bcf	3,6	;RP1=0, select bank0
  3140     1D58  07A8               	addwf	send_frame@i,f
  3141     1D59  1803               	skipnc
  3142     1D5A  0AA9               	incf	send_frame@i+1,f
  3143     1D5B  3000               	movlw	0
  3144     1D5C  07A9               	addwf	send_frame@i+1,f
  3145     1D5D                     l3764:
  3146     1D5D  0829               	movf	send_frame@i+1,w
  3147     1D5E  3A80               	xorlw	128
  3148     1D5F  00A4               	movwf	??_send_frame
  3149     1D60  3080               	movlw	128
  3150     1D61  0224               	subwf	??_send_frame,w
  3151     1D62  1D03               	skipz
  3152     1D63  2D66               	goto	u5475
  3153     1D64  0822               	movf	send_frame@length,w
  3154     1D65  0228               	subwf	send_frame@i,w
  3155     1D66                     u5475:
  3156     1D66  1C03               	skipc
  3157     1D67  2D69               	goto	u5471
  3158     1D68  2D6A               	goto	u5470
  3159     1D69                     u5471:
  3160     1D69  2D41               	goto	l3760
  3161     1D6A                     u5470:
  3162     1D6A                     l3766:
  3163                           
  3164                           ;../../Functions/uart-v1.c: 70:     uart_write(0x00);
  3165     1D6A  3000               	movlw	0
  3166     1D6B  1283               	bcf	3,5	;RP0=0, select bank0
  3167     1D6C  1303               	bcf	3,6	;RP1=0, select bank0
  3168     1D6D  00A0               	movwf	uart_write@c
  3169     1D6E  00A1               	movwf	uart_write@c+1
  3170     1D6F  160A  158A  2158  160A  158A  	fcall	_uart_write
  3171                           
  3172                           ;../../Functions/uart-v1.c: 71:     uart_write(0x00);
  3173     1D74  3000               	movlw	0
  3174     1D75  1283               	bcf	3,5	;RP0=0, select bank0
  3175     1D76  1303               	bcf	3,6	;RP1=0, select bank0
  3176     1D77  00A0               	movwf	uart_write@c
  3177     1D78  00A1               	movwf	uart_write@c+1
  3178     1D79  160A  158A  2158  160A  158A  	fcall	_uart_write
  3179     1D7E                     l64:
  3180     1D7E  0008               	return
  3181     1D7F                     __end_of_send_frame:
  3182                           
  3183                           	psect	text6
  3184     1958                     __ptext6:	
  3185 ;; *************** function _uart_write *****************
  3186 ;; Defined at:
  3187 ;;		line 56 in file "../../Functions/uart-v1.c"
  3188 ;; Parameters:    Size  Location     Type
  3189 ;;  c               2    0[BANK0 ] unsigned short 
  3190 ;; Auto vars:     Size  Location     Type
  3191 ;;		None
  3192 ;; Return value:  Size  Location     Type
  3193 ;;                  1    wreg      void 
  3194 ;; Registers used:
  3195 ;;		wreg
  3196 ;; Tracked objects:
  3197 ;;		On entry : 0/0
  3198 ;;		On exit  : 0/0
  3199 ;;		Unchanged: 0/0
  3200 ;; Data sizes:     COMMON   BANK0   BANK1   BANK3   BANK2
  3201 ;;      Params:         0       2       0       0       0
  3202 ;;      Locals:         0       0       0       0       0
  3203 ;;      Temps:          0       0       0       0       0
  3204 ;;      Totals:         0       2       0       0       0
  3205 ;;Total ram usage:        2 bytes
  3206 ;; Hardware stack levels used: 1
  3207 ;; Hardware stack levels required when called: 1
  3208 ;; This function calls:
  3209 ;;		Nothing
  3210 ;; This function is called by:
  3211 ;;		_send_frame
  3212 ;; This function uses a non-reentrant model
  3213 ;;
  3214                           
  3215     1958                     _uart_write:	
  3216                           ;psect for function _uart_write
  3217                           
  3218     1958                     l3602:	
  3219                           ;incstack = 0
  3220                           ; Regs used in _uart_write: [wreg]
  3221                           
  3222     1958                     l55:	
  3223                           ;../../Functions/uart-v1.c: 57:     while(!TXIF);
  3224                           
  3225     1958  1283               	bcf	3,5	;RP0=0, select bank0
  3226     1959  1303               	bcf	3,6	;RP1=0, select bank0
  3227     195A  1E0C               	btfss	12,4	;volatile
  3228     195B  295D               	goto	u5161
  3229     195C  295E               	goto	u5160
  3230     195D                     u5161:
  3231     195D  2958               	goto	l55
  3232     195E                     u5160:
  3233     195E                     l3604:
  3234                           
  3235                           ;../../Functions/uart-v1.c: 58:     TXREG = c;
  3236     195E  0820               	movf	uart_write@c,w
  3237     195F  0099               	movwf	25	;volatile
  3238     1960                     l58:
  3239     1960  0008               	return
  3240     1961                     __end_of_uart_write:
  3241                           
  3242                           	psect	text7
  3243     1987                     __ptext7:	
  3244 ;; *************** function _printf *****************
  3245 ;; Defined at:
  3246 ;;		line 5 in file "/opt/microchip/xc8/v3.10/pic/sources/c99/common/printf.c"
  3247 ;; Parameters:    Size  Location     Type
  3248 ;;  fmt             1   50[BANK1 ] PTR const unsigned char 
  3249 ;;		 -> STR_2(11), STR_1(119), 
  3250 ;; Auto vars:     Size  Location     Type
  3251 ;;  ret             2    0        int 
  3252 ;;  ap              1   72[BANK0 ] PTR void [1]
  3253 ;;		 -> ?_printf(2), 
  3254 ;; Return value:  Size  Location     Type
  3255 ;;                  2   50[BANK1 ] int 
  3256 ;; Registers used:
  3257 ;;		wreg, fsr0l, fsr0h, status,2, status,0, pclath, btemp1, cstack
  3258 ;; Tracked objects:
  3259 ;;		On entry : 0/0
  3260 ;;		On exit  : 0/0
  3261 ;;		Unchanged: 0/0
  3262 ;; Data sizes:     COMMON   BANK0   BANK1   BANK3   BANK2
  3263 ;;      Params:         0       0      23       0       0
  3264 ;;      Locals:         0       1       0       0       0
  3265 ;;      Temps:          0       0       0       0       0
  3266 ;;      Totals:         0       1      23       0       0
  3267 ;;Total ram usage:       24 bytes
  3268 ;; Hardware stack levels used: 1
  3269 ;; Hardware stack levels required when called: 7
  3270 ;; This function calls:
  3271 ;;		_vfprintf
  3272 ;; This function is called by:
  3273 ;;		_main
  3274 ;; This function uses a non-reentrant model
  3275 ;;
  3276                           
  3277     1987                     _printf:	
  3278                           ;psect for function _printf
  3279                           
  3280     1987                     l3820:	
  3281                           ;incstack = 0
  3282                           ; Regs used in _printf: [wreg-fsr0h+status,2+status,0+pclath+btemp1+cstack]
  3283                           
  3284     1987  30D3               	movlw	(low ((?_printf| 0+1)))& (0+255)
  3285     1988  1283               	bcf	3,5	;RP0=0, select bank0
  3286     1989  1303               	bcf	3,6	;RP1=0, select bank0
  3287     198A  00E8               	movwf	printf@ap
  3288     198B                     l3822:
  3289     198B  1683               	bsf	3,5	;RP0=1, select bank1
  3290     198C  1303               	bcf	3,6	;RP1=0, select bank1
  3291     198D  01CF               	clrf	vfprintf@fp^(0+128)
  3292     198E  0852               	movf	printf@fmt^(0+128),w
  3293     198F  00D0               	movwf	vfprintf@fmt^(0+128)
  3294     1990  3068               	movlw	(low (printf@ap| 0))& (0+255)
  3295     1991  00D1               	movwf	vfprintf@ap^(0+128)
  3296     1992  160A  158A  2242  160A  158A  	fcall	_vfprintf
  3297     1997                     l784:
  3298     1997  0008               	return
  3299     1998                     __end_of_printf:
  3300                           
  3301                           	psect	text8
  3302     1A42                     __ptext8:	
  3303 ;; *************** function _vfprintf *****************
  3304 ;; Defined at:
  3305 ;;		line 1817 in file "/opt/microchip/xc8/v3.10/pic/sources/c99/common/doprnt.c"
  3306 ;; Parameters:    Size  Location     Type
  3307 ;;  fp              1   47[BANK1 ] PTR struct _IO_FILE
  3308 ;;		 -> NULL(0), 
  3309 ;;  fmt             1   48[BANK1 ] PTR const unsigned char 
  3310 ;;		 -> STR_2(11), STR_1(119), 
  3311 ;;  ap              1   49[BANK1 ] PTR PTR void 
  3312 ;;		 -> printf@ap(1), 
  3313 ;; Auto vars:     Size  Location     Type
  3314 ;;  cfmt            1   71[BANK0 ] PTR unsigned char 
  3315 ;;		 -> STR_2(11), STR_1(119), 
  3316 ;; Return value:  Size  Location     Type
  3317 ;;                  2   47[BANK1 ] int 
  3318 ;; Registers used:
  3319 ;;		wreg, fsr0l, fsr0h, status,2, status,0, pclath, btemp1, cstack
  3320 ;; Tracked objects:
  3321 ;;		On entry : 0/0
  3322 ;;		On exit  : 0/0
  3323 ;;		Unchanged: 0/0
  3324 ;; Data sizes:     COMMON   BANK0   BANK1   BANK3   BANK2
  3325 ;;      Params:         0       0       3       0       0
  3326 ;;      Locals:         0       1       0       0       0
  3327 ;;      Temps:          0       0       0       0       0
  3328 ;;      Totals:         0       1       3       0       0
  3329 ;;Total ram usage:        4 bytes
  3330 ;; Hardware stack levels used: 1
  3331 ;; Hardware stack levels required when called: 6
  3332 ;; This function calls:
  3333 ;;		_vfpfcnvrt
  3334 ;; This function is called by:
  3335 ;;		_printf
  3336 ;; This function uses a non-reentrant model
  3337 ;;
  3338                           
  3339     1A42                     _vfprintf:	
  3340                           ;psect for function _vfprintf
  3341                           
  3342     1A42                     l3706:	
  3343                           ;incstack = 0
  3344 ;; using string table level
  3345                           ; Regs used in _vfprintf: [wreg-fsr0h+status,2+status,0+pclath+btemp1+cstack]
  3346                           
  3347                           
  3348                           ;/opt/microchip/xc8/v3.10/pic/sources/c99/common/doprnt.c: 1817: int vfprintf(FILE *fp, 
      +                          const char *fmt, va_list ap);/opt/microchip/xc8/v3.10/pic/sources/c99/common/doprnt.c: 1
      +                          818: {;/opt/microchip/xc8/v3.10/pic/sources/c99/common/doprnt.c: 1820:     char *cfmt;;/
      +                          opt/microchip/xc8/v3.10/pic/sources/c99/common/doprnt.c: 1822:     cfmt = (char *)fmt;
  3349     1A42  1683               	bsf	3,5	;RP0=1, select bank1
  3350     1A43  1303               	bcf	3,6	;RP1=0, select bank1
  3351     1A44  0850               	movf	vfprintf@fmt^(0+128),w
  3352     1A45  1283               	bcf	3,5	;RP0=0, select bank0
  3353     1A46  1303               	bcf	3,6	;RP1=0, select bank0
  3354     1A47  00E7               	movwf	vfprintf@cfmt
  3355                           
  3356                           ;/opt/microchip/xc8/v3.10/pic/sources/c99/common/doprnt.c: 1826:     while (*cfmt) {
  3357     1A48  2A56               	goto	l3710
  3358     1A49                     l3708:
  3359                           
  3360                           ;/opt/microchip/xc8/v3.10/pic/sources/c99/common/doprnt.c: 1830:    vfpfcnvrt(fp, &cfmt,
      +                           ap);
  3361     1A49  1683               	bsf	3,5	;RP0=1, select bank1
  3362     1A4A  1303               	bcf	3,6	;RP1=0, select bank1
  3363     1A4B  084F               	movf	vfprintf@fp^(0+128),w
  3364     1A4C  00CC               	movwf	vfpfcnvrt@fp^(0+128)
  3365     1A4D  3067               	movlw	(low (vfprintf@cfmt| 0))& (0+255)
  3366     1A4E  00CD               	movwf	vfpfcnvrt@fmt^(0+128)
  3367     1A4F  0851               	movf	vfprintf@ap^(0+128),w
  3368     1A50  00CE               	movwf	vfpfcnvrt@ap^(0+128)
  3369     1A51  120A  118A  264A  160A  158A  	fcall	_vfpfcnvrt
  3370     1A56                     l3710:
  3371                           
  3372                           ;/opt/microchip/xc8/v3.10/pic/sources/c99/common/doprnt.c: 1826:     while (*cfmt) {
  3373     1A56  1283               	bcf	3,5	;RP0=0, select bank0
  3374     1A57  1303               	bcf	3,6	;RP1=0, select bank0
  3375     1A58  0867               	movf	vfprintf@cfmt,w
  3376     1A59  0084               	movwf	4
  3377     1A5A  160A  158A  2000  160A  158A  	fcall	stringdir
  3378     1A5F  3A00               	xorlw	0
  3379     1A60  1D03               	skipz
  3380     1A61  2A63               	goto	u5461
  3381     1A62  2A64               	goto	u5460
  3382     1A63                     u5461:
  3383     1A63  2A49               	goto	l3708
  3384     1A64                     u5460:
  3385     1A64                     l3712:
  3386                           
  3387                           ;/opt/microchip/xc8/v3.10/pic/sources/c99/common/doprnt.c: 1835:  return 0;
  3388     1A64  1683               	bsf	3,5	;RP0=1, select bank1
  3389     1A65  1303               	bcf	3,6	;RP1=0, select bank1
  3390     1A66  01CF               	clrf	?_vfprintf^(0+128)
  3391     1A67  01D0               	clrf	(?_vfprintf+1)^(0+128)
  3392     1A68                     l906:
  3393     1A68  0008               	return
  3394     1A69                     __end_of_vfprintf:
  3395                           
  3396                           	psect	text9
  3397     064A                     __ptext9:	
  3398 ;; *************** function _vfpfcnvrt *****************
  3399 ;; Defined at:
  3400 ;;		line 1177 in file "/opt/microchip/xc8/v3.10/pic/sources/c99/common/doprnt.c"
  3401 ;; Parameters:    Size  Location     Type
  3402 ;;  fp              1   44[BANK1 ] PTR struct _IO_FILE
  3403 ;;		 -> NULL(0), 
  3404 ;;  fmt             1   45[BANK1 ] PTR PTR unsigned char 
  3405 ;;		 -> vfprintf@cfmt(1), 
  3406 ;;  ap              1   46[BANK1 ] PTR PTR void 
  3407 ;;		 -> printf@ap(1), 
  3408 ;; Auto vars:     Size  Location     Type
  3409 ;;  convarg         4   65[BANK0 ] struct .
  3410 ;;  c               1   70[BANK0 ] unsigned char 
  3411 ;;  cp              1   69[BANK0 ] PTR unsigned char 
  3412 ;;		 -> STR_2(11), STR_1(119), 
  3413 ;;  done            1   64[BANK0 ] _Bool 
  3414 ;; Return value:  Size  Location     Type
  3415 ;;                  1    wreg      void 
  3416 ;; Registers used:
  3417 ;;		wreg, fsr0l, fsr0h, status,2, status,0, pclath, btemp1, cstack
  3418 ;; Tracked objects:
  3419 ;;		On entry : 0/0
  3420 ;;		On exit  : 0/0
  3421 ;;		Unchanged: 0/0
  3422 ;; Data sizes:     COMMON   BANK0   BANK1   BANK3   BANK2
  3423 ;;      Params:         0       0       3       0       0
  3424 ;;      Locals:         0       7       0       0       0
  3425 ;;      Temps:          0       2       0       0       0
  3426 ;;      Totals:         0       9       3       0       0
  3427 ;;Total ram usage:       12 bytes
  3428 ;; Hardware stack levels used: 1
  3429 ;; Hardware stack levels required when called: 5
  3430 ;; This function calls:
  3431 ;;		___awdiv
  3432 ;;		___awmod
  3433 ;;		_abs
  3434 ;;		_efgtoa
  3435 ;;		_fputc
  3436 ;; This function is called by:
  3437 ;;		_vfprintf
  3438 ;; This function uses a non-reentrant model
  3439 ;;
  3440                           
  3441     064A                     _vfpfcnvrt:	
  3442                           ;psect for function _vfpfcnvrt
  3443                           
  3444     064A                     l3518:	
  3445                           ;incstack = 0
  3446 ;; using string table level
  3447                           ; Regs used in _vfpfcnvrt: [wreg-fsr0h+status,2+status,0+pclath+btemp1+cstack]
  3448                           
  3449                           
  3450                           ;/opt/microchip/xc8/v3.10/pic/sources/c99/common/doprnt.c: 1177: vfpfcnvrt(FILE *fp, cha
      +                          r *fmt[], va_list ap);/opt/microchip/xc8/v3.10/pic/sources/c99/common/doprnt.c: 1178: {;
      +                          /opt/microchip/xc8/v3.10/pic/sources/c99/common/doprnt.c: 1179:     char c, *cp;;/opt/mi
      +                          crochip/xc8/v3.10/pic/sources/c99/common/doprnt.c: 1180:     _Bool done;;/opt/microchip/
      +                          xc8/v3.10/pic/sources/c99/common/doprnt.c: 1188:  } convarg;;/opt/microchip/xc8/v3.10/pi
      +                          c/sources/c99/common/doprnt.c: 1201:     if ((*fmt)[0] == '%') {
  3451     064A  1683               	bsf	3,5	;RP0=1, select bank1
  3452     064B  1303               	bcf	3,6	;RP1=0, select bank1
  3453     064C  084D               	movf	vfpfcnvrt@fmt^(0+128),w
  3454     064D  0084               	movwf	4
  3455     064E  1383               	bcf	3,7	;select IRP bank0
  3456     064F  0800               	movf	0,w
  3457     0650  0084               	movwf	4
  3458     0651  160A  158A  2000  120A  118A  	fcall	stringdir
  3459     0656  3A25               	xorlw	37
  3460     0657  1D03               	skipz
  3461     0658  2E5A               	goto	u5051
  3462     0659  2E5B               	goto	u5050
  3463     065A                     u5051:
  3464     065A  2FC3               	goto	l3596
  3465     065B                     u5050:
  3466     065B                     l3520:
  3467                           
  3468                           ;/opt/microchip/xc8/v3.10/pic/sources/c99/common/doprnt.c: 1202:         ++*fmt;
  3469     065B  084D               	movf	vfpfcnvrt@fmt^(0+128),w
  3470     065C  0084               	movwf	4
  3471     065D  3001               	movlw	1
  3472     065E  0780               	addwf	0,f
  3473     065F                     l3522:
  3474                           
  3475                           ;/opt/microchip/xc8/v3.10/pic/sources/c99/common/doprnt.c: 1204:         flags = width =
      +                           0;
  3476     065F  01E9               	clrf	_width^(0+128)
  3477     0660  01EA               	clrf	(_width+1)^(0+128)
  3478     0661  3000               	movlw	0
  3479     0662  1283               	bcf	3,5	;RP0=0, select bank0
  3480     0663  1303               	bcf	3,6	;RP1=0, select bank0
  3481     0664  00EE               	movwf	_flags
  3482     0665                     l3524:
  3483                           
  3484                           ;/opt/microchip/xc8/v3.10/pic/sources/c99/common/doprnt.c: 1205:         prec = -1;
  3485     0665  30FF               	movlw	255
  3486     0666  1683               	bsf	3,5	;RP0=1, select bank1
  3487     0667  1303               	bcf	3,6	;RP1=0, select bank1
  3488     0668  00EB               	movwf	_prec^(0+128)
  3489     0669  30FF               	movlw	255
  3490     066A  00EC               	movwf	(_prec^(0+128)+1)
  3491     066B                     l3526:
  3492                           
  3493                           ;/opt/microchip/xc8/v3.10/pic/sources/c99/common/doprnt.c: 1291:   cp = *fmt;
  3494     066B  084D               	movf	vfpfcnvrt@fmt^(0+128),w
  3495     066C  0084               	movwf	4
  3496     066D  0800               	movf	0,w
  3497     066E  1283               	bcf	3,5	;RP0=0, select bank0
  3498     066F  1303               	bcf	3,6	;RP1=0, select bank0
  3499     0670  00E5               	movwf	vfpfcnvrt@cp
  3500     0671                     l3528:
  3501                           
  3502                           ;/opt/microchip/xc8/v3.10/pic/sources/c99/common/doprnt.c: 1361:   if (*cp == 'd' || *cp
      +                           == 'i') {
  3503     0671  0865               	movf	vfpfcnvrt@cp,w
  3504     0672  0084               	movwf	4
  3505     0673  160A  158A  2000  120A  118A  	fcall	stringdir
  3506     0678  3A64               	xorlw	100
  3507     0679  1903               	skipnz
  3508     067A  2E7C               	goto	u5061
  3509     067B  2E7D               	goto	u5060
  3510     067C                     u5061:
  3511     067C  2E89               	goto	l3532
  3512     067D                     u5060:
  3513     067D                     l3530:
  3514     067D  0865               	movf	vfpfcnvrt@cp,w
  3515     067E  0084               	movwf	4
  3516     067F  160A  158A  2000  120A  118A  	fcall	stringdir
  3517     0684  3A69               	xorlw	105
  3518     0685  1D03               	skipz
  3519     0686  2E88               	goto	u5071
  3520     0687  2E89               	goto	u5070
  3521     0688                     u5071:
  3522     0688  2F21               	goto	l3560
  3523     0689                     u5070:
  3524     0689                     l3532:
  3525                           
  3526                           ;/opt/microchip/xc8/v3.10/pic/sources/c99/common/doprnt.c: 1404:    convarg.sint = (vfpf
      +                          _sint_t)(int)(*(int *)__va_arg(*(int **)ap, (int)0));
  3527     0689  1683               	bsf	3,5	;RP0=1, select bank1
  3528     068A  1303               	bcf	3,6	;RP1=0, select bank1
  3529     068B  084E               	movf	vfpfcnvrt@ap^(0+128),w
  3530     068C  0084               	movwf	4
  3531     068D  0800               	movf	0,w
  3532     068E  00FF               	movwf	btemp1
  3533     068F  3002               	movlw	2
  3534     0690  0780               	addwf	0,f
  3535     0691  087F               	movf	btemp1,w
  3536     0692  0084               	movwf	4
  3537     0693  0800               	movf	0,w
  3538     0694  1283               	bcf	3,5	;RP0=0, select bank0
  3539     0695  1303               	bcf	3,6	;RP1=0, select bank0
  3540     0696  00E1               	movwf	vfpfcnvrt@convarg
  3541     0697  0A84               	incf	4,f
  3542     0698  0800               	movf	0,w
  3543     0699  00E2               	movwf	vfpfcnvrt@convarg+1
  3544     069A                     l3534:
  3545                           
  3546                           ;/opt/microchip/xc8/v3.10/pic/sources/c99/common/doprnt.c: 1406:    *fmt = cp+1;
  3547     069A  1683               	bsf	3,5	;RP0=1, select bank1
  3548     069B  1303               	bcf	3,6	;RP1=0, select bank1
  3549     069C  084D               	movf	vfpfcnvrt@fmt^(0+128),w
  3550     069D  0084               	movwf	4
  3551     069E  1283               	bcf	3,5	;RP0=0, select bank0
  3552     069F  1303               	bcf	3,6	;RP1=0, select bank0
  3553     06A0  0865               	movf	vfpfcnvrt@cp,w
  3554     06A1  3E01               	addlw	1
  3555     06A2  0080               	movwf	0
  3556     06A3                     l3536:
  3557                           
  3558                           ;/opt/microchip/xc8/v3.10/pic/sources/c99/common/doprnt.c: 1408:    c = sizeof(dbuf);
  3559     06A3  3050               	movlw	80
  3560     06A4  00E6               	movwf	vfpfcnvrt@c
  3561     06A5                     l3538:
  3562                           
  3563                           ;/opt/microchip/xc8/v3.10/pic/sources/c99/common/doprnt.c: 1409:    done = convarg.sint 
      +                          < 0;
  3564     06A5  1BE2               	btfsc	vfpfcnvrt@convarg+1,7
  3565     06A6  2EA8               	goto	u5081
  3566     06A7  2EAA               	goto	u5080
  3567     06A8                     u5081:
  3568     06A8  3001               	movlw	1
  3569     06A9  2EAB               	goto	u5090
  3570     06AA                     u5080:
  3571     06AA  3000               	movlw	0
  3572     06AB                     u5090:
  3573     06AB  00E0               	movwf	vfpfcnvrt@done
  3574     06AC                     l3540:
  3575                           
  3576                           ;/opt/microchip/xc8/v3.10/pic/sources/c99/common/doprnt.c: 1411:     dbuf[--c] = abs(con
      +                          varg.sint % 10) + '0';
  3577     06AC  3001               	movlw	1
  3578     06AD  02E6               	subwf	vfpfcnvrt@c,f
  3579     06AE  0866               	movf	vfpfcnvrt@c,w
  3580     06AF  3E10               	addlw	(low (_dbuf| (0+256)))& (0+255)
  3581     06B0  0084               	movwf	4
  3582     06B1  300A               	movlw	10
  3583     06B2  00A0               	movwf	___awmod@divisor
  3584     06B3  3000               	movlw	0
  3585     06B4  00A1               	movwf	___awmod@divisor+1
  3586     06B5  0862               	movf	vfpfcnvrt@convarg+1,w
  3587     06B6  00A3               	movwf	___awmod@dividend+1
  3588     06B7  0861               	movf	vfpfcnvrt@convarg,w
  3589     06B8  00A2               	movwf	___awmod@dividend
  3590     06B9  160A  158A  23ED  120A  118A  	fcall	___awmod
  3591     06BE  1283               	bcf	3,5	;RP0=0, select bank0
  3592     06BF  1303               	bcf	3,6	;RP1=0, select bank0
  3593     06C0  0821               	movf	?___awmod+1,w
  3594     06C1  00A7               	movwf	abs@a+1
  3595     06C2  0820               	movf	?___awmod,w
  3596     06C3  00A6               	movwf	abs@a
  3597     06C4  160A  158A  2198  120A  118A  	fcall	_abs
  3598     06C9  1283               	bcf	3,5	;RP0=0, select bank0
  3599     06CA  1303               	bcf	3,6	;RP1=0, select bank0
  3600     06CB  0826               	movf	?_abs,w
  3601     06CC  3E30               	addlw	48
  3602     06CD  1783               	bsf	3,7	;select IRP bank2
  3603     06CE  0080               	movwf	0
  3604     06CF                     l3542:
  3605                           
  3606                           ;/opt/microchip/xc8/v3.10/pic/sources/c99/common/doprnt.c: 1412:     convarg.sint /= 10;
  3607     06CF  300A               	movlw	10
  3608     06D0  00A0               	movwf	___awdiv@divisor
  3609     06D1  3000               	movlw	0
  3610     06D2  00A1               	movwf	___awdiv@divisor+1
  3611     06D3  0862               	movf	vfpfcnvrt@convarg+1,w
  3612     06D4  00A3               	movwf	___awdiv@dividend+1
  3613     06D5  0861               	movf	vfpfcnvrt@convarg,w
  3614     06D6  00A2               	movwf	___awdiv@dividend
  3615     06D7  160A  158A  2446  120A  118A  	fcall	___awdiv
  3616     06DC  1283               	bcf	3,5	;RP0=0, select bank0
  3617     06DD  1303               	bcf	3,6	;RP1=0, select bank0
  3618     06DE  0821               	movf	?___awdiv+1,w
  3619     06DF  00E2               	movwf	vfpfcnvrt@convarg+1
  3620     06E0  0820               	movf	?___awdiv,w
  3621     06E1  00E1               	movwf	vfpfcnvrt@convarg
  3622     06E2                     l3544:
  3623                           
  3624                           ;/opt/microchip/xc8/v3.10/pic/sources/c99/common/doprnt.c: 1416:    } while (convarg.sin
      +                          t != 0 && c != 0);
  3625     06E2  0861               	movf	vfpfcnvrt@convarg,w
  3626     06E3  0462               	iorwf	vfpfcnvrt@convarg+1,w
  3627     06E4  1903               	btfsc	3,2
  3628     06E5  2EE7               	goto	u5101
  3629     06E6  2EE8               	goto	u5100
  3630     06E7                     u5101:
  3631     06E7  2EED               	goto	l3548
  3632     06E8                     u5100:
  3633     06E8                     l3546:
  3634     06E8  0866               	movf	vfpfcnvrt@c,w
  3635     06E9  1D03               	btfss	3,2
  3636     06EA  2EEC               	goto	u5111
  3637     06EB  2EED               	goto	u5110
  3638     06EC                     u5111:
  3639     06EC  2EAC               	goto	l3540
  3640     06ED                     u5110:
  3641     06ED                     l3548:
  3642                           
  3643                           ;/opt/microchip/xc8/v3.10/pic/sources/c99/common/doprnt.c: 1417:    if (c != 0 && done) 
      +                          {
  3644     06ED  0866               	movf	vfpfcnvrt@c,w
  3645     06EE  1903               	btfsc	3,2
  3646     06EF  2EF1               	goto	u5121
  3647     06F0  2EF2               	goto	u5120
  3648     06F1                     u5121:
  3649     06F1  2F1A               	goto	l3558
  3650     06F2                     u5120:
  3651     06F2                     l3550:
  3652     06F2  0860               	movf	vfpfcnvrt@done,w
  3653     06F3  1903               	btfsc	3,2
  3654     06F4  2EF6               	goto	u5131
  3655     06F5  2EF7               	goto	u5130
  3656     06F6                     u5131:
  3657     06F6  2F1A               	goto	l3558
  3658     06F7                     u5130:
  3659     06F7                     l3552:
  3660                           
  3661                           ;/opt/microchip/xc8/v3.10/pic/sources/c99/common/doprnt.c: 1418:     dbuf[--c] = '-';
  3662     06F7  3001               	movlw	1
  3663     06F8  02E6               	subwf	vfpfcnvrt@c,f
  3664     06F9  0866               	movf	vfpfcnvrt@c,w
  3665     06FA  3E10               	addlw	(low (_dbuf| (0+256)))& (0+255)
  3666     06FB  0084               	movwf	4
  3667     06FC  302D               	movlw	45
  3668     06FD  1783               	bsf	3,7	;select IRP bank2
  3669     06FE  0080               	movwf	0
  3670     06FF  2F1A               	goto	l3558
  3671     0700                     l3554:
  3672                           
  3673                           ;/opt/microchip/xc8/v3.10/pic/sources/c99/common/doprnt.c: 1424:     fputc(dbuf[c++], fp
      +                          );
  3674     0700  0866               	movf	vfpfcnvrt@c,w
  3675     0701  3E10               	addlw	(low (_dbuf| (0+256)))& (0+255)
  3676     0702  0084               	movwf	4
  3677     0703  1783               	bsf	3,7	;select IRP bank2
  3678     0704  0800               	movf	0,w
  3679     0705  00DE               	movwf	??_vfpfcnvrt
  3680     0706  01DF               	clrf	??_vfpfcnvrt+1
  3681     0707  085E               	movf	??_vfpfcnvrt,w
  3682     0708  00A1               	movwf	fputc@c
  3683     0709  085F               	movf	??_vfpfcnvrt+1,w
  3684     070A  00A2               	movwf	fputc@c+1
  3685     070B  1683               	bsf	3,5	;RP0=1, select bank1
  3686     070C  1303               	bcf	3,6	;RP1=0, select bank1
  3687     070D  084C               	movf	vfpfcnvrt@fp^(0+128),w
  3688     070E  1283               	bcf	3,5	;RP0=0, select bank0
  3689     070F  1303               	bcf	3,6	;RP1=0, select bank0
  3690     0710  00A3               	movwf	fputc@fp
  3691     0711  160A  158A  2396  120A  118A  	fcall	_fputc
  3692     0716                     l3556:
  3693     0716  3001               	movlw	1
  3694     0717  1283               	bcf	3,5	;RP0=0, select bank0
  3695     0718  1303               	bcf	3,6	;RP1=0, select bank0
  3696     0719  07E6               	addwf	vfpfcnvrt@c,f
  3697     071A                     l3558:
  3698                           
  3699                           ;/opt/microchip/xc8/v3.10/pic/sources/c99/common/doprnt.c: 1423:    while (c != sizeof(d
      +                          buf)) {
  3700     071A  3050               	movlw	80
  3701     071B  0666               	xorwf	vfpfcnvrt@c,w
  3702     071C  1D03               	btfss	3,2
  3703     071D  2F1F               	goto	u5141
  3704     071E  2F20               	goto	u5140
  3705     071F                     u5141:
  3706     071F  2F00               	goto	l3554
  3707     0720                     u5140:
  3708     0720  2FE0               	goto	l884
  3709     0721                     l3560:
  3710                           
  3711                           ;/opt/microchip/xc8/v3.10/pic/sources/c99/common/doprnt.c: 1689:   cp = *fmt;
  3712     0721  1683               	bsf	3,5	;RP0=1, select bank1
  3713     0722  1303               	bcf	3,6	;RP1=0, select bank1
  3714     0723  084D               	movf	vfpfcnvrt@fmt^(0+128),w
  3715     0724  0084               	movwf	4
  3716     0725  0800               	movf	0,w
  3717     0726  1283               	bcf	3,5	;RP0=0, select bank0
  3718     0727  1303               	bcf	3,6	;RP1=0, select bank0
  3719     0728  00E5               	movwf	vfpfcnvrt@cp
  3720     0729                     l3562:
  3721                           
  3722                           ;/opt/microchip/xc8/v3.10/pic/sources/c99/common/doprnt.c: 1690:   c = *cp;
  3723     0729  0865               	movf	vfpfcnvrt@cp,w
  3724     072A  0084               	movwf	4
  3725     072B  160A  158A  2000  120A  118A  	fcall	stringdir
  3726     0730  00E6               	movwf	vfpfcnvrt@c
  3727                           
  3728                           ;/opt/microchip/xc8/v3.10/pic/sources/c99/common/doprnt.c: 1691:   switch(c) {
  3729     0731  2F3A               	goto	l3570
  3730     0732                     l3564:
  3731                           
  3732                           ;/opt/microchip/xc8/v3.10/pic/sources/c99/common/doprnt.c: 1695:     cp++;
  3733     0732  3001               	movlw	1
  3734     0733  07E5               	addwf	vfpfcnvrt@cp,f
  3735                           
  3736                           ;/opt/microchip/xc8/v3.10/pic/sources/c99/common/doprnt.c: 1696:     break;
  3737     0734  2F45               	goto	l3572
  3738     0735                     l889:	
  3739                           ;/opt/microchip/xc8/v3.10/pic/sources/c99/common/doprnt.c: 1710:    case 'f':
  3740                           
  3741                           
  3742                           ;/opt/microchip/xc8/v3.10/pic/sources/c99/common/doprnt.c: 1721:     c = 'l';
  3743     0735  306C               	movlw	108
  3744     0736  00E6               	movwf	vfpfcnvrt@c
  3745                           
  3746                           ;/opt/microchip/xc8/v3.10/pic/sources/c99/common/doprnt.c: 1722:     break;
  3747     0737  2F45               	goto	l3572
  3748     0738                     l3566:
  3749                           
  3750                           ;/opt/microchip/xc8/v3.10/pic/sources/c99/common/doprnt.c: 1724:     c = 0;
  3751     0738  01E6               	clrf	vfpfcnvrt@c
  3752                           
  3753                           ;/opt/microchip/xc8/v3.10/pic/sources/c99/common/doprnt.c: 1725:     break;
  3754     0739  2F45               	goto	l3572
  3755     073A                     l3570:
  3756     073A  0866               	movf	vfpfcnvrt@c,w
  3757                           
  3758                           ; Switch size 1, requested type "simple"
  3759                           ; Number of cases is 3, Range of values is 76 to 108
  3760                           ; switch strategies available:
  3761                           ; Name         Instructions Cycles
  3762                           ; simple_byte           10     6 (average)
  3763                           ; direct_byte          110    11 (fixed)
  3764                           ; jumptable            263     9 (fixed)
  3765                           ;	Chosen strategy is simple_byte
  3766     073B  3A4C               	xorlw	76	; case 76
  3767     073C  1903               	skipnz
  3768     073D  2F32               	goto	l3564
  3769     073E  3A2A               	xorlw	42	; case 102
  3770     073F  1903               	skipnz
  3771     0740  2F35               	goto	l889
  3772     0741  3A0A               	xorlw	10	; case 108
  3773     0742  1903               	skipnz
  3774     0743  2F32               	goto	l3564
  3775     0744  2F38               	goto	l3566
  3776     0745                     l3572:
  3777     0745  0865               	movf	vfpfcnvrt@cp,w
  3778     0746  0084               	movwf	4
  3779     0747  160A  158A  2000  120A  118A  	fcall	stringdir
  3780     074C  3A66               	xorlw	102
  3781     074D  1D03               	skipz
  3782     074E  2F50               	goto	u5151
  3783     074F  2F51               	goto	u5150
  3784     0750                     u5151:
  3785     0750  2FBB               	goto	l3592
  3786     0751                     u5150:
  3787     0751  2F82               	goto	l3580
  3788     0752                     l3574:
  3789                           
  3790                           ;/opt/microchip/xc8/v3.10/pic/sources/c99/common/doprnt.c: 1756:      convarg.f = (long 
      +                          double)(*(double *)__va_arg(*(double **)ap, (double)0));
  3791     0752  1683               	bsf	3,5	;RP0=1, select bank1
  3792     0753  1303               	bcf	3,6	;RP1=0, select bank1
  3793     0754  084E               	movf	vfpfcnvrt@ap^(0+128),w
  3794     0755  0084               	movwf	4
  3795     0756  0800               	movf	0,w
  3796     0757  00FF               	movwf	btemp1
  3797     0758  3004               	movlw	4
  3798     0759  0780               	addwf	0,f
  3799     075A  087F               	movf	btemp1,w
  3800     075B  0084               	movwf	4
  3801     075C  0800               	movf	0,w
  3802     075D  1283               	bcf	3,5	;RP0=0, select bank0
  3803     075E  1303               	bcf	3,6	;RP1=0, select bank0
  3804     075F  00E1               	movwf	vfpfcnvrt@convarg
  3805     0760  0A84               	incf	4,f
  3806     0761  0800               	movf	0,w
  3807     0762  00E2               	movwf	vfpfcnvrt@convarg+1
  3808     0763  0A84               	incf	4,f
  3809     0764  0800               	movf	0,w
  3810     0765  00E3               	movwf	vfpfcnvrt@convarg+2
  3811     0766  0A84               	incf	4,f
  3812     0767  0800               	movf	0,w
  3813     0768  00E4               	movwf	vfpfcnvrt@convarg+3
  3814                           
  3815                           ;/opt/microchip/xc8/v3.10/pic/sources/c99/common/doprnt.c: 1757:      break;
  3816     0769  2F8A               	goto	l3582
  3817     076A                     l3576:
  3818                           
  3819                           ;/opt/microchip/xc8/v3.10/pic/sources/c99/common/doprnt.c: 1759:      convarg.f = (long 
      +                          double)(*(long double *)__va_arg(*(long double **)ap, (long double)0));
  3820     076A  1683               	bsf	3,5	;RP0=1, select bank1
  3821     076B  1303               	bcf	3,6	;RP1=0, select bank1
  3822     076C  084E               	movf	vfpfcnvrt@ap^(0+128),w
  3823     076D  0084               	movwf	4
  3824     076E  0800               	movf	0,w
  3825     076F  00FF               	movwf	btemp1
  3826     0770  3004               	movlw	4
  3827     0771  0780               	addwf	0,f
  3828     0772  087F               	movf	btemp1,w
  3829     0773  0084               	movwf	4
  3830     0774  0800               	movf	0,w
  3831     0775  1283               	bcf	3,5	;RP0=0, select bank0
  3832     0776  1303               	bcf	3,6	;RP1=0, select bank0
  3833     0777  00E1               	movwf	vfpfcnvrt@convarg
  3834     0778  0A84               	incf	4,f
  3835     0779  0800               	movf	0,w
  3836     077A  00E2               	movwf	vfpfcnvrt@convarg+1
  3837     077B  0A84               	incf	4,f
  3838     077C  0800               	movf	0,w
  3839     077D  00E3               	movwf	vfpfcnvrt@convarg+2
  3840     077E  0A84               	incf	4,f
  3841     077F  0800               	movf	0,w
  3842     0780  00E4               	movwf	vfpfcnvrt@convarg+3
  3843                           
  3844                           ;/opt/microchip/xc8/v3.10/pic/sources/c99/common/doprnt.c: 1760:      break;
  3845     0781  2F8A               	goto	l3582
  3846     0782                     l3580:
  3847     0782  0866               	movf	vfpfcnvrt@c,w
  3848                           
  3849                           ; Switch size 1, requested type "simple"
  3850                           ; Number of cases is 2, Range of values is 76 to 108
  3851                           ; switch strategies available:
  3852                           ; Name         Instructions Cycles
  3853                           ; simple_byte            7     4 (average)
  3854                           ; direct_byte          110    11 (fixed)
  3855                           ; jumptable            263     9 (fixed)
  3856                           ;	Chosen strategy is simple_byte
  3857     0783  3A4C               	xorlw	76	; case 76
  3858     0784  1903               	skipnz
  3859     0785  2F6A               	goto	l3576
  3860     0786  3A20               	xorlw	32	; case 108
  3861     0787  1903               	skipnz
  3862     0788  2F52               	goto	l3574
  3863     0789  2F8A               	goto	l3582
  3864     078A                     l3582:
  3865                           
  3866                           ;/opt/microchip/xc8/v3.10/pic/sources/c99/common/doprnt.c: 1762:    *fmt = cp+1;
  3867     078A  1683               	bsf	3,5	;RP0=1, select bank1
  3868     078B  1303               	bcf	3,6	;RP1=0, select bank1
  3869     078C  084D               	movf	vfpfcnvrt@fmt^(0+128),w
  3870     078D  0084               	movwf	4
  3871     078E  1283               	bcf	3,5	;RP0=0, select bank0
  3872     078F  1303               	bcf	3,6	;RP1=0, select bank0
  3873     0790  0865               	movf	vfpfcnvrt@cp,w
  3874     0791  3E01               	addlw	1
  3875     0792  0080               	movwf	0
  3876                           
  3877                           ;/opt/microchip/xc8/v3.10/pic/sources/c99/common/doprnt.c: 1763:    switch (*cp) {
  3878     0793  2FB0               	goto	l3590
  3879     0794                     l3584:
  3880                           
  3881                           ;/opt/microchip/xc8/v3.10/pic/sources/c99/common/doprnt.c: 1790:      return (void) efgt
      +                          oa(fp, convarg.f, *cp);;	Return value of _vfpfcnvrt is never used
  3882     0794  1683               	bsf	3,5	;RP0=1, select bank1
  3883     0795  1303               	bcf	3,6	;RP1=0, select bank1
  3884     0796  084C               	movf	vfpfcnvrt@fp^(0+128),w
  3885     0797  1283               	bcf	3,5	;RP0=0, select bank0
  3886     0798  1303               	bcf	3,6	;RP1=0, select bank0
  3887     0799  00D4               	movwf	efgtoa@fp
  3888     079A  0864               	movf	vfpfcnvrt@convarg+3,w
  3889     079B  00D8               	movwf	efgtoa@f+3
  3890     079C  0863               	movf	vfpfcnvrt@convarg+2,w
  3891     079D  00D7               	movwf	efgtoa@f+2
  3892     079E  0862               	movf	vfpfcnvrt@convarg+1,w
  3893     079F  00D6               	movwf	efgtoa@f+1
  3894     07A0  0861               	movf	vfpfcnvrt@convarg,w
  3895     07A1  00D5               	movwf	efgtoa@f
  3896     07A2  0865               	movf	vfpfcnvrt@cp,w
  3897     07A3  0084               	movwf	4
  3898     07A4  160A  158A  2000  120A  118A  	fcall	stringdir
  3899     07A9  00D9               	movwf	efgtoa@c
  3900     07AA  120A  158A  2486  120A  118A  	fcall	_efgtoa
  3901     07AF  2FE0               	goto	l884
  3902     07B0                     l3590:
  3903     07B0  0865               	movf	vfpfcnvrt@cp,w
  3904     07B1  0084               	movwf	4
  3905     07B2  160A  158A  2000  120A  118A  	fcall	stringdir
  3906                           
  3907                           ; Switch size 1, requested type "simple"
  3908                           ; Number of cases is 1, Range of values is 102 to 102
  3909                           ; switch strategies available:
  3910                           ; Name         Instructions Cycles
  3911                           ; simple_byte            4     3 (average)
  3912                           ; direct_byte           14    11 (fixed)
  3913                           ; jumptable            263     9 (fixed)
  3914                           ;	Chosen strategy is simple_byte
  3915     07B7  3A66               	xorlw	102	; case 102
  3916     07B8  1903               	skipnz
  3917     07B9  2F94               	goto	l3584
  3918     07BA  2FBB               	goto	l3592
  3919     07BB                     l3592:
  3920                           
  3921                           ;/opt/microchip/xc8/v3.10/pic/sources/c99/common/doprnt.c: 1806:         ++*fmt;
  3922     07BB  1683               	bsf	3,5	;RP0=1, select bank1
  3923     07BC  1303               	bcf	3,6	;RP1=0, select bank1
  3924     07BD  084D               	movf	vfpfcnvrt@fmt^(0+128),w
  3925     07BE  0084               	movwf	4
  3926     07BF  3001               	movlw	1
  3927     07C0  1383               	bcf	3,7	;select IRP bank0
  3928     07C1  0780               	addwf	0,f
  3929     07C2  2FE0               	goto	l884
  3930     07C3                     l3596:
  3931                           
  3932                           ;/opt/microchip/xc8/v3.10/pic/sources/c99/common/doprnt.c: 1811:     fputc((int)(*fmt)[0
      +                          ], fp);
  3933     07C3  084D               	movf	vfpfcnvrt@fmt^(0+128),w
  3934     07C4  0084               	movwf	4
  3935     07C5  0800               	movf	0,w
  3936     07C6  0084               	movwf	4
  3937     07C7  160A  158A  2000  120A  118A  	fcall	stringdir
  3938     07CC  1283               	bcf	3,5	;RP0=0, select bank0
  3939     07CD  1303               	bcf	3,6	;RP1=0, select bank0
  3940     07CE  00DE               	movwf	??_vfpfcnvrt
  3941     07CF  01DF               	clrf	??_vfpfcnvrt+1
  3942     07D0  085E               	movf	??_vfpfcnvrt,w
  3943     07D1  00A1               	movwf	fputc@c
  3944     07D2  085F               	movf	??_vfpfcnvrt+1,w
  3945     07D3  00A2               	movwf	fputc@c+1
  3946     07D4  1683               	bsf	3,5	;RP0=1, select bank1
  3947     07D5  1303               	bcf	3,6	;RP1=0, select bank1
  3948     07D6  084C               	movf	vfpfcnvrt@fp^(0+128),w
  3949     07D7  1283               	bcf	3,5	;RP0=0, select bank0
  3950     07D8  1303               	bcf	3,6	;RP1=0, select bank0
  3951     07D9  00A3               	movwf	fputc@fp
  3952     07DA  160A  158A  2396  120A  118A  	fcall	_fputc
  3953     07DF  2FBB               	goto	l3592
  3954     07E0                     l884:
  3955     07E0  0008               	return
  3956     07E1                     __end_of_vfpfcnvrt:
  3957                           
  3958                           	psect	text10
  3959     0C86                     __ptext10:	
  3960 ;; *************** function _efgtoa *****************
  3961 ;; Defined at:
  3962 ;;		line 587 in file "/opt/microchip/xc8/v3.10/pic/sources/c99/common/doprnt.c"
  3963 ;; Parameters:    Size  Location     Type
  3964 ;;  fp              1   52[BANK0 ] PTR struct _IO_FILE
  3965 ;;		 -> NULL(0), 
  3966 ;;  f               4   53[BANK0 ] PTR struct _IO_FILE
  3967 ;;  c               1   57[BANK0 ] unsigned char 
  3968 ;; Auto vars:     Size  Location     Type
  3969 ;;  u               4   40[BANK1 ] struct flui
  3970 ;;  g               4   36[BANK1 ] struct flui
  3971 ;;  l               4   29[BANK1 ] struct flui
  3972 ;;  h               4   25[BANK1 ] struct flui
  3973 ;;  ou              4   19[BANK1 ] struct flui
  3974 ;;  n               2   34[BANK1 ] int 
  3975 ;;  i               2   23[BANK1 ] int 
  3976 ;;  w               2   17[BANK1 ] int 
  3977 ;;  e               2   15[BANK1 ] int 
  3978 ;;  m               2   13[BANK1 ] int 
  3979 ;;  d               2   11[BANK1 ] int 
  3980 ;;  t               2    4[BANK1 ] int 
  3981 ;;  p               2    2[BANK1 ] int 
  3982 ;;  ne              2    0[BANK1 ] int 
  3983 ;;  sign            1   33[BANK1 ] unsigned char 
  3984 ;;  nmode           1   10[BANK1 ] unsigned char 
  3985 ;;  mode            1    9[BANK1 ] unsigned char 
  3986 ;;  pp              1    8[BANK1 ] unsigned char 
  3987 ;;  esign           1    0        unsigned char 
  3988 ;; Return value:  Size  Location     Type
  3989 ;;                  1    wreg      void 
  3990 ;; Registers used:
  3991 ;;		wreg, fsr0l, fsr0h, status,2, status,0, pclath, btemp1, cstack
  3992 ;; Tracked objects:
  3993 ;;		On entry : 0/0
  3994 ;;		On exit  : 0/0
  3995 ;;		Unchanged: 0/0
  3996 ;; Data sizes:     COMMON   BANK0   BANK1   BANK3   BANK2
  3997 ;;      Params:         0       6       0       0       0
  3998 ;;      Locals:         0       0      44       0       0
  3999 ;;      Temps:          0       4       0       0       0
  4000 ;;      Totals:         0      10      44       0       0
  4001 ;;Total ram usage:       54 bytes
  4002 ;; Hardware stack levels used: 1
  4003 ;; Hardware stack levels required when called: 4
  4004 ;; This function calls:
  4005 ;;		___fladd
  4006 ;;		___fldiv
  4007 ;;		___fleq
  4008 ;;		___flge
  4009 ;;		___flmul
  4010 ;;		___flneg
  4011 ;;		___flsub
  4012 ;;		___fltol
  4013 ;;		___fpclassifyf
  4014 ;;		_floorf
  4015 ;;		_labs
  4016 ;;		_memcpy
  4017 ;;		_pad
  4018 ;;		_strcpy
  4019 ;; This function is called by:
  4020 ;;		_vfpfcnvrt
  4021 ;; This function uses a non-reentrant model
  4022 ;;
  4023                           
  4024     0C86                     _efgtoa:	
  4025                           ;psect for function _efgtoa
  4026                           
  4027     0C86                     l3296:	
  4028                           ;incstack = 0
  4029                           ; Regs used in _efgtoa: [wreg-fsr0h+status,2+status,0+pclath+btemp1+cstack]
  4030                           
  4031                           
  4032                           ;/opt/microchip/xc8/v3.10/pic/sources/c99/common/doprnt.c: 587: static void efgtoa(FILE 
      +                          *fp, long double f, char c);/opt/microchip/xc8/v3.10/pic/sources/c99/common/doprnt.c: 58
      +                          8: {;/opt/microchip/xc8/v3.10/pic/sources/c99/common/doprnt.c: 589:     char mode, nmode
      +                          , pp, sign, esign;;/opt/microchip/xc8/v3.10/pic/sources/c99/common/doprnt.c: 590:     in
      +                          t d, e, i, m, n, ne, p, t, w;;/opt/microchip/xc8/v3.10/pic/sources/c99/common/doprnt.c: 
      +                          591:     long double h, l;;/opt/microchip/xc8/v3.10/pic/sources/c99/common/doprnt.c: 592
      +                          :  union flui g, u, ou;
  4033     0C86  1683               	bsf	3,5	;RP0=1, select bank1
  4034     0C87  1303               	bcf	3,6	;RP1=0, select bank1
  4035     0C88  01C1               	clrf	efgtoa@sign^(0+128)
  4036     0C89                     l3298:
  4037                           
  4038                           ;/opt/microchip/xc8/v3.10/pic/sources/c99/common/doprnt.c: 596:     g.f = f;
  4039     0C89  1283               	bcf	3,5	;RP0=0, select bank0
  4040     0C8A  1303               	bcf	3,6	;RP1=0, select bank0
  4041     0C8B  0858               	movf	efgtoa@f+3,w
  4042     0C8C  1683               	bsf	3,5	;RP0=1, select bank1
  4043     0C8D  1303               	bcf	3,6	;RP1=0, select bank1
  4044     0C8E  00C7               	movwf	(efgtoa@g+3)^(0+128)
  4045     0C8F  1283               	bcf	3,5	;RP0=0, select bank0
  4046     0C90  1303               	bcf	3,6	;RP1=0, select bank0
  4047     0C91  0857               	movf	efgtoa@f+2,w
  4048     0C92  1683               	bsf	3,5	;RP0=1, select bank1
  4049     0C93  1303               	bcf	3,6	;RP1=0, select bank1
  4050     0C94  00C6               	movwf	(efgtoa@g+2)^(0+128)
  4051     0C95  1283               	bcf	3,5	;RP0=0, select bank0
  4052     0C96  1303               	bcf	3,6	;RP1=0, select bank0
  4053     0C97  0856               	movf	efgtoa@f+1,w
  4054     0C98  1683               	bsf	3,5	;RP0=1, select bank1
  4055     0C99  1303               	bcf	3,6	;RP1=0, select bank1
  4056     0C9A  00C5               	movwf	(efgtoa@g+1)^(0+128)
  4057     0C9B  1283               	bcf	3,5	;RP0=0, select bank0
  4058     0C9C  1303               	bcf	3,6	;RP1=0, select bank0
  4059     0C9D  0855               	movf	efgtoa@f,w
  4060     0C9E  1683               	bsf	3,5	;RP0=1, select bank1
  4061     0C9F  1303               	bcf	3,6	;RP1=0, select bank1
  4062     0CA0  00C4               	movwf	efgtoa@g^(0+128)
  4063     0CA1                     l3300:
  4064                           
  4065                           ;/opt/microchip/xc8/v3.10/pic/sources/c99/common/doprnt.c: 597:     if (g.f < 0.0) {
  4066     0CA1  0847               	movf	(efgtoa@g+3)^(0+128),w
  4067     0CA2  1283               	bcf	3,5	;RP0=0, select bank0
  4068     0CA3  1303               	bcf	3,6	;RP1=0, select bank0
  4069     0CA4  00CB               	movwf	___flge@ff1+3
  4070     0CA5  1683               	bsf	3,5	;RP0=1, select bank1
  4071     0CA6  1303               	bcf	3,6	;RP1=0, select bank1
  4072     0CA7  0846               	movf	(efgtoa@g+2)^(0+128),w
  4073     0CA8  1283               	bcf	3,5	;RP0=0, select bank0
  4074     0CA9  1303               	bcf	3,6	;RP1=0, select bank0
  4075     0CAA  00CA               	movwf	___flge@ff1+2
  4076     0CAB  1683               	bsf	3,5	;RP0=1, select bank1
  4077     0CAC  1303               	bcf	3,6	;RP1=0, select bank1
  4078     0CAD  0845               	movf	(efgtoa@g+1)^(0+128),w
  4079     0CAE  1283               	bcf	3,5	;RP0=0, select bank0
  4080     0CAF  1303               	bcf	3,6	;RP1=0, select bank0
  4081     0CB0  00C9               	movwf	___flge@ff1+1
  4082     0CB1  1683               	bsf	3,5	;RP0=1, select bank1
  4083     0CB2  1303               	bcf	3,6	;RP1=0, select bank1
  4084     0CB3  0844               	movf	efgtoa@g^(0+128),w
  4085     0CB4  1283               	bcf	3,5	;RP0=0, select bank0
  4086     0CB5  1303               	bcf	3,6	;RP1=0, select bank0
  4087     0CB6  00C8               	movwf	___flge@ff1
  4088     0CB7  3000               	movlw	0
  4089     0CB8  00CF               	movwf	___flge@ff2+3
  4090     0CB9  3000               	movlw	0
  4091     0CBA  00CE               	movwf	___flge@ff2+2
  4092     0CBB  3000               	movlw	0
  4093     0CBC  00CD               	movwf	___flge@ff2+1
  4094     0CBD  3000               	movlw	0
  4095     0CBE  00CC               	movwf	___flge@ff2
  4096     0CBF  160A  118A  2006  120A  158A  	fcall	___flge
  4097     0CC4  1803               	btfsc	3,0
  4098     0CC5  2CC7               	goto	u4691
  4099     0CC6  2CC8               	goto	u4690
  4100     0CC7                     u4691:
  4101     0CC7  2CFF               	goto	l3306
  4102     0CC8                     u4690:
  4103     0CC8                     l3302:
  4104                           
  4105                           ;/opt/microchip/xc8/v3.10/pic/sources/c99/common/doprnt.c: 598:         sign = 1;
  4106     0CC8  3001               	movlw	1
  4107     0CC9  1683               	bsf	3,5	;RP0=1, select bank1
  4108     0CCA  1303               	bcf	3,6	;RP1=0, select bank1
  4109     0CCB  00C1               	movwf	efgtoa@sign^(0+128)
  4110     0CCC                     l3304:
  4111                           
  4112                           ;/opt/microchip/xc8/v3.10/pic/sources/c99/common/doprnt.c: 599:         g.f = -g.f;
  4113     0CCC  0847               	movf	(efgtoa@g+3)^(0+128),w
  4114     0CCD  1283               	bcf	3,5	;RP0=0, select bank0
  4115     0CCE  1303               	bcf	3,6	;RP1=0, select bank0
  4116     0CCF  00A3               	movwf	___flneg@f1+3
  4117     0CD0  1683               	bsf	3,5	;RP0=1, select bank1
  4118     0CD1  1303               	bcf	3,6	;RP1=0, select bank1
  4119     0CD2  0846               	movf	(efgtoa@g+2)^(0+128),w
  4120     0CD3  1283               	bcf	3,5	;RP0=0, select bank0
  4121     0CD4  1303               	bcf	3,6	;RP1=0, select bank0
  4122     0CD5  00A2               	movwf	___flneg@f1+2
  4123     0CD6  1683               	bsf	3,5	;RP0=1, select bank1
  4124     0CD7  1303               	bcf	3,6	;RP1=0, select bank1
  4125     0CD8  0845               	movf	(efgtoa@g+1)^(0+128),w
  4126     0CD9  1283               	bcf	3,5	;RP0=0, select bank0
  4127     0CDA  1303               	bcf	3,6	;RP1=0, select bank0
  4128     0CDB  00A1               	movwf	___flneg@f1+1
  4129     0CDC  1683               	bsf	3,5	;RP0=1, select bank1
  4130     0CDD  1303               	bcf	3,6	;RP1=0, select bank1
  4131     0CDE  0844               	movf	efgtoa@g^(0+128),w
  4132     0CDF  1283               	bcf	3,5	;RP0=0, select bank0
  4133     0CE0  1303               	bcf	3,6	;RP1=0, select bank0
  4134     0CE1  00A0               	movwf	___flneg@f1
  4135     0CE2  160A  158A  216B  120A  158A  	fcall	___flneg
  4136     0CE7  1283               	bcf	3,5	;RP0=0, select bank0
  4137     0CE8  1303               	bcf	3,6	;RP1=0, select bank0
  4138     0CE9  0823               	movf	?___flneg+3,w
  4139     0CEA  1683               	bsf	3,5	;RP0=1, select bank1
  4140     0CEB  1303               	bcf	3,6	;RP1=0, select bank1
  4141     0CEC  00C7               	movwf	(efgtoa@g+3)^(0+128)
  4142     0CED  1283               	bcf	3,5	;RP0=0, select bank0
  4143     0CEE  1303               	bcf	3,6	;RP1=0, select bank0
  4144     0CEF  0822               	movf	?___flneg+2,w
  4145     0CF0  1683               	bsf	3,5	;RP0=1, select bank1
  4146     0CF1  1303               	bcf	3,6	;RP1=0, select bank1
  4147     0CF2  00C6               	movwf	(efgtoa@g+2)^(0+128)
  4148     0CF3  1283               	bcf	3,5	;RP0=0, select bank0
  4149     0CF4  1303               	bcf	3,6	;RP1=0, select bank0
  4150     0CF5  0821               	movf	?___flneg+1,w
  4151     0CF6  1683               	bsf	3,5	;RP0=1, select bank1
  4152     0CF7  1303               	bcf	3,6	;RP1=0, select bank1
  4153     0CF8  00C5               	movwf	(efgtoa@g+1)^(0+128)
  4154     0CF9  1283               	bcf	3,5	;RP0=0, select bank0
  4155     0CFA  1303               	bcf	3,6	;RP1=0, select bank0
  4156     0CFB  0820               	movf	?___flneg,w
  4157     0CFC  1683               	bsf	3,5	;RP0=1, select bank1
  4158     0CFD  1303               	bcf	3,6	;RP1=0, select bank1
  4159     0CFE  00C4               	movwf	efgtoa@g^(0+128)
  4160     0CFF                     l3306:
  4161                           
  4162                           ;/opt/microchip/xc8/v3.10/pic/sources/c99/common/doprnt.c: 603:     n = 0;
  4163     0CFF  1683               	bsf	3,5	;RP0=1, select bank1
  4164     0D00  1303               	bcf	3,6	;RP1=0, select bank1
  4165     0D01  01C2               	clrf	efgtoa@n^(0+128)
  4166     0D02  01C3               	clrf	(efgtoa@n+1)^(0+128)
  4167     0D03                     l3308:
  4168                           
  4169                           ;/opt/microchip/xc8/v3.10/pic/sources/c99/common/doprnt.c: 604:     w = width;
  4170     0D03  086A               	movf	(_width+1)^(0+128),w
  4171     0D04  00B2               	movwf	(efgtoa@w+1)^(0+128)
  4172     0D05  0869               	movf	_width^(0+128),w
  4173     0D06  00B1               	movwf	efgtoa@w^(0+128)
  4174     0D07                     l3310:
  4175                           
  4176                           ;/opt/microchip/xc8/v3.10/pic/sources/c99/common/doprnt.c: 605:     if (sign
  4177     0D07  0841               	movf	efgtoa@sign^(0+128),w
  4178     0D08  1903               	btfsc	3,2
  4179     0D09  2D0B               	goto	u4701
  4180     0D0A  2D0C               	goto	u4700
  4181     0D0B                     u4701:
  4182     0D0B  2D1C               	goto	l3318
  4183     0D0C                     u4700:
  4184     0D0C                     l3312:
  4185                           
  4186                           ;/opt/microchip/xc8/v3.10/pic/sources/c99/common/doprnt.c: 609:    ) {;/opt/microchip/xc
      +                          8/v3.10/pic/sources/c99/common/doprnt.c: 610:   sign = sign ? '-' : '+';
  4187     0D0C  0841               	movf	efgtoa@sign^(0+128),w
  4188     0D0D  1D03               	btfss	3,2
  4189     0D0E  2D10               	goto	u4711
  4190     0D0F  2D11               	goto	u4710
  4191     0D10                     u4711:
  4192     0D10  2D16               	goto	l3316
  4193     0D11                     u4710:
  4194     0D11                     l3314:
  4195     0D11  302B               	movlw	43
  4196     0D12  00A6               	movwf	_efgtoa$1357^(0+128)
  4197     0D13  3000               	movlw	0
  4198     0D14  00A7               	movwf	(_efgtoa$1357^(0+128)+1)
  4199     0D15  2D1A               	goto	l825
  4200     0D16                     l3316:
  4201     0D16  302D               	movlw	45
  4202     0D17  00A6               	movwf	_efgtoa$1357^(0+128)
  4203     0D18  3000               	movlw	0
  4204     0D19  00A7               	movwf	(_efgtoa$1357^(0+128)+1)
  4205     0D1A                     l825:
  4206     0D1A  0826               	movf	_efgtoa$1357^(0+128),w
  4207     0D1B  00C1               	movwf	efgtoa@sign^(0+128)
  4208     0D1C                     l3318:
  4209                           
  4210                           ;/opt/microchip/xc8/v3.10/pic/sources/c99/common/doprnt.c: 619:     if (( __fpclassifyf(
      +                          g.f) == 1 )) {
  4211     0D1C  0847               	movf	(efgtoa@g+3)^(0+128),w
  4212     0D1D  1283               	bcf	3,5	;RP0=0, select bank0
  4213     0D1E  1303               	bcf	3,6	;RP1=0, select bank0
  4214     0D1F  00A3               	movwf	___fpclassifyf@x+3
  4215     0D20  1683               	bsf	3,5	;RP0=1, select bank1
  4216     0D21  1303               	bcf	3,6	;RP1=0, select bank1
  4217     0D22  0846               	movf	(efgtoa@g+2)^(0+128),w
  4218     0D23  1283               	bcf	3,5	;RP0=0, select bank0
  4219     0D24  1303               	bcf	3,6	;RP1=0, select bank0
  4220     0D25  00A2               	movwf	___fpclassifyf@x+2
  4221     0D26  1683               	bsf	3,5	;RP0=1, select bank1
  4222     0D27  1303               	bcf	3,6	;RP1=0, select bank1
  4223     0D28  0845               	movf	(efgtoa@g+1)^(0+128),w
  4224     0D29  1283               	bcf	3,5	;RP0=0, select bank0
  4225     0D2A  1303               	bcf	3,6	;RP1=0, select bank0
  4226     0D2B  00A1               	movwf	___fpclassifyf@x+1
  4227     0D2C  1683               	bsf	3,5	;RP0=1, select bank1
  4228     0D2D  1303               	bcf	3,6	;RP1=0, select bank1
  4229     0D2E  0844               	movf	efgtoa@g^(0+128),w
  4230     0D2F  1283               	bcf	3,5	;RP0=0, select bank0
  4231     0D30  1303               	bcf	3,6	;RP1=0, select bank0
  4232     0D31  00A0               	movwf	___fpclassifyf@x
  4233     0D32  160A  158A  26DA  120A  158A  	fcall	___fpclassifyf
  4234     0D37  1283               	bcf	3,5	;RP0=0, select bank0
  4235     0D38  1303               	bcf	3,6	;RP1=0, select bank0
  4236     0D39  0320               	decf	?___fpclassifyf,w
  4237     0D3A  0421               	iorwf	?___fpclassifyf+1,w
  4238     0D3B  1D03               	btfss	3,2
  4239     0D3C  2D3E               	goto	u4721
  4240     0D3D  2D3F               	goto	u4720
  4241     0D3E                     u4721:
  4242     0D3E  2D84               	goto	l3332
  4243     0D3F                     u4720:
  4244     0D3F                     l3320:
  4245                           
  4246                           ;/opt/microchip/xc8/v3.10/pic/sources/c99/common/doprnt.c: 620:   if (sign) {
  4247     0D3F  1683               	bsf	3,5	;RP0=1, select bank1
  4248     0D40  1303               	bcf	3,6	;RP1=0, select bank1
  4249     0D41  0841               	movf	efgtoa@sign^(0+128),w
  4250     0D42  1903               	btfsc	3,2
  4251     0D43  2D45               	goto	u4731
  4252     0D44  2D46               	goto	u4730
  4253     0D45                     u4731:
  4254     0D45  2D56               	goto	l3324
  4255     0D46                     u4730:
  4256     0D46                     l3322:
  4257                           
  4258                           ;/opt/microchip/xc8/v3.10/pic/sources/c99/common/doprnt.c: 621:    dbuf[0] = sign;
  4259     0D46  0841               	movf	efgtoa@sign^(0+128),w
  4260     0D47  1283               	bcf	3,5	;RP0=0, select bank2
  4261     0D48  1703               	bsf	3,6	;RP1=1, select bank2
  4262     0D49  0090               	movwf	_dbuf^(0+256)
  4263                           
  4264                           ;/opt/microchip/xc8/v3.10/pic/sources/c99/common/doprnt.c: 622:    w--;
  4265     0D4A  30FF               	movlw	255
  4266     0D4B  1683               	bsf	3,5	;RP0=1, select bank1
  4267     0D4C  1303               	bcf	3,6	;RP1=0, select bank1
  4268     0D4D  07B1               	addwf	efgtoa@w^(0+128),f
  4269     0D4E  1803               	skipnc
  4270     0D4F  0AB2               	incf	(efgtoa@w+1)^(0+128),f
  4271     0D50  30FF               	movlw	255
  4272     0D51  07B2               	addwf	(efgtoa@w+1)^(0+128),f
  4273                           
  4274                           ;/opt/microchip/xc8/v3.10/pic/sources/c99/common/doprnt.c: 623:    n = 1;
  4275     0D52  3001               	movlw	1
  4276     0D53  00C2               	movwf	efgtoa@n^(0+128)
  4277     0D54  3000               	movlw	0
  4278     0D55  00C3               	movwf	(efgtoa@n^(0+128)+1)
  4279     0D56                     l3324:
  4280                           
  4281                           ;/opt/microchip/xc8/v3.10/pic/sources/c99/common/doprnt.c: 631:   {;/opt/microchip/xc8/v
      +                          3.10/pic/sources/c99/common/doprnt.c: 632:             strcpy(&dbuf[n], "inf");
  4282     0D56  0842               	movf	efgtoa@n^(0+128),w
  4283     0D57  3E10               	addlw	(low (_dbuf| (0+256)))& (0+255)
  4284     0D58  1283               	bcf	3,5	;RP0=0, select bank0
  4285     0D59  1303               	bcf	3,6	;RP1=0, select bank0
  4286     0D5A  00A0               	movwf	strcpy@dest
  4287     0D5B  3083               	movlw	(low ((STR_3-__stringbase)| (0+32768)))& (0+255)
  4288     0D5C  00A1               	movwf	strcpy@src
  4289     0D5D  160A  158A  21C2  120A  158A  	fcall	_strcpy
  4290     0D62                     l3326:
  4291                           
  4292                           ;/opt/microchip/xc8/v3.10/pic/sources/c99/common/doprnt.c: 633:         };/opt/microchip
      +                          /xc8/v3.10/pic/sources/c99/common/doprnt.c: 634:         w -= ((sizeof("inf")/sizeof("in
      +                          f"[0]))-1);
  4293     0D62  30FD               	movlw	253
  4294     0D63  1683               	bsf	3,5	;RP0=1, select bank1
  4295     0D64  1303               	bcf	3,6	;RP1=0, select bank1
  4296     0D65  07B1               	addwf	efgtoa@w^(0+128),f
  4297     0D66  1803               	skipnc
  4298     0D67  0AB2               	incf	(efgtoa@w+1)^(0+128),f
  4299     0D68  30FF               	movlw	255
  4300     0D69  07B2               	addwf	(efgtoa@w+1)^(0+128),f
  4301     0D6A                     l3328:
  4302                           
  4303                           ;/opt/microchip/xc8/v3.10/pic/sources/c99/common/doprnt.c: 635:         return (void) pa
      +                          d(fp, &dbuf[0], w);
  4304     0D6A  1283               	bcf	3,5	;RP0=0, select bank0
  4305     0D6B  1303               	bcf	3,6	;RP1=0, select bank0
  4306     0D6C  0854               	movf	efgtoa@fp,w
  4307     0D6D  00B0               	movwf	pad@fp
  4308     0D6E  3010               	movlw	(low (_dbuf| (0+256)))& (0+255)
  4309     0D6F  00B1               	movwf	pad@buf
  4310     0D70  1683               	bsf	3,5	;RP0=1, select bank1
  4311     0D71  1303               	bcf	3,6	;RP1=0, select bank1
  4312     0D72  0832               	movf	(efgtoa@w+1)^(0+128),w
  4313     0D73  1283               	bcf	3,5	;RP0=0, select bank0
  4314     0D74  1303               	bcf	3,6	;RP1=0, select bank0
  4315     0D75  00B3               	movwf	pad@p+1
  4316     0D76  1683               	bsf	3,5	;RP0=1, select bank1
  4317     0D77  1303               	bcf	3,6	;RP1=0, select bank1
  4318     0D78  0831               	movf	efgtoa@w^(0+128),w
  4319     0D79  1283               	bcf	3,5	;RP0=0, select bank0
  4320     0D7A  1303               	bcf	3,6	;RP1=0, select bank0
  4321     0D7B  00B2               	movwf	pad@p
  4322     0D7C  160A  158A  22BB  120A  158A  	fcall	_pad
  4323     0D81  120A  118A  2E49   	goto	l828
  4324     0D84                     l3332:
  4325                           
  4326                           ;/opt/microchip/xc8/v3.10/pic/sources/c99/common/doprnt.c: 637:     if (( __fpclassifyf(
      +                          g.f) == 0 )) {
  4327     0D84  1683               	bsf	3,5	;RP0=1, select bank1
  4328     0D85  1303               	bcf	3,6	;RP1=0, select bank1
  4329     0D86  0847               	movf	(efgtoa@g+3)^(0+128),w
  4330     0D87  1283               	bcf	3,5	;RP0=0, select bank0
  4331     0D88  1303               	bcf	3,6	;RP1=0, select bank0
  4332     0D89  00A3               	movwf	___fpclassifyf@x+3
  4333     0D8A  1683               	bsf	3,5	;RP0=1, select bank1
  4334     0D8B  1303               	bcf	3,6	;RP1=0, select bank1
  4335     0D8C  0846               	movf	(efgtoa@g+2)^(0+128),w
  4336     0D8D  1283               	bcf	3,5	;RP0=0, select bank0
  4337     0D8E  1303               	bcf	3,6	;RP1=0, select bank0
  4338     0D8F  00A2               	movwf	___fpclassifyf@x+2
  4339     0D90  1683               	bsf	3,5	;RP0=1, select bank1
  4340     0D91  1303               	bcf	3,6	;RP1=0, select bank1
  4341     0D92  0845               	movf	(efgtoa@g+1)^(0+128),w
  4342     0D93  1283               	bcf	3,5	;RP0=0, select bank0
  4343     0D94  1303               	bcf	3,6	;RP1=0, select bank0
  4344     0D95  00A1               	movwf	___fpclassifyf@x+1
  4345     0D96  1683               	bsf	3,5	;RP0=1, select bank1
  4346     0D97  1303               	bcf	3,6	;RP1=0, select bank1
  4347     0D98  0844               	movf	efgtoa@g^(0+128),w
  4348     0D99  1283               	bcf	3,5	;RP0=0, select bank0
  4349     0D9A  1303               	bcf	3,6	;RP1=0, select bank0
  4350     0D9B  00A0               	movwf	___fpclassifyf@x
  4351     0D9C  160A  158A  26DA  120A  158A  	fcall	___fpclassifyf
  4352     0DA1  1283               	bcf	3,5	;RP0=0, select bank0
  4353     0DA2  1303               	bcf	3,6	;RP1=0, select bank0
  4354     0DA3  0820               	movf	?___fpclassifyf,w
  4355     0DA4  0421               	iorwf	?___fpclassifyf+1,w
  4356     0DA5  1D03               	btfss	3,2
  4357     0DA6  2DA8               	goto	u4741
  4358     0DA7  2DA9               	goto	u4740
  4359     0DA8                     u4741:
  4360     0DA8  2DCD               	goto	l3346
  4361     0DA9                     u4740:
  4362     0DA9                     l3334:
  4363                           
  4364                           ;/opt/microchip/xc8/v3.10/pic/sources/c99/common/doprnt.c: 638:   if (sign) {
  4365     0DA9  1683               	bsf	3,5	;RP0=1, select bank1
  4366     0DAA  1303               	bcf	3,6	;RP1=0, select bank1
  4367     0DAB  0841               	movf	efgtoa@sign^(0+128),w
  4368     0DAC  1903               	btfsc	3,2
  4369     0DAD  2DAF               	goto	u4751
  4370     0DAE  2DB0               	goto	u4750
  4371     0DAF                     u4751:
  4372     0DAF  2DC0               	goto	l3338
  4373     0DB0                     u4750:
  4374     0DB0                     l3336:
  4375                           
  4376                           ;/opt/microchip/xc8/v3.10/pic/sources/c99/common/doprnt.c: 639:    dbuf[0] = sign;
  4377     0DB0  0841               	movf	efgtoa@sign^(0+128),w
  4378     0DB1  1283               	bcf	3,5	;RP0=0, select bank2
  4379     0DB2  1703               	bsf	3,6	;RP1=1, select bank2
  4380     0DB3  0090               	movwf	_dbuf^(0+256)
  4381                           
  4382                           ;/opt/microchip/xc8/v3.10/pic/sources/c99/common/doprnt.c: 640:    w--;
  4383     0DB4  30FF               	movlw	255
  4384     0DB5  1683               	bsf	3,5	;RP0=1, select bank1
  4385     0DB6  1303               	bcf	3,6	;RP1=0, select bank1
  4386     0DB7  07B1               	addwf	efgtoa@w^(0+128),f
  4387     0DB8  1803               	skipnc
  4388     0DB9  0AB2               	incf	(efgtoa@w+1)^(0+128),f
  4389     0DBA  30FF               	movlw	255
  4390     0DBB  07B2               	addwf	(efgtoa@w+1)^(0+128),f
  4391                           
  4392                           ;/opt/microchip/xc8/v3.10/pic/sources/c99/common/doprnt.c: 641:    n = 1;
  4393     0DBC  3001               	movlw	1
  4394     0DBD  00C2               	movwf	efgtoa@n^(0+128)
  4395     0DBE  3000               	movlw	0
  4396     0DBF  00C3               	movwf	(efgtoa@n^(0+128)+1)
  4397     0DC0                     l3338:
  4398                           
  4399                           ;/opt/microchip/xc8/v3.10/pic/sources/c99/common/doprnt.c: 649:   {;/opt/microchip/xc8/v
      +                          3.10/pic/sources/c99/common/doprnt.c: 650:             strcpy(&dbuf[n], "nan");
  4400     0DC0  0842               	movf	efgtoa@n^(0+128),w
  4401     0DC1  3E10               	addlw	(low (_dbuf| (0+256)))& (0+255)
  4402     0DC2  1283               	bcf	3,5	;RP0=0, select bank0
  4403     0DC3  1303               	bcf	3,6	;RP1=0, select bank0
  4404     0DC4  00A0               	movwf	strcpy@dest
  4405     0DC5  3087               	movlw	(low ((STR_6-__stringbase)| (0+32768)))& (0+255)
  4406     0DC6  00A1               	movwf	strcpy@src
  4407     0DC7  160A  158A  21C2  120A  158A  	fcall	_strcpy
  4408     0DCC  2D62               	goto	l3326
  4409     0DCD                     l3346:
  4410                           
  4411                           ;/opt/microchip/xc8/v3.10/pic/sources/c99/common/doprnt.c: 657:     u.f = 1.0;
  4412     0DCD  303F               	movlw	63
  4413     0DCE  1683               	bsf	3,5	;RP0=1, select bank1
  4414     0DCF  1303               	bcf	3,6	;RP1=0, select bank1
  4415     0DD0  00CB               	movwf	(efgtoa@u+3)^(0+128)
  4416     0DD1  3080               	movlw	128
  4417     0DD2  00CA               	movwf	(efgtoa@u+2)^(0+128)
  4418     0DD3  3000               	movlw	0
  4419     0DD4  00C9               	movwf	(efgtoa@u+1)^(0+128)
  4420     0DD5  3000               	movlw	0
  4421     0DD6  00C8               	movwf	efgtoa@u^(0+128)
  4422     0DD7                     l3348:
  4423                           
  4424                           ;/opt/microchip/xc8/v3.10/pic/sources/c99/common/doprnt.c: 658:     e = 0;
  4425     0DD7  01AF               	clrf	efgtoa@e^(0+128)
  4426     0DD8  01B0               	clrf	(efgtoa@e+1)^(0+128)
  4427     0DD9                     l3350:
  4428                           
  4429                           ;/opt/microchip/xc8/v3.10/pic/sources/c99/common/doprnt.c: 659:  if (!(g.f == 0.0)) {
  4430     0DD9  0847               	movf	(efgtoa@g+3)^(0+128),w
  4431     0DDA  1283               	bcf	3,5	;RP0=0, select bank0
  4432     0DDB  1303               	bcf	3,6	;RP1=0, select bank0
  4433     0DDC  00A3               	movwf	___fleq@ff1+3
  4434     0DDD  1683               	bsf	3,5	;RP0=1, select bank1
  4435     0DDE  1303               	bcf	3,6	;RP1=0, select bank1
  4436     0DDF  0846               	movf	(efgtoa@g+2)^(0+128),w
  4437     0DE0  1283               	bcf	3,5	;RP0=0, select bank0
  4438     0DE1  1303               	bcf	3,6	;RP1=0, select bank0
  4439     0DE2  00A2               	movwf	___fleq@ff1+2
  4440     0DE3  1683               	bsf	3,5	;RP0=1, select bank1
  4441     0DE4  1303               	bcf	3,6	;RP1=0, select bank1
  4442     0DE5  0845               	movf	(efgtoa@g+1)^(0+128),w
  4443     0DE6  1283               	bcf	3,5	;RP0=0, select bank0
  4444     0DE7  1303               	bcf	3,6	;RP1=0, select bank0
  4445     0DE8  00A1               	movwf	___fleq@ff1+1
  4446     0DE9  1683               	bsf	3,5	;RP0=1, select bank1
  4447     0DEA  1303               	bcf	3,6	;RP1=0, select bank1
  4448     0DEB  0844               	movf	efgtoa@g^(0+128),w
  4449     0DEC  1283               	bcf	3,5	;RP0=0, select bank0
  4450     0DED  1303               	bcf	3,6	;RP1=0, select bank0
  4451     0DEE  00A0               	movwf	___fleq@ff1
  4452     0DEF  3000               	movlw	0
  4453     0DF0  00A7               	movwf	___fleq@ff2+3
  4454     0DF1  3000               	movlw	0
  4455     0DF2  00A6               	movwf	___fleq@ff2+2
  4456     0DF3  3000               	movlw	0
  4457     0DF4  00A5               	movwf	___fleq@ff2+1
  4458     0DF5  3000               	movlw	0
  4459     0DF6  00A4               	movwf	___fleq@ff2
  4460     0DF7  160A  158A  22F5  120A  158A  	fcall	___fleq
  4461     0DFC  1803               	btfsc	3,0
  4462     0DFD  2DFF               	goto	u4761
  4463     0DFE  2E02               	goto	u4760
  4464     0DFF                     u4761:
  4465     0DFF  120A  118A  2875   	goto	l3376
  4466     0E02                     u4760:
  4467     0E02  2E13               	goto	l3356
  4468     0E03                     l3354:
  4469                           
  4470                           ;/opt/microchip/xc8/v3.10/pic/sources/c99/common/doprnt.c: 661:    u = ou;
  4471     0E03  1683               	bsf	3,5	;RP0=1, select bank1
  4472     0E04  1303               	bcf	3,6	;RP1=0, select bank1
  4473     0E05  0836               	movf	(efgtoa@ou+3)^(0+128),w
  4474     0E06  00CB               	movwf	(efgtoa@u+3)^(0+128)
  4475     0E07  0835               	movf	(efgtoa@ou+2)^(0+128),w
  4476     0E08  00CA               	movwf	(efgtoa@u+2)^(0+128)
  4477     0E09  0834               	movf	(efgtoa@ou+1)^(0+128),w
  4478     0E0A  00C9               	movwf	(efgtoa@u+1)^(0+128)
  4479     0E0B  0833               	movf	efgtoa@ou^(0+128),w
  4480     0E0C  00C8               	movwf	efgtoa@u^(0+128)
  4481                           
  4482                           ;/opt/microchip/xc8/v3.10/pic/sources/c99/common/doprnt.c: 662:    ++e;
  4483     0E0D  3001               	movlw	1
  4484     0E0E  07AF               	addwf	efgtoa@e^(0+128),f
  4485     0E0F  1803               	skipnc
  4486     0E10  0AB0               	incf	(efgtoa@e+1)^(0+128),f
  4487     0E11  3000               	movlw	0
  4488     0E12  07B0               	addwf	(efgtoa@e+1)^(0+128),f
  4489     0E13                     l3356:
  4490                           
  4491                           ;/opt/microchip/xc8/v3.10/pic/sources/c99/common/doprnt.c: 660:   while ((labs((g).u-((o
      +                          u.f = u.f*10.0,ou)).u) <= 1) || g.f > ou.f) {
  4492     0E13  3041               	movlw	65
  4493     0E14  1283               	bcf	3,5	;RP0=0, select bank0
  4494     0E15  1303               	bcf	3,6	;RP1=0, select bank0
  4495     0E16  00B1               	movwf	___flmul@b+3
  4496     0E17  3020               	movlw	32
  4497     0E18  00B0               	movwf	___flmul@b+2
  4498     0E19  3000               	movlw	0
  4499     0E1A  00AF               	movwf	___flmul@b+1
  4500     0E1B  3000               	movlw	0
  4501     0E1C  00AE               	movwf	___flmul@b
  4502     0E1D  1683               	bsf	3,5	;RP0=1, select bank1
  4503     0E1E  1303               	bcf	3,6	;RP1=0, select bank1
  4504     0E1F  084B               	movf	(efgtoa@u+3)^(0+128),w
  4505     0E20  1283               	bcf	3,5	;RP0=0, select bank0
  4506     0E21  1303               	bcf	3,6	;RP1=0, select bank0
  4507     0E22  00B5               	movwf	___flmul@a+3
  4508     0E23  1683               	bsf	3,5	;RP0=1, select bank1
  4509     0E24  1303               	bcf	3,6	;RP1=0, select bank1
  4510     0E25  084A               	movf	(efgtoa@u+2)^(0+128),w
  4511     0E26  1283               	bcf	3,5	;RP0=0, select bank0
  4512     0E27  1303               	bcf	3,6	;RP1=0, select bank0
  4513     0E28  00B4               	movwf	___flmul@a+2
  4514     0E29  1683               	bsf	3,5	;RP0=1, select bank1
  4515     0E2A  1303               	bcf	3,6	;RP1=0, select bank1
  4516     0E2B  0849               	movf	(efgtoa@u+1)^(0+128),w
  4517     0E2C  1283               	bcf	3,5	;RP0=0, select bank0
  4518     0E2D  1303               	bcf	3,6	;RP1=0, select bank0
  4519     0E2E  00B3               	movwf	___flmul@a+1
  4520     0E2F  1683               	bsf	3,5	;RP0=1, select bank1
  4521     0E30  1303               	bcf	3,6	;RP1=0, select bank1
  4522     0E31  0848               	movf	efgtoa@u^(0+128),w
  4523     0E32  1283               	bcf	3,5	;RP0=0, select bank0
  4524     0E33  1303               	bcf	3,6	;RP1=0, select bank0
  4525     0E34  00B2               	movwf	___flmul@a
  4526     0E35  120A  158A  2144  120A  158A  	fcall	___flmul
  4527     0E3A  1283               	bcf	3,5	;RP0=0, select bank0
  4528     0E3B  1303               	bcf	3,6	;RP1=0, select bank0
  4529     0E3C  0831               	movf	?___flmul+3,w
  4530     0E3D  1683               	bsf	3,5	;RP0=1, select bank1
  4531     0E3E  1303               	bcf	3,6	;RP1=0, select bank1
  4532     0E3F  00B6               	movwf	(efgtoa@ou+3)^(0+128)
  4533     0E40  1283               	bcf	3,5	;RP0=0, select bank0
  4534     0E41  1303               	bcf	3,6	;RP1=0, select bank0
  4535     0E42  0830               	movf	?___flmul+2,w
  4536     0E43  1683               	bsf	3,5	;RP0=1, select bank1
  4537     0E44  1303               	bcf	3,6	;RP1=0, select bank1
  4538     0E45  00B5               	movwf	(efgtoa@ou+2)^(0+128)
  4539     0E46  1283               	bcf	3,5	;RP0=0, select bank0
  4540     0E47  1303               	bcf	3,6	;RP1=0, select bank0
  4541     0E48  082F               	movf	?___flmul+1,w
  4542     0E49  1683               	bsf	3,5	;RP0=1, select bank1
  4543     0E4A  1303               	bcf	3,6	;RP1=0, select bank1
  4544     0E4B  00B4               	movwf	(efgtoa@ou+1)^(0+128)
  4545     0E4C  1283               	bcf	3,5	;RP0=0, select bank0
  4546     0E4D  1303               	bcf	3,6	;RP1=0, select bank0
  4547     0E4E  082E               	movf	?___flmul,w
  4548     0E4F  1683               	bsf	3,5	;RP0=1, select bank1
  4549     0E50  1303               	bcf	3,6	;RP1=0, select bank1
  4550     0E51  00B3               	movwf	efgtoa@ou^(0+128)
  4551     0E52                     l3358:
  4552     0E52  0844               	movf	efgtoa@g^(0+128),w
  4553     0E53  1283               	bcf	3,5	;RP0=0, select bank0
  4554     0E54  1303               	bcf	3,6	;RP1=0, select bank0
  4555     0E55  00DA               	movwf	??_efgtoa
  4556     0E56  1683               	bsf	3,5	;RP0=1, select bank1
  4557     0E57  1303               	bcf	3,6	;RP1=0, select bank1
  4558     0E58  0845               	movf	(efgtoa@g+1)^(0+128),w
  4559     0E59  1283               	bcf	3,5	;RP0=0, select bank0
  4560     0E5A  1303               	bcf	3,6	;RP1=0, select bank0
  4561     0E5B  00DB               	movwf	??_efgtoa+1
  4562     0E5C  1683               	bsf	3,5	;RP0=1, select bank1
  4563     0E5D  1303               	bcf	3,6	;RP1=0, select bank1
  4564     0E5E  0846               	movf	(efgtoa@g+2)^(0+128),w
  4565     0E5F  1283               	bcf	3,5	;RP0=0, select bank0
  4566     0E60  1303               	bcf	3,6	;RP1=0, select bank0
  4567     0E61  00DC               	movwf	??_efgtoa+2
  4568     0E62  1683               	bsf	3,5	;RP0=1, select bank1
  4569     0E63  1303               	bcf	3,6	;RP1=0, select bank1
  4570     0E64  0847               	movf	(efgtoa@g+3)^(0+128),w
  4571     0E65  1283               	bcf	3,5	;RP0=0, select bank0
  4572     0E66  1303               	bcf	3,6	;RP1=0, select bank0
  4573     0E67  00DD               	movwf	??_efgtoa+3
  4574     0E68  1683               	bsf	3,5	;RP0=1, select bank1
  4575     0E69  1303               	bcf	3,6	;RP1=0, select bank1
  4576     0E6A  0833               	movf	efgtoa@ou^(0+128),w
  4577     0E6B  1283               	bcf	3,5	;RP0=0, select bank0
  4578     0E6C  1303               	bcf	3,6	;RP1=0, select bank0
  4579     0E6D  02DA               	subwf	??_efgtoa,f
  4580     0E6E  1683               	bsf	3,5	;RP0=1, select bank1
  4581     0E6F  1303               	bcf	3,6	;RP1=0, select bank1
  4582     0E70  0834               	movf	(efgtoa@ou+1)^(0+128),w
  4583     0E71  1C03               	skipc
  4584     0E72  0F34               	incfsz	(efgtoa@ou+1)^(0+128),w
  4585     0E73  2E75               	goto	u4771
  4586     0E74  2E78               	goto	u4772
  4587     0E75                     u4771:
  4588     0E75  1283               	bcf	3,5	;RP0=0, select bank0
  4589     0E76  1303               	bcf	3,6	;RP1=0, select bank0
  4590     0E77  02DB               	subwf	??_efgtoa+1,f
  4591     0E78                     u4772:
  4592     0E78  1683               	bsf	3,5	;RP0=1, select bank1
  4593     0E79  1303               	bcf	3,6	;RP1=0, select bank1
  4594     0E7A  0835               	movf	(efgtoa@ou+2)^(0+128),w
  4595     0E7B  1C03               	skipc
  4596     0E7C  0F35               	incfsz	(efgtoa@ou+2)^(0+128),w
  4597     0E7D  2E7F               	goto	u4773
  4598     0E7E  2E82               	goto	u4774
  4599     0E7F                     u4773:
  4600     0E7F  1283               	bcf	3,5	;RP0=0, select bank0
  4601     0E80  1303               	bcf	3,6	;RP1=0, select bank0
  4602     0E81  02DC               	subwf	??_efgtoa+2,f
  4603     0E82                     u4774:
  4604     0E82  1683               	bsf	3,5	;RP0=1, select bank1
  4605     0E83  1303               	bcf	3,6	;RP1=0, select bank1
  4606     0E84  0836               	movf	(efgtoa@ou+3)^(0+128),w
  4607     0E85  1C03               	skipc
  4608     0E86  0F36               	incfsz	(efgtoa@ou+3)^(0+128),w
  4609     0E87  2E89               	goto	u4775
  4610     0E88  2E8C               	goto	u4776
  4611     0E89                     u4775:
  4612     0E89  1283               	bcf	3,5	;RP0=0, select bank0
  4613     0E8A  1303               	bcf	3,6	;RP1=0, select bank0
  4614     0E8B  02DD               	subwf	??_efgtoa+3,f
  4615     0E8C                     u4776:
  4616     0E8C  1683               	bsf	3,5	;RP0=1, select bank1
  4617     0E8D  1303               	bcf	3,6	;RP1=0, select bank1
  4618     0E8E  1283               	bcf	3,5	;RP0=0, select bank0
  4619     0E8F  1303               	bcf	3,6	;RP1=0, select bank0
  4620     0E90  085D               	movf	??_efgtoa+3,w
  4621     0E91  00A3               	movwf	labs@a+3
  4622     0E92  085C               	movf	??_efgtoa+2,w
  4623     0E93  00A2               	movwf	labs@a+2
  4624     0E94  085B               	movf	??_efgtoa+1,w
  4625     0E95  00A1               	movwf	labs@a+1
  4626     0E96  085A               	movf	??_efgtoa,w
  4627     0E97  00A0               	movwf	labs@a
  4628     0E98  160A  158A  21AB  120A  158A  	fcall	_labs
  4629     0E9D  1283               	bcf	3,5	;RP0=0, select bank0
  4630     0E9E  1303               	bcf	3,6	;RP1=0, select bank0
  4631     0E9F  1BA3               	btfsc	?_labs+3,7
  4632     0EA0  2EB1               	goto	u4781
  4633     0EA1  0823               	movf	?_labs+3,w
  4634     0EA2  1D03               	btfss	3,2
  4635     0EA3  2EB2               	goto	u4780
  4636     0EA4  0822               	movf	?_labs+2,w
  4637     0EA5  1D03               	btfss	3,2
  4638     0EA6  2EB2               	goto	u4780
  4639     0EA7  0821               	movf	?_labs+1,w
  4640     0EA8  1D03               	btfss	3,2
  4641     0EA9  2EB2               	goto	u4780
  4642     0EAA  3002               	movlw	2
  4643     0EAB  0220               	subwf	?_labs,w
  4644     0EAC  1D03               	skipz
  4645     0EAD  2EAE               	goto	u4783
  4646     0EAE                     u4783:
  4647     0EAE  1C03               	btfss	3,0
  4648     0EAF  2EB1               	goto	u4781
  4649     0EB0  2EB2               	goto	u4780
  4650     0EB1                     u4781:
  4651     0EB1  2E03               	goto	l3354
  4652     0EB2                     u4780:
  4653     0EB2                     l3360:
  4654     0EB2  1683               	bsf	3,5	;RP0=1, select bank1
  4655     0EB3  1303               	bcf	3,6	;RP1=0, select bank1
  4656     0EB4  0836               	movf	(efgtoa@ou+3)^(0+128),w
  4657     0EB5  1283               	bcf	3,5	;RP0=0, select bank0
  4658     0EB6  1303               	bcf	3,6	;RP1=0, select bank0
  4659     0EB7  00CB               	movwf	___flge@ff1+3
  4660     0EB8  1683               	bsf	3,5	;RP0=1, select bank1
  4661     0EB9  1303               	bcf	3,6	;RP1=0, select bank1
  4662     0EBA  0835               	movf	(efgtoa@ou+2)^(0+128),w
  4663     0EBB  1283               	bcf	3,5	;RP0=0, select bank0
  4664     0EBC  1303               	bcf	3,6	;RP1=0, select bank0
  4665     0EBD  00CA               	movwf	___flge@ff1+2
  4666     0EBE  1683               	bsf	3,5	;RP0=1, select bank1
  4667     0EBF  1303               	bcf	3,6	;RP1=0, select bank1
  4668     0EC0  0834               	movf	(efgtoa@ou+1)^(0+128),w
  4669     0EC1  1283               	bcf	3,5	;RP0=0, select bank0
  4670     0EC2  1303               	bcf	3,6	;RP1=0, select bank0
  4671     0EC3  00C9               	movwf	___flge@ff1+1
  4672     0EC4  1683               	bsf	3,5	;RP0=1, select bank1
  4673     0EC5  1303               	bcf	3,6	;RP1=0, select bank1
  4674     0EC6  0833               	movf	efgtoa@ou^(0+128),w
  4675     0EC7  1283               	bcf	3,5	;RP0=0, select bank0
  4676     0EC8  1303               	bcf	3,6	;RP1=0, select bank0
  4677     0EC9  00C8               	movwf	___flge@ff1
  4678     0ECA  1683               	bsf	3,5	;RP0=1, select bank1
  4679     0ECB  1303               	bcf	3,6	;RP1=0, select bank1
  4680     0ECC  0847               	movf	(efgtoa@g+3)^(0+128),w
  4681     0ECD  1283               	bcf	3,5	;RP0=0, select bank0
  4682     0ECE  1303               	bcf	3,6	;RP1=0, select bank0
  4683     0ECF  00CF               	movwf	___flge@ff2+3
  4684     0ED0  1683               	bsf	3,5	;RP0=1, select bank1
  4685     0ED1  1303               	bcf	3,6	;RP1=0, select bank1
  4686     0ED2  0846               	movf	(efgtoa@g+2)^(0+128),w
  4687     0ED3  1283               	bcf	3,5	;RP0=0, select bank0
  4688     0ED4  1303               	bcf	3,6	;RP1=0, select bank0
  4689     0ED5  00CE               	movwf	___flge@ff2+2
  4690     0ED6  1683               	bsf	3,5	;RP0=1, select bank1
  4691     0ED7  1303               	bcf	3,6	;RP1=0, select bank1
  4692     0ED8  0845               	movf	(efgtoa@g+1)^(0+128),w
  4693     0ED9  1283               	bcf	3,5	;RP0=0, select bank0
  4694     0EDA  1303               	bcf	3,6	;RP1=0, select bank0
  4695     0EDB  00CD               	movwf	___flge@ff2+1
  4696     0EDC  1683               	bsf	3,5	;RP0=1, select bank1
  4697     0EDD  1303               	bcf	3,6	;RP1=0, select bank1
  4698     0EDE  0844               	movf	efgtoa@g^(0+128),w
  4699     0EDF  1283               	bcf	3,5	;RP0=0, select bank0
  4700     0EE0  1303               	bcf	3,6	;RP1=0, select bank0
  4701     0EE1  00CC               	movwf	___flge@ff2
  4702     0EE2  160A  118A  2006  120A  158A  	fcall	___flge
  4703     0EE7  1C03               	btfss	3,0
  4704     0EE8  2EEA               	goto	u4791
  4705     0EE9  2EEB               	goto	u4790
  4706     0EEA                     u4791:
  4707     0EEA  2E03               	goto	l3354
  4708     0EEB                     u4790:
  4709     0EEB                     l3362:
  4710                           
  4711                           ;/opt/microchip/xc8/v3.10/pic/sources/c99/common/doprnt.c: 664:   if ((labs((g).u-(u).u)
      +                           <= 1)) {
  4712     0EEB  1683               	bsf	3,5	;RP0=1, select bank1
  4713     0EEC  1303               	bcf	3,6	;RP1=0, select bank1
  4714     0EED  0844               	movf	efgtoa@g^(0+128),w
  4715     0EEE  1283               	bcf	3,5	;RP0=0, select bank0
  4716     0EEF  1303               	bcf	3,6	;RP1=0, select bank0
  4717     0EF0  00DA               	movwf	??_efgtoa
  4718     0EF1  1683               	bsf	3,5	;RP0=1, select bank1
  4719     0EF2  1303               	bcf	3,6	;RP1=0, select bank1
  4720     0EF3  0845               	movf	(efgtoa@g+1)^(0+128),w
  4721     0EF4  1283               	bcf	3,5	;RP0=0, select bank0
  4722     0EF5  1303               	bcf	3,6	;RP1=0, select bank0
  4723     0EF6  00DB               	movwf	??_efgtoa+1
  4724     0EF7  1683               	bsf	3,5	;RP0=1, select bank1
  4725     0EF8  1303               	bcf	3,6	;RP1=0, select bank1
  4726     0EF9  0846               	movf	(efgtoa@g+2)^(0+128),w
  4727     0EFA  1283               	bcf	3,5	;RP0=0, select bank0
  4728     0EFB  1303               	bcf	3,6	;RP1=0, select bank0
  4729     0EFC  00DC               	movwf	??_efgtoa+2
  4730     0EFD  1683               	bsf	3,5	;RP0=1, select bank1
  4731     0EFE  1303               	bcf	3,6	;RP1=0, select bank1
  4732     0EFF  0847               	movf	(efgtoa@g+3)^(0+128),w
  4733     0F00  1283               	bcf	3,5	;RP0=0, select bank0
  4734     0F01  1303               	bcf	3,6	;RP1=0, select bank0
  4735     0F02  00DD               	movwf	??_efgtoa+3
  4736     0F03  1683               	bsf	3,5	;RP0=1, select bank1
  4737     0F04  1303               	bcf	3,6	;RP1=0, select bank1
  4738     0F05  0848               	movf	efgtoa@u^(0+128),w
  4739     0F06  1283               	bcf	3,5	;RP0=0, select bank0
  4740     0F07  1303               	bcf	3,6	;RP1=0, select bank0
  4741     0F08  02DA               	subwf	??_efgtoa,f
  4742     0F09  1683               	bsf	3,5	;RP0=1, select bank1
  4743     0F0A  1303               	bcf	3,6	;RP1=0, select bank1
  4744     0F0B  0849               	movf	(efgtoa@u+1)^(0+128),w
  4745     0F0C  1C03               	skipc
  4746     0F0D  0F49               	incfsz	(efgtoa@u+1)^(0+128),w
  4747     0F0E  2F10               	goto	u4801
  4748     0F0F  2F13               	goto	u4802
  4749     0F10                     u4801:
  4750     0F10  1283               	bcf	3,5	;RP0=0, select bank0
  4751     0F11  1303               	bcf	3,6	;RP1=0, select bank0
  4752     0F12  02DB               	subwf	??_efgtoa+1,f
  4753     0F13                     u4802:
  4754     0F13  1683               	bsf	3,5	;RP0=1, select bank1
  4755     0F14  1303               	bcf	3,6	;RP1=0, select bank1
  4756     0F15  084A               	movf	(efgtoa@u+2)^(0+128),w
  4757     0F16  1C03               	skipc
  4758     0F17  0F4A               	incfsz	(efgtoa@u+2)^(0+128),w
  4759     0F18  2F1A               	goto	u4803
  4760     0F19  2F1D               	goto	u4804
  4761     0F1A                     u4803:
  4762     0F1A  1283               	bcf	3,5	;RP0=0, select bank0
  4763     0F1B  1303               	bcf	3,6	;RP1=0, select bank0
  4764     0F1C  02DC               	subwf	??_efgtoa+2,f
  4765     0F1D                     u4804:
  4766     0F1D  1683               	bsf	3,5	;RP0=1, select bank1
  4767     0F1E  1303               	bcf	3,6	;RP1=0, select bank1
  4768     0F1F  084B               	movf	(efgtoa@u+3)^(0+128),w
  4769     0F20  1C03               	skipc
  4770     0F21  0F4B               	incfsz	(efgtoa@u+3)^(0+128),w
  4771     0F22  2F24               	goto	u4805
  4772     0F23  2F27               	goto	u4806
  4773     0F24                     u4805:
  4774     0F24  1283               	bcf	3,5	;RP0=0, select bank0
  4775     0F25  1303               	bcf	3,6	;RP1=0, select bank0
  4776     0F26  02DD               	subwf	??_efgtoa+3,f
  4777     0F27                     u4806:
  4778     0F27  1683               	bsf	3,5	;RP0=1, select bank1
  4779     0F28  1303               	bcf	3,6	;RP1=0, select bank1
  4780     0F29  1283               	bcf	3,5	;RP0=0, select bank0
  4781     0F2A  1303               	bcf	3,6	;RP1=0, select bank0
  4782     0F2B  085D               	movf	??_efgtoa+3,w
  4783     0F2C  00A3               	movwf	labs@a+3
  4784     0F2D  085C               	movf	??_efgtoa+2,w
  4785     0F2E  00A2               	movwf	labs@a+2
  4786     0F2F  085B               	movf	??_efgtoa+1,w
  4787     0F30  00A1               	movwf	labs@a+1
  4788     0F31  085A               	movf	??_efgtoa,w
  4789     0F32  00A0               	movwf	labs@a
  4790     0F33  160A  158A  21AB  120A  158A  	fcall	_labs
  4791     0F38  1283               	bcf	3,5	;RP0=0, select bank0
  4792     0F39  1303               	bcf	3,6	;RP1=0, select bank0
  4793     0F3A  1BA3               	btfsc	?_labs+3,7
  4794     0F3B  2F4F               	goto	u4810
  4795     0F3C  0823               	movf	?_labs+3,w
  4796     0F3D  1D03               	btfss	3,2
  4797     0F3E  2F4C               	goto	u4811
  4798     0F3F  0822               	movf	?_labs+2,w
  4799     0F40  1D03               	btfss	3,2
  4800     0F41  2F4C               	goto	u4811
  4801     0F42  0821               	movf	?_labs+1,w
  4802     0F43  1D03               	btfss	3,2
  4803     0F44  2F4C               	goto	u4811
  4804     0F45  3002               	movlw	2
  4805     0F46  0220               	subwf	?_labs,w
  4806     0F47  1D03               	skipz
  4807     0F48  2F49               	goto	u4813
  4808     0F49                     u4813:
  4809     0F49  1803               	btfsc	3,0
  4810     0F4A  2F4C               	goto	u4811
  4811     0F4B  2F4F               	goto	u4810
  4812     0F4C                     u4811:
  4813     0F4C  120A  118A  283A   	goto	l3374
  4814     0F4F                     u4810:
  4815     0F4F                     l3364:
  4816                           
  4817                           ;/opt/microchip/xc8/v3.10/pic/sources/c99/common/doprnt.c: 665:    g = u;
  4818     0F4F  1683               	bsf	3,5	;RP0=1, select bank1
  4819     0F50  1303               	bcf	3,6	;RP1=0, select bank1
  4820     0F51  084B               	movf	(efgtoa@u+3)^(0+128),w
  4821     0F52  00C7               	movwf	(efgtoa@g+3)^(0+128)
  4822     0F53  084A               	movf	(efgtoa@u+2)^(0+128),w
  4823     0F54  00C6               	movwf	(efgtoa@g+2)^(0+128)
  4824     0F55  0849               	movf	(efgtoa@u+1)^(0+128),w
  4825     0F56  00C5               	movwf	(efgtoa@g+1)^(0+128)
  4826     0F57  0848               	movf	efgtoa@u^(0+128),w
  4827     0F58  00C4               	movwf	efgtoa@g^(0+128)
  4828                           
  4829                           ;/opt/microchip/xc8/v3.10/pic/sources/c99/common/doprnt.c: 666:   }
  4830     0F59  2DFF               	goto	u4761
  4831     0F5A                     l3366:
  4832                           
  4833                           ;/opt/microchip/xc8/v3.10/pic/sources/c99/common/doprnt.c: 669:     u.f = u.f/10.0;
  4834     0F5A  3041               	movlw	65
  4835     0F5B  1283               	bcf	3,5	;RP0=0, select bank0
  4836     0F5C  1303               	bcf	3,6	;RP1=0, select bank0
  4837     0F5D  00A3               	movwf	___fldiv@a+3
  4838     0F5E  3020               	movlw	32
  4839     0F5F  00A2               	movwf	___fldiv@a+2
  4840     0F60  3000               	movlw	0
  4841     0F61  00A1               	movwf	___fldiv@a+1
  4842     0F62  3000               	movlw	0
  4843     0F63  00A0               	movwf	___fldiv@a
  4844     0F64  1683               	bsf	3,5	;RP0=1, select bank1
  4845     0F65  1303               	bcf	3,6	;RP1=0, select bank1
  4846     0F66  084B               	movf	(efgtoa@u+3)^(0+128),w
  4847     0F67  1283               	bcf	3,5	;RP0=0, select bank0
  4848     0F68  1303               	bcf	3,6	;RP1=0, select bank0
  4849     0F69  00A7               	movwf	___fldiv@b+3
  4850     0F6A  1683               	bsf	3,5	;RP0=1, select bank1
  4851     0F6B  1303               	bcf	3,6	;RP1=0, select bank1
  4852     0F6C  084A               	movf	(efgtoa@u+2)^(0+128),w
  4853     0F6D  1283               	bcf	3,5	;RP0=0, select bank0
  4854     0F6E  1303               	bcf	3,6	;RP1=0, select bank0
  4855     0F6F  00A6               	movwf	___fldiv@b+2
  4856     0F70  1683               	bsf	3,5	;RP0=1, select bank1
  4857     0F71  1303               	bcf	3,6	;RP1=0, select bank1
  4858     0F72  0849               	movf	(efgtoa@u+1)^(0+128),w
  4859     0F73  1283               	bcf	3,5	;RP0=0, select bank0
  4860     0F74  1303               	bcf	3,6	;RP1=0, select bank0
  4861     0F75  00A5               	movwf	___fldiv@b+1
  4862     0F76  1683               	bsf	3,5	;RP0=1, select bank1
  4863     0F77  1303               	bcf	3,6	;RP1=0, select bank1
  4864     0F78  0848               	movf	efgtoa@u^(0+128),w
  4865     0F79  1283               	bcf	3,5	;RP0=0, select bank0
  4866     0F7A  1303               	bcf	3,6	;RP1=0, select bank0
  4867     0F7B  00A4               	movwf	___fldiv@b
  4868     0F7C  160A  118A  2160  120A  158A  	fcall	___fldiv
  4869     0F81  1283               	bcf	3,5	;RP0=0, select bank0
  4870     0F82  1303               	bcf	3,6	;RP1=0, select bank0
  4871     0F83  0823               	movf	?___fldiv+3,w
  4872     0F84  1683               	bsf	3,5	;RP0=1, select bank1
  4873     0F85  1303               	bcf	3,6	;RP1=0, select bank1
  4874     0F86  00CB               	movwf	(efgtoa@u+3)^(0+128)
  4875     0F87  1283               	bcf	3,5	;RP0=0, select bank0
  4876     0F88  1303               	bcf	3,6	;RP1=0, select bank0
  4877     0F89  0822               	movf	?___fldiv+2,w
  4878     0F8A  1683               	bsf	3,5	;RP0=1, select bank1
  4879     0F8B  1303               	bcf	3,6	;RP1=0, select bank1
  4880     0F8C  00CA               	movwf	(efgtoa@u+2)^(0+128)
  4881     0F8D  1283               	bcf	3,5	;RP0=0, select bank0
  4882     0F8E  1303               	bcf	3,6	;RP1=0, select bank0
  4883     0F8F  0821               	movf	?___fldiv+1,w
  4884     0F90  1683               	bsf	3,5	;RP0=1, select bank1
  4885     0F91  1303               	bcf	3,6	;RP1=0, select bank1
  4886     0F92  00C9               	movwf	(efgtoa@u+1)^(0+128)
  4887     0F93  1283               	bcf	3,5	;RP0=0, select bank0
  4888     0F94  1303               	bcf	3,6	;RP1=0, select bank0
  4889     0F95  0820               	movf	?___fldiv,w
  4890     0F96  1683               	bsf	3,5	;RP0=1, select bank1
  4891     0F97  1303               	bcf	3,6	;RP1=0, select bank1
  4892     0F98  00C8               	movwf	efgtoa@u^(0+128)
  4893     0F99                     l3368:
  4894                           
  4895                           ;/opt/microchip/xc8/v3.10/pic/sources/c99/common/doprnt.c: 670:     --e;
  4896     0F99  30FF               	movlw	255
  4897     0F9A  07AF               	addwf	efgtoa@e^(0+128),f
  4898     0F9B  1803               	skipnc
  4899     0F9C  0AB0               	incf	(efgtoa@e+1)^(0+128),f
  4900     0F9D  30FF               	movlw	255
  4901     0F9E  07B0               	addwf	(efgtoa@e+1)^(0+128),f
  4902     0F9F                     l3370:
  4903                           
  4904                           ;/opt/microchip/xc8/v3.10/pic/sources/c99/common/doprnt.c: 671:     if ((labs((g).u-(u).
      +                          u) <= 1)) {
  4905     0F9F  0844               	movf	efgtoa@g^(0+128),w
  4906     0FA0  1283               	bcf	3,5	;RP0=0, select bank0
  4907     0FA1  1303               	bcf	3,6	;RP1=0, select bank0
  4908     0FA2  00DA               	movwf	??_efgtoa
  4909     0FA3  1683               	bsf	3,5	;RP0=1, select bank1
  4910     0FA4  1303               	bcf	3,6	;RP1=0, select bank1
  4911     0FA5  0845               	movf	(efgtoa@g+1)^(0+128),w
  4912     0FA6  1283               	bcf	3,5	;RP0=0, select bank0
  4913     0FA7  1303               	bcf	3,6	;RP1=0, select bank0
  4914     0FA8  00DB               	movwf	??_efgtoa+1
  4915     0FA9  1683               	bsf	3,5	;RP0=1, select bank1
  4916     0FAA  1303               	bcf	3,6	;RP1=0, select bank1
  4917     0FAB  0846               	movf	(efgtoa@g+2)^(0+128),w
  4918     0FAC  1283               	bcf	3,5	;RP0=0, select bank0
  4919     0FAD  1303               	bcf	3,6	;RP1=0, select bank0
  4920     0FAE  00DC               	movwf	??_efgtoa+2
  4921     0FAF  1683               	bsf	3,5	;RP0=1, select bank1
  4922     0FB0  1303               	bcf	3,6	;RP1=0, select bank1
  4923     0FB1  0847               	movf	(efgtoa@g+3)^(0+128),w
  4924     0FB2  1283               	bcf	3,5	;RP0=0, select bank0
  4925     0FB3  1303               	bcf	3,6	;RP1=0, select bank0
  4926     0FB4  00DD               	movwf	??_efgtoa+3
  4927     0FB5  1683               	bsf	3,5	;RP0=1, select bank1
  4928     0FB6  1303               	bcf	3,6	;RP1=0, select bank1
  4929     0FB7  0848               	movf	efgtoa@u^(0+128),w
  4930     0FB8  1283               	bcf	3,5	;RP0=0, select bank0
  4931     0FB9  1303               	bcf	3,6	;RP1=0, select bank0
  4932     0FBA  02DA               	subwf	??_efgtoa,f
  4933     0FBB  1683               	bsf	3,5	;RP0=1, select bank1
  4934     0FBC  1303               	bcf	3,6	;RP1=0, select bank1
  4935     0FBD  0849               	movf	(efgtoa@u+1)^(0+128),w
  4936     0FBE  1C03               	skipc
  4937     0FBF  0F49               	incfsz	(efgtoa@u+1)^(0+128),w
  4938     0FC0  2FC2               	goto	u4821
  4939     0FC1  2FC5               	goto	u4822
  4940     0FC2                     u4821:
  4941     0FC2  1283               	bcf	3,5	;RP0=0, select bank0
  4942     0FC3  1303               	bcf	3,6	;RP1=0, select bank0
  4943     0FC4  02DB               	subwf	??_efgtoa+1,f
  4944     0FC5                     u4822:
  4945     0FC5  1683               	bsf	3,5	;RP0=1, select bank1
  4946     0FC6  1303               	bcf	3,6	;RP1=0, select bank1
  4947     0FC7  084A               	movf	(efgtoa@u+2)^(0+128),w
  4948     0FC8  1C03               	skipc
  4949     0FC9  0F4A               	incfsz	(efgtoa@u+2)^(0+128),w
  4950     0FCA  2FCC               	goto	u4823
  4951     0FCB  2FCF               	goto	u4824
  4952     0FCC                     u4823:
  4953     0FCC  1283               	bcf	3,5	;RP0=0, select bank0
  4954     0FCD  1303               	bcf	3,6	;RP1=0, select bank0
  4955     0FCE  02DC               	subwf	??_efgtoa+2,f
  4956     0FCF                     u4824:
  4957     0FCF  1683               	bsf	3,5	;RP0=1, select bank1
  4958     0FD0  1303               	bcf	3,6	;RP1=0, select bank1
  4959     0FD1  084B               	movf	(efgtoa@u+3)^(0+128),w
  4960     0FD2  1C03               	skipc
  4961     0FD3  0F4B               	incfsz	(efgtoa@u+3)^(0+128),w
  4962     0FD4  2FD6               	goto	u4825
  4963     0FD5  2FD9               	goto	u4826
  4964     0FD6                     u4825:
  4965     0FD6  1283               	bcf	3,5	;RP0=0, select bank0
  4966     0FD7  1303               	bcf	3,6	;RP1=0, select bank0
  4967     0FD8  02DD               	subwf	??_efgtoa+3,f
  4968     0FD9                     u4826:
  4969     0FD9  1683               	bsf	3,5	;RP0=1, select bank1
  4970     0FDA  1303               	bcf	3,6	;RP1=0, select bank1
  4971     0FDB  1283               	bcf	3,5	;RP0=0, select bank0
  4972     0FDC  1303               	bcf	3,6	;RP1=0, select bank0
  4973     0FDD  085D               	movf	??_efgtoa+3,w
  4974     0FDE  00A3               	movwf	labs@a+3
  4975     0FDF  085C               	movf	??_efgtoa+2,w
  4976     0FE0  00A2               	movwf	labs@a+2
  4977     0FE1  085B               	movf	??_efgtoa+1,w
  4978     0FE2  00A1               	movwf	labs@a+1
  4979     0FE3  085A               	movf	??_efgtoa,w
  4980     0FE4  00A0               	movwf	labs@a
  4981     0FE5  160A  158A  21AB  120A  158A  	fcall	_labs
  4982     0FEA  1283               	bcf	3,5	;RP0=0, select bank0
  4983     0FEB  1303               	bcf	3,6	;RP1=0, select bank0
  4984     0FEC  1BA3               	btfsc	?_labs+3,7
  4985     0FED  2FFF               	goto	u4830
  4986     0FEE  0823               	movf	?_labs+3,w
  4987     0FEF  1D03               	btfss	3,2
  4988     0FF0  2FFE               	goto	u4831
  4989     0FF1  0822               	movf	?_labs+2,w
  4990     0FF2  1D03               	btfss	3,2
  4991     0FF3  2FFE               	goto	u4831
  4992     0FF4  0821               	movf	?_labs+1,w
  4993     0FF5  1D03               	btfss	3,2
  4994     0FF6  2FFE               	goto	u4831
  4995     0FF7  3002               	movlw	2
  4996     0FF8  0220               	subwf	?_labs,w
  4997     0FF9  1D03               	skipz
  4998     0FFA  2FFB               	goto	u4833
  4999     0FFB                     u4833:
  5000     0FFB  1803               	btfsc	3,0
  5001     0FFC  2FFE               	goto	u4831
  5002     0FFD  2FFF               	goto	u4830
  5003     0FFE                     u4831:
  5004     0FFE  2F4C               	goto	u4811
  5005     0FFF                     u4830:
  5006     0FFF  2F4F               	goto	l3364
  5007                           
  5008                           	psect	text11
  5009     19C2                     __ptext11:	
  5010 ;; *************** function _strcpy *****************
  5011 ;; Defined at:
  5012 ;;		line 3 in file "/opt/microchip/xc8/v3.10/pic/sources/c99/common/strcpy.c"
  5013 ;; Parameters:    Size  Location     Type
  5014 ;;  dest            1    0[BANK0 ] PTR unsigned char 
  5015 ;;		 -> dbuf(80), 
  5016 ;;  src             1    1[BANK0 ] PTR const unsigned char 
  5017 ;;		 -> STR_6(4), STR_3(4), 
  5018 ;; Auto vars:     Size  Location     Type
  5019 ;;  d               1    2[BANK0 ] PTR unsigned char 
  5020 ;;		 -> dbuf(80), 
  5021 ;; Return value:  Size  Location     Type
  5022 ;;                  1    0[BANK0 ] PTR unsigned char 
  5023 ;; Registers used:
  5024 ;;		wreg, fsr0l, fsr0h, status,2, status,0, pclath, btemp1
  5025 ;; Tracked objects:
  5026 ;;		On entry : 0/0
  5027 ;;		On exit  : 0/0
  5028 ;;		Unchanged: 0/0
  5029 ;; Data sizes:     COMMON   BANK0   BANK1   BANK3   BANK2
  5030 ;;      Params:         0       2       0       0       0
  5031 ;;      Locals:         0       1       0       0       0
  5032 ;;      Temps:          0       0       0       0       0
  5033 ;;      Totals:         0       3       0       0       0
  5034 ;;Total ram usage:        3 bytes
  5035 ;; Hardware stack levels used: 2
  5036 ;; Hardware stack levels required when called: 1
  5037 ;; This function calls:
  5038 ;;		Nothing
  5039 ;; This function is called by:
  5040 ;;		_efgtoa
  5041 ;; This function uses a non-reentrant model
  5042 ;;
  5043                           
  5044     19C2                     _strcpy:	
  5045                           ;psect for function _strcpy
  5046                           
  5047     19C2                     l3164:	
  5048                           ;incstack = 0
  5049                           ; Regs used in _strcpy: [wreg-fsr0h+status,2+status,0+pclath+btemp1]
  5050                           
  5051     19C2  1283               	bcf	3,5	;RP0=0, select bank0
  5052     19C3  1303               	bcf	3,6	;RP1=0, select bank0
  5053     19C4  0820               	movf	strcpy@dest,w
  5054     19C5  00A2               	movwf	strcpy@d
  5055     19C6                     l3166:
  5056     19C6  3001               	movlw	1
  5057     19C7  07A1               	addwf	strcpy@src,f
  5058     19C8  30FF               	movlw	-1
  5059     19C9  0721               	addwf	strcpy@src,w
  5060     19CA  0084               	movwf	4
  5061     19CB  160A  158A  2000  160A  158A  	fcall	stringdir
  5062     19D0  00FF               	movwf	btemp1
  5063     19D1  0822               	movf	strcpy@d,w
  5064     19D2  0AA2               	incf	strcpy@d,f
  5065     19D3  0084               	movwf	4
  5066     19D4  087F               	movf	btemp1,w
  5067     19D5  1783               	bsf	3,7	;select IRP bank2
  5068     19D6  0080               	movwf	0
  5069     19D7  0800               	movf	0,w
  5070     19D8  1D03               	btfss	3,2
  5071     19D9  29DB               	goto	u4351
  5072     19DA  29DC               	goto	u4350
  5073     19DB                     u4351:
  5074     19DB  29C6               	goto	l3166
  5075     19DC                     u4350:
  5076     19DC                     l976:
  5077     19DC  0008               	return
  5078     19DD                     __end_of_strcpy:
  5079                           
  5080                           	psect	text12
  5081     1ABB                     __ptext12:	
  5082 ;; *************** function _pad *****************
  5083 ;; Defined at:
  5084 ;;		line 193 in file "/opt/microchip/xc8/v3.10/pic/sources/c99/common/doprnt.c"
  5085 ;; Parameters:    Size  Location     Type
  5086 ;;  fp              1   16[BANK0 ] PTR struct _IO_FILE
  5087 ;;		 -> NULL(0), 
  5088 ;;  buf             1   17[BANK0 ] PTR unsigned char 
  5089 ;;		 -> dbuf(80), 
  5090 ;;  p               2   18[BANK0 ] int 
  5091 ;; Auto vars:     Size  Location     Type
  5092 ;;  i               2   21[BANK0 ] int 
  5093 ;; Return value:  Size  Location     Type
  5094 ;;                  1    wreg      void 
  5095 ;; Registers used:
  5096 ;;		wreg, fsr0l, fsr0h, status,2, status,0, pclath, cstack
  5097 ;; Tracked objects:
  5098 ;;		On entry : 0/0
  5099 ;;		On exit  : 0/0
  5100 ;;		Unchanged: 0/0
  5101 ;; Data sizes:     COMMON   BANK0   BANK1   BANK3   BANK2
  5102 ;;      Params:         0       4       0       0       0
  5103 ;;      Locals:         0       2       0       0       0
  5104 ;;      Temps:          0       1       0       0       0
  5105 ;;      Totals:         0       7       0       0       0
  5106 ;;Total ram usage:        7 bytes
  5107 ;; Hardware stack levels used: 1
  5108 ;; Hardware stack levels required when called: 3
  5109 ;; This function calls:
  5110 ;;		_fputc
  5111 ;;		_fputs
  5112 ;; This function is called by:
  5113 ;;		_efgtoa
  5114 ;; This function uses a non-reentrant model
  5115 ;;
  5116                           
  5117     1ABB                     _pad:	
  5118                           ;psect for function _pad
  5119                           
  5120     1ABB                     l3128:	
  5121                           ;incstack = 0
  5122                           ; Regs used in _pad: [wreg-fsr0h+status,2+status,0+pclath+cstack]
  5123                           
  5124                           
  5125                           ;/opt/microchip/xc8/v3.10/pic/sources/c99/common/doprnt.c: 193: static void pad(FILE *fp
      +                          , char *buf, int p);/opt/microchip/xc8/v3.10/pic/sources/c99/common/doprnt.c: 194: {;/op
      +                          t/microchip/xc8/v3.10/pic/sources/c99/common/doprnt.c: 195:     int i;;/opt/microchip/xc
      +                          8/v3.10/pic/sources/c99/common/doprnt.c: 205:  if (p < 0) {
  5126     1ABB  1283               	bcf	3,5	;RP0=0, select bank0
  5127     1ABC  1303               	bcf	3,6	;RP1=0, select bank0
  5128     1ABD  1FB3               	btfss	pad@p+1,7
  5129     1ABE  2AC0               	goto	u4251
  5130     1ABF  2AC1               	goto	u4250
  5131     1AC0                     u4251:
  5132     1AC0  2AC3               	goto	l813
  5133     1AC1                     u4250:
  5134     1AC1                     l3130:
  5135                           
  5136                           ;/opt/microchip/xc8/v3.10/pic/sources/c99/common/doprnt.c: 206:   p = 0;
  5137     1AC1  01B2               	clrf	pad@p
  5138     1AC2  01B3               	clrf	pad@p+1
  5139     1AC3                     l813:	
  5140                           ;/opt/microchip/xc8/v3.10/pic/sources/c99/common/doprnt.c: 207:  }
  5141                           
  5142                           
  5143                           ;/opt/microchip/xc8/v3.10/pic/sources/c99/common/doprnt.c: 208:     i = 0;
  5144     1AC3  01B5               	clrf	pad@i
  5145     1AC4  01B6               	clrf	pad@i+1
  5146                           
  5147                           ;/opt/microchip/xc8/v3.10/pic/sources/c99/common/doprnt.c: 209:     while (i < p) {
  5148     1AC5  2ADB               	goto	l3136
  5149     1AC6                     l3132:
  5150                           
  5151                           ;/opt/microchip/xc8/v3.10/pic/sources/c99/common/doprnt.c: 210:         fputc(' ', fp);
  5152     1AC6  3020               	movlw	32
  5153     1AC7  1283               	bcf	3,5	;RP0=0, select bank0
  5154     1AC8  1303               	bcf	3,6	;RP1=0, select bank0
  5155     1AC9  00A1               	movwf	fputc@c
  5156     1ACA  3000               	movlw	0
  5157     1ACB  00A2               	movwf	fputc@c+1
  5158     1ACC  0830               	movf	pad@fp,w
  5159     1ACD  00A3               	movwf	fputc@fp
  5160     1ACE  160A  158A  2396  160A  158A  	fcall	_fputc
  5161     1AD3                     l3134:
  5162                           
  5163                           ;/opt/microchip/xc8/v3.10/pic/sources/c99/common/doprnt.c: 211:         ++i;
  5164     1AD3  3001               	movlw	1
  5165     1AD4  1283               	bcf	3,5	;RP0=0, select bank0
  5166     1AD5  1303               	bcf	3,6	;RP1=0, select bank0
  5167     1AD6  07B5               	addwf	pad@i,f
  5168     1AD7  1803               	skipnc
  5169     1AD8  0AB6               	incf	pad@i+1,f
  5170     1AD9  3000               	movlw	0
  5171     1ADA  07B6               	addwf	pad@i+1,f
  5172     1ADB                     l3136:
  5173                           
  5174                           ;/opt/microchip/xc8/v3.10/pic/sources/c99/common/doprnt.c: 209:     while (i < p) {
  5175     1ADB  0836               	movf	pad@i+1,w
  5176     1ADC  3A80               	xorlw	128
  5177     1ADD  00B4               	movwf	??_pad
  5178     1ADE  0833               	movf	pad@p+1,w
  5179     1ADF  3A80               	xorlw	128
  5180     1AE0  0234               	subwf	??_pad,w
  5181     1AE1  1D03               	skipz
  5182     1AE2  2AE5               	goto	u4265
  5183     1AE3  0832               	movf	pad@p,w
  5184     1AE4  0235               	subwf	pad@i,w
  5185     1AE5                     u4265:
  5186     1AE5  1C03               	skipc
  5187     1AE6  2AE8               	goto	u4261
  5188     1AE7  2AE9               	goto	u4260
  5189     1AE8                     u4261:
  5190     1AE8  2AC6               	goto	l3132
  5191     1AE9                     u4260:
  5192     1AE9                     l3138:
  5193                           
  5194                           ;/opt/microchip/xc8/v3.10/pic/sources/c99/common/doprnt.c: 218:         fputs((const cha
      +                          r *)buf, fp);
  5195     1AE9  1283               	bcf	3,5	;RP0=0, select bank0
  5196     1AEA  1303               	bcf	3,6	;RP1=0, select bank0
  5197     1AEB  0831               	movf	pad@buf,w
  5198     1AEC  00A9               	movwf	fputs@s
  5199     1AED  0830               	movf	pad@fp,w
  5200     1AEE  00AA               	movwf	fputs@fp
  5201     1AEF  160A  158A  2292  160A  158A  	fcall	_fputs
  5202     1AF4                     l817:
  5203     1AF4  0008               	return
  5204     1AF5                     __end_of_pad:
  5205                           
  5206                           	psect	text13
  5207     1A92                     __ptext13:	
  5208 ;; *************** function _fputs *****************
  5209 ;; Defined at:
  5210 ;;		line 8 in file "/opt/microchip/xc8/v3.10/pic/sources/c99/common/nf_fputs.c"
  5211 ;; Parameters:    Size  Location     Type
  5212 ;;  s               1    9[BANK0 ] PTR const unsigned char 
  5213 ;;		 -> dbuf(80), 
  5214 ;;  fp              1   10[BANK0 ] PTR struct _IO_FILE
  5215 ;;		 -> NULL(0), 
  5216 ;; Auto vars:     Size  Location     Type
  5217 ;;  i               2   14[BANK0 ] int 
  5218 ;;  c               1   13[BANK0 ] unsigned char 
  5219 ;; Return value:  Size  Location     Type
  5220 ;;                  2    9[BANK0 ] int 
  5221 ;; Registers used:
  5222 ;;		wreg, fsr0l, fsr0h, status,2, status,0, pclath, cstack
  5223 ;; Tracked objects:
  5224 ;;		On entry : 0/0
  5225 ;;		On exit  : 0/0
  5226 ;;		Unchanged: 0/0
  5227 ;; Data sizes:     COMMON   BANK0   BANK1   BANK3   BANK2
  5228 ;;      Params:         0       2       0       0       0
  5229 ;;      Locals:         0       3       0       0       0
  5230 ;;      Temps:          0       2       0       0       0
  5231 ;;      Totals:         0       7       0       0       0
  5232 ;;Total ram usage:        7 bytes
  5233 ;; Hardware stack levels used: 1
  5234 ;; Hardware stack levels required when called: 2
  5235 ;; This function calls:
  5236 ;;		_fputc
  5237 ;; This function is called by:
  5238 ;;		_pad
  5239 ;; This function uses a non-reentrant model
  5240 ;;
  5241                           
  5242     1A92                     _fputs:	
  5243                           ;psect for function _fputs
  5244                           
  5245     1A92                     l2752:	
  5246                           ;incstack = 0
  5247                           ; Regs used in _fputs: [wreg-fsr0h+status,2+status,0+pclath+cstack]
  5248                           
  5249     1A92  1283               	bcf	3,5	;RP0=0, select bank0
  5250     1A93  1303               	bcf	3,6	;RP1=0, select bank0
  5251     1A94  01AE               	clrf	fputs@i
  5252     1A95  01AF               	clrf	fputs@i+1
  5253     1A96  2AAD               	goto	l2758
  5254     1A97                     l2754:
  5255     1A97  082D               	movf	fputs@c,w
  5256     1A98  00AB               	movwf	??_fputs
  5257     1A99  01AC               	clrf	??_fputs+1
  5258     1A9A  082B               	movf	??_fputs,w
  5259     1A9B  00A1               	movwf	fputc@c
  5260     1A9C  082C               	movf	??_fputs+1,w
  5261     1A9D  00A2               	movwf	fputc@c+1
  5262     1A9E  082A               	movf	fputs@fp,w
  5263     1A9F  00A3               	movwf	fputc@fp
  5264     1AA0  160A  158A  2396  160A  158A  	fcall	_fputc
  5265     1AA5                     l2756:
  5266     1AA5  3001               	movlw	1
  5267     1AA6  1283               	bcf	3,5	;RP0=0, select bank0
  5268     1AA7  1303               	bcf	3,6	;RP1=0, select bank0
  5269     1AA8  07AE               	addwf	fputs@i,f
  5270     1AA9  1803               	skipnc
  5271     1AAA  0AAF               	incf	fputs@i+1,f
  5272     1AAB  3000               	movlw	0
  5273     1AAC  07AF               	addwf	fputs@i+1,f
  5274     1AAD                     l2758:
  5275     1AAD  082E               	movf	fputs@i,w
  5276     1AAE  0729               	addwf	fputs@s,w
  5277     1AAF  00AB               	movwf	??_fputs
  5278     1AB0  082B               	movf	??_fputs,w
  5279     1AB1  0084               	movwf	4
  5280     1AB2  1783               	bsf	3,7	;select IRP bank2
  5281     1AB3  0800               	movf	0,w
  5282     1AB4  00AD               	movwf	fputs@c
  5283     1AB5  082D               	movf	fputs@c,w
  5284     1AB6  1D03               	btfss	3,2
  5285     1AB7  2AB9               	goto	u3371
  5286     1AB8  2ABA               	goto	u3370
  5287     1AB9                     u3371:
  5288     1AB9  2A97               	goto	l2754
  5289     1ABA                     u3370:
  5290     1ABA                     l970:
  5291     1ABA  0008               	return
  5292     1ABB                     __end_of_fputs:
  5293                           
  5294                           	psect	text14
  5295     1B96                     __ptext14:	
  5296 ;; *************** function _fputc *****************
  5297 ;; Defined at:
  5298 ;;		line 8 in file "/opt/microchip/xc8/v3.10/pic/sources/c99/common/nf_fputc.c"
  5299 ;; Parameters:    Size  Location     Type
  5300 ;;  c               2    1[BANK0 ] int 
  5301 ;;  fp              1    3[BANK0 ] PTR struct _IO_FILE
  5302 ;;		 -> NULL(0), 
  5303 ;; Auto vars:     Size  Location     Type
  5304 ;;		None
  5305 ;; Return value:  Size  Location     Type
  5306 ;;                  2    1[BANK0 ] int 
  5307 ;; Registers used:
  5308 ;;		wreg, fsr0l, fsr0h, status,2, status,0, pclath, cstack
  5309 ;; Tracked objects:
  5310 ;;		On entry : 0/0
  5311 ;;		On exit  : 0/0
  5312 ;;		Unchanged: 0/0
  5313 ;; Data sizes:     COMMON   BANK0   BANK1   BANK3   BANK2
  5314 ;;      Params:         0       3       0       0       0
  5315 ;;      Locals:         0       0       0       0       0
  5316 ;;      Temps:          0       5       0       0       0
  5317 ;;      Totals:         0       8       0       0       0
  5318 ;;Total ram usage:        8 bytes
  5319 ;; Hardware stack levels used: 1
  5320 ;; Hardware stack levels required when called: 1
  5321 ;; This function calls:
  5322 ;;		_putch
  5323 ;; This function is called by:
  5324 ;;		_pad
  5325 ;;		_vfpfcnvrt
  5326 ;;		_fputs
  5327 ;; This function uses a non-reentrant model
  5328 ;;
  5329                           
  5330     1B96                     _fputc:	
  5331                           ;psect for function _fputc
  5332                           
  5333     1B96                     l2526:	
  5334                           ;incstack = 0
  5335                           ; Regs used in _fputc: [wreg-fsr0h+status,2+status,0+pclath+cstack]
  5336                           
  5337     1B96  1283               	bcf	3,5	;RP0=0, select bank0
  5338     1B97  1303               	bcf	3,6	;RP1=0, select bank0
  5339     1B98  0823               	movf	fputc@fp,w
  5340     1B99  1903               	btfsc	3,2
  5341     1B9A  2B9C               	goto	u2841
  5342     1B9B  2B9D               	goto	u2840
  5343     1B9C                     u2841:
  5344     1B9C  2BA2               	goto	l2530
  5345     1B9D                     u2840:
  5346     1B9D                     l2528:
  5347     1B9D  0823               	movf	fputc@fp,w
  5348     1B9E  1D03               	btfss	3,2
  5349     1B9F  2BA1               	goto	u2851
  5350     1BA0  2BA2               	goto	u2850
  5351     1BA1                     u2851:
  5352     1BA1  2BA9               	goto	l2532
  5353     1BA2                     u2850:
  5354     1BA2                     l2530:
  5355     1BA2  0821               	movf	fputc@c,w
  5356     1BA3  160A  158A  2161  160A  158A  	fcall	_putch
  5357     1BA8  2BEC               	goto	l962
  5358     1BA9                     l2532:
  5359     1BA9  0823               	movf	fputc@fp,w
  5360     1BAA  3E08               	addlw	8
  5361     1BAB  0084               	movwf	4
  5362     1BAC  1383               	bcf	3,7	;select IRP bank0
  5363     1BAD  0800               	movf	0,w
  5364     1BAE  00A4               	movwf	??_fputc
  5365     1BAF  0A84               	incf	4,f
  5366     1BB0  0800               	movf	0,w
  5367     1BB1  00A5               	movwf	??_fputc+1
  5368     1BB2  0824               	movf	??_fputc,w
  5369     1BB3  0425               	iorwf	??_fputc+1,w
  5370     1BB4  1903               	btfsc	3,2
  5371     1BB5  2BB7               	goto	u2861
  5372     1BB6  2BB8               	goto	u2860
  5373     1BB7                     u2861:
  5374     1BB7  2BD5               	goto	l2536
  5375     1BB8                     u2860:
  5376     1BB8                     l2534:
  5377     1BB8  0823               	movf	fputc@fp,w
  5378     1BB9  3E08               	addlw	8
  5379     1BBA  0084               	movwf	4
  5380     1BBB  0800               	movf	0,w
  5381     1BBC  00A4               	movwf	??_fputc
  5382     1BBD  0A84               	incf	4,f
  5383     1BBE  0800               	movf	0,w
  5384     1BBF  00A5               	movwf	??_fputc+1
  5385     1BC0  0A23               	incf	fputc@fp,w
  5386     1BC1  0084               	movwf	4
  5387     1BC2  0800               	movf	0,w
  5388     1BC3  00A6               	movwf	??_fputc+2
  5389     1BC4  0A84               	incf	4,f
  5390     1BC5  0800               	movf	0,w
  5391     1BC6  00A7               	movwf	??_fputc+3
  5392     1BC7  0827               	movf	??_fputc+3,w
  5393     1BC8  3A80               	xorlw	128
  5394     1BC9  00A8               	movwf	??_fputc+4
  5395     1BCA  0825               	movf	??_fputc+1,w
  5396     1BCB  3A80               	xorlw	128
  5397     1BCC  0228               	subwf	??_fputc+4,w
  5398     1BCD  1D03               	skipz
  5399     1BCE  2BD1               	goto	u2875
  5400     1BCF  0824               	movf	??_fputc,w
  5401     1BD0  0226               	subwf	??_fputc+2,w
  5402     1BD1                     u2875:
  5403     1BD1  1803               	skipnc
  5404     1BD2  2BD4               	goto	u2871
  5405     1BD3  2BD5               	goto	u2870
  5406     1BD4                     u2871:
  5407     1BD4  2BEC               	goto	l962
  5408     1BD5                     u2870:
  5409     1BD5                     l2536:
  5410     1BD5  1283               	bcf	3,5	;RP0=0, select bank0
  5411     1BD6  1303               	bcf	3,6	;RP1=0, select bank0
  5412     1BD7  0A23               	incf	fputc@fp,w
  5413     1BD8  0084               	movwf	4
  5414     1BD9  1383               	bcf	3,7	;select IRP bank0
  5415     1BDA  0800               	movf	0,w
  5416     1BDB  00A4               	movwf	??_fputc
  5417     1BDC  0823               	movf	fputc@fp,w
  5418     1BDD  0084               	movwf	4
  5419     1BDE  0800               	movf	0,w
  5420     1BDF  0724               	addwf	??_fputc,w
  5421     1BE0  00A5               	movwf	??_fputc+1
  5422     1BE1  0825               	movf	??_fputc+1,w
  5423     1BE2  0084               	movwf	4
  5424     1BE3  0821               	movf	fputc@c,w
  5425     1BE4  0080               	movwf	0
  5426     1BE5  0A23               	incf	fputc@fp,w
  5427     1BE6  0084               	movwf	4
  5428     1BE7  3001               	movlw	1
  5429     1BE8  0780               	addwf	0,f
  5430     1BE9  0A84               	incf	4,f
  5431     1BEA  1803               	skipnc
  5432     1BEB  0A80               	incf	0,f
  5433     1BEC                     l962:
  5434     1BEC  0008               	return
  5435     1BED                     __end_of_fputc:
  5436                           
  5437                           	psect	text15
  5438     1961                     __ptext15:	
  5439 ;; *************** function _putch *****************
  5440 ;; Defined at:
  5441 ;;		line 34 in file "../../Functions/uart-v1.c"
  5442 ;; Parameters:    Size  Location     Type
  5443 ;;  c               1    wreg     unsigned char 
  5444 ;; Auto vars:     Size  Location     Type
  5445 ;;  c               1    0[BANK0 ] unsigned char 
  5446 ;; Return value:  Size  Location     Type
  5447 ;;                  1    wreg      void 
  5448 ;; Registers used:
  5449 ;;		wreg
  5450 ;; Tracked objects:
  5451 ;;		On entry : 0/0
  5452 ;;		On exit  : 0/0
  5453 ;;		Unchanged: 0/0
  5454 ;; Data sizes:     COMMON   BANK0   BANK1   BANK3   BANK2
  5455 ;;      Params:         0       0       0       0       0
  5456 ;;      Locals:         0       1       0       0       0
  5457 ;;      Temps:          0       0       0       0       0
  5458 ;;      Totals:         0       1       0       0       0
  5459 ;;Total ram usage:        1 bytes
  5460 ;; Hardware stack levels used: 1
  5461 ;; Hardware stack levels required when called: 1
  5462 ;; This function calls:
  5463 ;;		Nothing
  5464 ;; This function is called by:
  5465 ;;		_fputc
  5466 ;; This function uses a non-reentrant model
  5467 ;;
  5468                           
  5469     1961                     _putch:	
  5470                           ;psect for function _putch
  5471                           
  5472                           
  5473                           ;incstack = 0
  5474 ;; hardware stack exceeded
  5475                           ; Regs used in _putch: [wreg]
  5476                           ;putch@c stored from wreg
  5477     1961  1283               	bcf	3,5	;RP0=0, select bank0
  5478     1962  1303               	bcf	3,6	;RP1=0, select bank0
  5479     1963  00A0               	movwf	putch@c
  5480     1964                     l2522:
  5481     1964                     l42:	
  5482                           ;../../Functions/uart-v1.c: 34: void putch(char c);../../Functions/uart-v1.c: 35: {;../.
      +                          ./Functions/uart-v1.c: 36:     while(!TXIF);
  5483                           
  5484     1964  1E0C               	btfss	12,4	;volatile
  5485     1965  2967               	goto	u2831
  5486     1966  2968               	goto	u2830
  5487     1967                     u2831:
  5488     1967  2964               	goto	l42
  5489     1968                     u2830:
  5490     1968                     l2524:
  5491                           
  5492                           ;../../Functions/uart-v1.c: 37:     TXREG = c;
  5493     1968  0820               	movf	putch@c,w
  5494     1969  0099               	movwf	25	;volatile
  5495     196A                     l45:
  5496     196A  0008               	return
  5497     196B                     __end_of_putch:
  5498                           
  5499                           	psect	text16
  5500     19FB                     __ptext16:	
  5501 ;; *************** function _memcpy *****************
  5502 ;; Defined at:
  5503 ;;		line 4 in file "/opt/microchip/xc8/v3.10/pic/sources/c99/common/memcpy.c"
  5504 ;; Parameters:    Size  Location     Type
  5505 ;;  d1              1    0[BANK0 ] PTR void 
  5506 ;;		 -> dbuf(80), 
  5507 ;;  s1              1    1[BANK0 ] PTR const void 
  5508 ;;		 -> dbuf(80), 
  5509 ;;  n               2    2[BANK0 ] unsigned int 
  5510 ;; Auto vars:     Size  Location     Type
  5511 ;;  s               1    6[BANK0 ] PTR const unsigned char 
  5512 ;;		 -> dbuf(80), 
  5513 ;;  d               1    5[BANK0 ] PTR unsigned char 
  5514 ;;		 -> dbuf(80), 
  5515 ;;  tmp             1    4[BANK0 ] unsigned char 
  5516 ;; Return value:  Size  Location     Type
  5517 ;;                  1    0[BANK0 ] PTR void 
  5518 ;; Registers used:
  5519 ;;		wreg, fsr0l, fsr0h, status,2, status,0
  5520 ;; Tracked objects:
  5521 ;;		On entry : 0/0
  5522 ;;		On exit  : 0/0
  5523 ;;		Unchanged: 0/0
  5524 ;; Data sizes:     COMMON   BANK0   BANK1   BANK3   BANK2
  5525 ;;      Params:         0       4       0       0       0
  5526 ;;      Locals:         0       3       0       0       0
  5527 ;;      Temps:          0       0       0       0       0
  5528 ;;      Totals:         0       7       0       0       0
  5529 ;;Total ram usage:        7 bytes
  5530 ;; Hardware stack levels used: 1
  5531 ;; Hardware stack levels required when called: 1
  5532 ;; This function calls:
  5533 ;;		Nothing
  5534 ;; This function is called by:
  5535 ;;		_efgtoa
  5536 ;; This function uses a non-reentrant model
  5537 ;;
  5538                           
  5539     19FB                     _memcpy:	
  5540                           ;psect for function _memcpy
  5541                           
  5542     19FB                     l3206:	
  5543                           ;incstack = 0
  5544                           ; Regs used in _memcpy: [wreg-fsr0h+status,2+status,0]
  5545                           
  5546     19FB  1283               	bcf	3,5	;RP0=0, select bank0
  5547     19FC  1303               	bcf	3,6	;RP1=0, select bank0
  5548     19FD  0821               	movf	memcpy@s1,w
  5549     19FE  00A6               	movwf	memcpy@s
  5550     19FF  0820               	movf	memcpy@d1,w
  5551     1A00  00A5               	movwf	memcpy@d
  5552     1A01  2A0F               	goto	l947
  5553     1A02                     l3208:
  5554     1A02  0826               	movf	memcpy@s,w
  5555     1A03  0084               	movwf	4
  5556     1A04  1783               	bsf	3,7	;select IRP bank2
  5557     1A05  0800               	movf	0,w
  5558     1A06  00A4               	movwf	memcpy@tmp
  5559     1A07                     l3210:
  5560     1A07  3001               	movlw	1
  5561     1A08  07A6               	addwf	memcpy@s,f
  5562     1A09                     l3212:
  5563     1A09  0825               	movf	memcpy@d,w
  5564     1A0A  0084               	movwf	4
  5565     1A0B  0824               	movf	memcpy@tmp,w
  5566     1A0C  0080               	movwf	0
  5567     1A0D  3001               	movlw	1
  5568     1A0E  07A5               	addwf	memcpy@d,f
  5569     1A0F                     l947:
  5570     1A0F  3001               	movlw	1
  5571     1A10  02A2               	subwf	memcpy@n,f
  5572     1A11  3000               	movlw	0
  5573     1A12  1C03               	skipc
  5574     1A13  03A3               	decf	memcpy@n+1,f
  5575     1A14  02A3               	subwf	memcpy@n+1,f
  5576     1A15  0A22               	incf	memcpy@n,w
  5577     1A16  1D03               	skipz
  5578     1A17  2A1C               	goto	u4491
  5579     1A18  0A23               	incf	memcpy@n+1,w
  5580     1A19  1D03               	btfss	3,2
  5581     1A1A  2A1C               	goto	u4491
  5582     1A1B  2A1D               	goto	u4490
  5583     1A1C                     u4491:
  5584     1A1C  2A02               	goto	l3208
  5585     1A1D                     u4490:
  5586     1A1D                     l950:
  5587     1A1D  0008               	return
  5588     1A1E                     __end_of_memcpy:
  5589                           
  5590                           	psect	text17
  5591     19AB                     __ptext17:	
  5592 ;; *************** function _labs *****************
  5593 ;; Defined at:
  5594 ;;		line 1 in file "/opt/microchip/xc8/v3.10/pic/sources/c99/common/labs.c"
  5595 ;; Parameters:    Size  Location     Type
  5596 ;;  a               4    0[BANK0 ] long 
  5597 ;; Auto vars:     Size  Location     Type
  5598 ;;		None
  5599 ;; Return value:  Size  Location     Type
  5600 ;;                  4    0[BANK0 ] long 
  5601 ;; Registers used:
  5602 ;;		wreg, status,2, status,0
  5603 ;; Tracked objects:
  5604 ;;		On entry : 0/0
  5605 ;;		On exit  : 0/0
  5606 ;;		Unchanged: 0/0
  5607 ;; Data sizes:     COMMON   BANK0   BANK1   BANK3   BANK2
  5608 ;;      Params:         0       4       0       0       0
  5609 ;;      Locals:         0       0       0       0       0
  5610 ;;      Temps:          0       0       0       0       0
  5611 ;;      Totals:         0       4       0       0       0
  5612 ;;Total ram usage:        4 bytes
  5613 ;; Hardware stack levels used: 1
  5614 ;; Hardware stack levels required when called: 1
  5615 ;; This function calls:
  5616 ;;		Nothing
  5617 ;; This function is called by:
  5618 ;;		_efgtoa
  5619 ;; This function uses a non-reentrant model
  5620 ;;
  5621                           
  5622     19AB                     _labs:	
  5623                           ;psect for function _labs
  5624                           
  5625     19AB                     l3168:	
  5626                           ;incstack = 0
  5627                           ; Regs used in _labs: [wreg+status,2+status,0]
  5628                           
  5629     19AB  1283               	bcf	3,5	;RP0=0, select bank0
  5630     19AC  1303               	bcf	3,6	;RP1=0, select bank0
  5631     19AD  1BA3               	btfsc	labs@a+3,7
  5632     19AE  29B0               	goto	u4361
  5633     19AF  29B1               	goto	u4360
  5634     19B0                     u4361:
  5635     19B0  29B2               	goto	l3172
  5636     19B1                     u4360:
  5637     19B1                     l3170:
  5638     19B1  29C1               	goto	l944
  5639     19B2                     l3172:
  5640     19B2  0920               	comf	labs@a,w
  5641     19B3  00A0               	movwf	?_labs
  5642     19B4  0921               	comf	labs@a+1,w
  5643     19B5  00A1               	movwf	?_labs+1
  5644     19B6  0922               	comf	labs@a+2,w
  5645     19B7  00A2               	movwf	?_labs+2
  5646     19B8  0923               	comf	labs@a+3,w
  5647     19B9  00A3               	movwf	?_labs+3
  5648     19BA  0AA0               	incf	?_labs,f
  5649     19BB  1903               	skipnz
  5650     19BC  0AA1               	incf	?_labs+1,f
  5651     19BD  1903               	skipnz
  5652     19BE  0AA2               	incf	?_labs+2,f
  5653     19BF  1903               	skipnz
  5654     19C0  0AA3               	incf	?_labs+3,f
  5655     19C1                     l944:
  5656     19C1  0008               	return
  5657     19C2                     __end_of_labs:
  5658                           
  5659                           	psect	text18
  5660     0835                     __ptext18:	
  5661 ;; *************** function _floorf *****************
  5662 ;; Defined at:
  5663 ;;		line 3 in file "/opt/microchip/xc8/v3.10/pic/sources/c99/common/floorf.c"
  5664 ;; Parameters:    Size  Location     Type
  5665 ;;  x               4   26[BANK0 ] float 
  5666 ;; Auto vars:     Size  Location     Type
  5667 ;;  u               4   42[BANK0 ] struct .
  5668 ;;  m               4   36[BANK0 ] unsigned long 
  5669 ;;  e               2   40[BANK0 ] int 
  5670 ;; Return value:  Size  Location     Type
  5671 ;;                  4   26[BANK0 ] float 
  5672 ;; Registers used:
  5673 ;;		wreg, status,2, status,0, btemp1
  5674 ;; Tracked objects:
  5675 ;;		On entry : 0/0
  5676 ;;		On exit  : 0/0
  5677 ;;		Unchanged: 0/0
  5678 ;; Data sizes:     COMMON   BANK0   BANK1   BANK3   BANK2
  5679 ;;      Params:         0       4       0       0       0
  5680 ;;      Locals:         0      10       0       0       0
  5681 ;;      Temps:          0       6       0       0       0
  5682 ;;      Totals:         0      20       0       0       0
  5683 ;;Total ram usage:       20 bytes
  5684 ;; Hardware stack levels used: 1
  5685 ;; Hardware stack levels required when called: 1
  5686 ;; This function calls:
  5687 ;;		Nothing
  5688 ;; This function is called by:
  5689 ;;		_efgtoa
  5690 ;; This function uses a non-reentrant model
  5691 ;;
  5692                           
  5693     0835                     _floorf:	
  5694                           ;psect for function _floorf
  5695                           
  5696     0835                     l3176:	
  5697                           ;incstack = 0
  5698                           ; Regs used in _floorf: [wreg+status,2+status,0+btemp1]
  5699                           
  5700     0835  1683               	bsf	3,5	;RP0=1, select bank3
  5701     0836  1703               	bsf	3,6	;RP1=1, select bank3
  5702     0837  0837               	movf	(floorf@F521+3)^(0+384),w
  5703     0838  1283               	bcf	3,5	;RP0=0, select bank0
  5704     0839  1303               	bcf	3,6	;RP1=0, select bank0
  5705     083A  00CD               	movwf	floorf@u+3
  5706     083B  1683               	bsf	3,5	;RP0=1, select bank3
  5707     083C  1703               	bsf	3,6	;RP1=1, select bank3
  5708     083D  0836               	movf	(floorf@F521+2)^(0+384),w
  5709     083E  1283               	bcf	3,5	;RP0=0, select bank0
  5710     083F  1303               	bcf	3,6	;RP1=0, select bank0
  5711     0840  00CC               	movwf	floorf@u+2
  5712     0841  1683               	bsf	3,5	;RP0=1, select bank3
  5713     0842  1703               	bsf	3,6	;RP1=1, select bank3
  5714     0843  0835               	movf	(floorf@F521+1)^(0+384),w
  5715     0844  1283               	bcf	3,5	;RP0=0, select bank0
  5716     0845  1303               	bcf	3,6	;RP1=0, select bank0
  5717     0846  00CB               	movwf	floorf@u+1
  5718     0847  1683               	bsf	3,5	;RP0=1, select bank3
  5719     0848  1703               	bsf	3,6	;RP1=1, select bank3
  5720     0849  0834               	movf	floorf@F521^(0+384),w
  5721     084A  1283               	bcf	3,5	;RP0=0, select bank0
  5722     084B  1303               	bcf	3,6	;RP1=0, select bank0
  5723     084C  00CA               	movwf	floorf@u
  5724     084D  083D               	movf	floorf@x+3,w
  5725     084E  00CD               	movwf	floorf@u+3
  5726     084F  083C               	movf	floorf@x+2,w
  5727     0850  00CC               	movwf	floorf@u+2
  5728     0851  083B               	movf	floorf@x+1,w
  5729     0852  00CB               	movwf	floorf@u+1
  5730     0853  083A               	movf	floorf@x,w
  5731     0854  00CA               	movwf	floorf@u
  5732     0855                     l3178:
  5733     0855  084A               	movf	floorf@u,w
  5734     0856  00BE               	movwf	??_floorf
  5735     0857  084B               	movf	floorf@u+1,w
  5736     0858  00BF               	movwf	??_floorf+1
  5737     0859  084C               	movf	floorf@u+2,w
  5738     085A  00C0               	movwf	??_floorf+2
  5739     085B  084D               	movf	floorf@u+3,w
  5740     085C  00C1               	movwf	??_floorf+3
  5741     085D  3017               	movlw	23
  5742     085E                     u4375:
  5743     085E  1003               	clrc
  5744     085F  0CC1               	rrf	??_floorf+3,f
  5745     0860  0CC0               	rrf	??_floorf+2,f
  5746     0861  0CBF               	rrf	??_floorf+1,f
  5747     0862  0CBE               	rrf	??_floorf,f
  5748     0863                     u4370:
  5749     0863  3EFF               	addlw	-1
  5750     0864  1D03               	skipz
  5751     0865  285E               	goto	u4375
  5752     0866  30FF               	movlw	255
  5753     0867  053E               	andwf	??_floorf,w
  5754     0868  00C2               	movwf	??_floorf+4
  5755     0869  3000               	movlw	0
  5756     086A  053F               	andwf	??_floorf+1,w
  5757     086B  00C3               	movwf	??_floorf+5
  5758     086C  0842               	movf	??_floorf+4,w
  5759     086D  3E81               	addlw	129
  5760     086E  00C8               	movwf	floorf@e
  5761     086F  0843               	movf	??_floorf+5,w
  5762     0870  1803               	skipnc
  5763     0871  3E01               	addlw	1
  5764     0872  3EFF               	addlw	255
  5765     0873  00C9               	movwf	floorf@e+1
  5766     0874                     l3180:
  5767     0874  0849               	movf	floorf@e+1,w
  5768     0875  3A80               	xorlw	128
  5769     0876  00FF               	movwf	btemp1
  5770     0877  3080               	movlw	128
  5771     0878  027F               	subwf	btemp1,w
  5772     0879  1D03               	skipz
  5773     087A  287D               	goto	u4385
  5774     087B  3017               	movlw	23
  5775     087C  0248               	subwf	floorf@e,w
  5776     087D                     u4385:
  5777     087D  1C03               	skipc
  5778     087E  2880               	goto	u4381
  5779     087F  2881               	goto	u4380
  5780     0880                     u4381:
  5781     0880  2882               	goto	l929
  5782     0881                     u4380:
  5783     0881                     l3182:
  5784     0881  2943               	goto	l930
  5785     0882                     l929:
  5786     0882  1283               	bcf	3,5	;RP0=0, select bank0
  5787     0883  1303               	bcf	3,6	;RP1=0, select bank0
  5788     0884  1BC9               	btfsc	floorf@e+1,7
  5789     0885  2887               	goto	u4391
  5790     0886  2888               	goto	u4390
  5791     0887                     u4391:
  5792     0887  28F8               	goto	l3196
  5793     0888                     u4390:
  5794     0888                     l3184:
  5795     0888  0A48               	incf	floorf@e,w
  5796     0889  00FF               	movwf	btemp1
  5797     088A  30FF               	movlw	255
  5798     088B  00BE               	movwf	??_floorf
  5799     088C  30FF               	movlw	255
  5800     088D  00BF               	movwf	??_floorf+1
  5801     088E  307F               	movlw	127
  5802     088F  00C0               	movwf	??_floorf+2
  5803     0890  3000               	movlw	0
  5804     0891  00C1               	movwf	??_floorf+3
  5805     0892  2898               	goto	u4400
  5806     0893                     u4405:
  5807     0893  0D41               	rlf	??_floorf+3,w
  5808     0894  0CC1               	rrf	??_floorf+3,f
  5809     0895  0CC0               	rrf	??_floorf+2,f
  5810     0896  0CBF               	rrf	??_floorf+1,f
  5811     0897  0CBE               	rrf	??_floorf,f
  5812     0898                     u4400:
  5813     0898  0BFF               	decfsz	btemp1,f
  5814     0899  2893               	goto	u4405
  5815     089A  0841               	movf	??_floorf+3,w
  5816     089B  00C7               	movwf	floorf@m+3
  5817     089C  0840               	movf	??_floorf+2,w
  5818     089D  00C6               	movwf	floorf@m+2
  5819     089E  083F               	movf	??_floorf+1,w
  5820     089F  00C5               	movwf	floorf@m+1
  5821     08A0  083E               	movf	??_floorf,w
  5822     08A1  00C4               	movwf	floorf@m
  5823     08A2                     l3186:
  5824     08A2  0844               	movf	floorf@m,w
  5825     08A3  054A               	andwf	floorf@u,w
  5826     08A4  00BE               	movwf	??_floorf
  5827     08A5  0845               	movf	floorf@m+1,w
  5828     08A6  054B               	andwf	floorf@u+1,w
  5829     08A7  00BF               	movwf	??_floorf+1
  5830     08A8  0846               	movf	floorf@m+2,w
  5831     08A9  054C               	andwf	floorf@u+2,w
  5832     08AA  00C0               	movwf	??_floorf+2
  5833     08AB  0847               	movf	floorf@m+3,w
  5834     08AC  054D               	andwf	floorf@u+3,w
  5835     08AD  00C1               	movwf	??_floorf+3
  5836     08AE  0841               	movf	??_floorf+3,w
  5837     08AF  0440               	iorwf	??_floorf+2,w
  5838     08B0  043F               	iorwf	??_floorf+1,w
  5839     08B1  043E               	iorwf	??_floorf,w
  5840     08B2  1D03               	skipz
  5841     08B3  28B5               	goto	u4411
  5842     08B4  28B6               	goto	u4410
  5843     08B5                     u4411:
  5844     08B5  28B7               	goto	l3190
  5845     08B6                     u4410:
  5846     08B6  2881               	goto	l3182
  5847     08B7                     l3190:
  5848     08B7  084A               	movf	floorf@u,w
  5849     08B8  00BE               	movwf	??_floorf
  5850     08B9  084B               	movf	floorf@u+1,w
  5851     08BA  00BF               	movwf	??_floorf+1
  5852     08BB  084C               	movf	floorf@u+2,w
  5853     08BC  00C0               	movwf	??_floorf+2
  5854     08BD  084D               	movf	floorf@u+3,w
  5855     08BE  00C1               	movwf	??_floorf+3
  5856     08BF  301F               	movlw	31
  5857     08C0                     u4425:
  5858     08C0  1003               	clrc
  5859     08C1  0CC1               	rrf	??_floorf+3,f
  5860     08C2  0CC0               	rrf	??_floorf+2,f
  5861     08C3  0CBF               	rrf	??_floorf+1,f
  5862     08C4  0CBE               	rrf	??_floorf,f
  5863     08C5                     u4420:
  5864     08C5  3EFF               	addlw	-1
  5865     08C6  1D03               	skipz
  5866     08C7  28C0               	goto	u4425
  5867     08C8  0841               	movf	??_floorf+3,w
  5868     08C9  0440               	iorwf	??_floorf+2,w
  5869     08CA  043F               	iorwf	??_floorf+1,w
  5870     08CB  043E               	iorwf	??_floorf,w
  5871     08CC  1903               	skipnz
  5872     08CD  28CF               	goto	u4431
  5873     08CE  28D0               	goto	u4430
  5874     08CF                     u4431:
  5875     08CF  28E7               	goto	l3194
  5876     08D0                     u4430:
  5877     08D0                     l3192:
  5878     08D0  0844               	movf	floorf@m,w
  5879     08D1  07CA               	addwf	floorf@u,f
  5880     08D2  0845               	movf	floorf@m+1,w
  5881     08D3  1103               	clrz
  5882     08D4  1803               	skipnc
  5883     08D5  3E01               	addlw	1
  5884     08D6  1903               	skipnz
  5885     08D7  28D9               	goto	u4441
  5886     08D8  07CB               	addwf	floorf@u+1,f
  5887     08D9                     u4441:
  5888     08D9  0846               	movf	floorf@m+2,w
  5889     08DA  1103               	clrz
  5890     08DB  1803               	skipnc
  5891     08DC  3E01               	addlw	1
  5892     08DD  1903               	skipnz
  5893     08DE  28E0               	goto	u4442
  5894     08DF  07CC               	addwf	floorf@u+2,f
  5895     08E0                     u4442:
  5896     08E0  0847               	movf	floorf@m+3,w
  5897     08E1  1103               	clrz
  5898     08E2  1803               	skipnc
  5899     08E3  3E01               	addlw	1
  5900     08E4  1903               	skipnz
  5901     08E5  28E7               	goto	u4443
  5902     08E6  07CD               	addwf	floorf@u+3,f
  5903     08E7                     u4443:
  5904     08E7                     l3194:
  5905     08E7  0944               	comf	floorf@m,w
  5906     08E8  00BE               	movwf	??_floorf
  5907     08E9  0945               	comf	floorf@m+1,w
  5908     08EA  00BF               	movwf	??_floorf+1
  5909     08EB  0946               	comf	floorf@m+2,w
  5910     08EC  00C0               	movwf	??_floorf+2
  5911     08ED  0947               	comf	floorf@m+3,w
  5912     08EE  00C1               	movwf	??_floorf+3
  5913     08EF  083E               	movf	??_floorf,w
  5914     08F0  05CA               	andwf	floorf@u,f
  5915     08F1  083F               	movf	??_floorf+1,w
  5916     08F2  05CB               	andwf	floorf@u+1,f
  5917     08F3  0840               	movf	??_floorf+2,w
  5918     08F4  05CC               	andwf	floorf@u+2,f
  5919     08F5  0841               	movf	??_floorf+3,w
  5920     08F6  05CD               	andwf	floorf@u+3,f
  5921     08F7  293B               	goto	l934
  5922     08F8                     l3196:
  5923     08F8  084A               	movf	floorf@u,w
  5924     08F9  00BE               	movwf	??_floorf
  5925     08FA  084B               	movf	floorf@u+1,w
  5926     08FB  00BF               	movwf	??_floorf+1
  5927     08FC  084C               	movf	floorf@u+2,w
  5928     08FD  00C0               	movwf	??_floorf+2
  5929     08FE  084D               	movf	floorf@u+3,w
  5930     08FF  00C1               	movwf	??_floorf+3
  5931     0900  301F               	movlw	31
  5932     0901                     u4455:
  5933     0901  1003               	clrc
  5934     0902  0CC1               	rrf	??_floorf+3,f
  5935     0903  0CC0               	rrf	??_floorf+2,f
  5936     0904  0CBF               	rrf	??_floorf+1,f
  5937     0905  0CBE               	rrf	??_floorf,f
  5938     0906                     u4450:
  5939     0906  3EFF               	addlw	-1
  5940     0907  1D03               	skipz
  5941     0908  2901               	goto	u4455
  5942     0909  0841               	movf	??_floorf+3,w
  5943     090A  0440               	iorwf	??_floorf+2,w
  5944     090B  043F               	iorwf	??_floorf+1,w
  5945     090C  043E               	iorwf	??_floorf,w
  5946     090D  1D03               	skipz
  5947     090E  2910               	goto	u4461
  5948     090F  2911               	goto	u4460
  5949     0910                     u4461:
  5950     0910  291A               	goto	l3200
  5951     0911                     u4460:
  5952     0911                     l3198:
  5953     0911  3000               	movlw	0
  5954     0912  00CD               	movwf	floorf@u+3
  5955     0913  3000               	movlw	0
  5956     0914  00CC               	movwf	floorf@u+2
  5957     0915  3000               	movlw	0
  5958     0916  00CB               	movwf	floorf@u+1
  5959     0917  3000               	movlw	0
  5960     0918  00CA               	movwf	floorf@u
  5961     0919  293B               	goto	l934
  5962     091A                     l3200:
  5963     091A  084A               	movf	floorf@u,w
  5964     091B  00BE               	movwf	??_floorf
  5965     091C  084B               	movf	floorf@u+1,w
  5966     091D  00BF               	movwf	??_floorf+1
  5967     091E  084C               	movf	floorf@u+2,w
  5968     091F  00C0               	movwf	??_floorf+2
  5969     0920  084D               	movf	floorf@u+3,w
  5970     0921  00C1               	movwf	??_floorf+3
  5971     0922  3001               	movlw	1
  5972     0923                     u4475:
  5973     0923  1003               	clrc
  5974     0924  0DBE               	rlf	??_floorf,f
  5975     0925  0DBF               	rlf	??_floorf+1,f
  5976     0926  0DC0               	rlf	??_floorf+2,f
  5977     0927  0DC1               	rlf	??_floorf+3,f
  5978     0928                     u4470:
  5979     0928  3EFF               	addlw	-1
  5980     0929  1D03               	skipz
  5981     092A  2923               	goto	u4475
  5982     092B  0841               	movf	??_floorf+3,w
  5983     092C  0440               	iorwf	??_floorf+2,w
  5984     092D  043F               	iorwf	??_floorf+1,w
  5985     092E  043E               	iorwf	??_floorf,w
  5986     092F  1903               	skipnz
  5987     0930  2932               	goto	u4481
  5988     0931  2933               	goto	u4480
  5989     0932                     u4481:
  5990     0932  293B               	goto	l934
  5991     0933                     u4480:
  5992     0933                     l3202:
  5993     0933  30BF               	movlw	191
  5994     0934  00CD               	movwf	floorf@u+3
  5995     0935  3080               	movlw	128
  5996     0936  00CC               	movwf	floorf@u+2
  5997     0937  3000               	movlw	0
  5998     0938  00CB               	movwf	floorf@u+1
  5999     0939  3000               	movlw	0
  6000     093A  00CA               	movwf	floorf@u
  6001     093B                     l934:
  6002     093B  084D               	movf	floorf@u+3,w
  6003     093C  00BD               	movwf	?_floorf+3
  6004     093D  084C               	movf	floorf@u+2,w
  6005     093E  00BC               	movwf	?_floorf+2
  6006     093F  084B               	movf	floorf@u+1,w
  6007     0940  00BB               	movwf	?_floorf+1
  6008     0941  084A               	movf	floorf@u,w
  6009     0942  00BA               	movwf	?_floorf
  6010     0943                     l930:
  6011     0943  0008               	return
  6012     0944                     __end_of_floorf:
  6013                           
  6014                           	psect	text19
  6015     1EDA                     __ptext19:	
  6016 ;; *************** function ___fpclassifyf *****************
  6017 ;; Defined at:
  6018 ;;		line 4 in file "/opt/microchip/xc8/v3.10/pic/sources/c99/common/__fpclassifyf.c"
  6019 ;; Parameters:    Size  Location     Type
  6020 ;;  x               4    0[BANK0 ] float 
  6021 ;; Auto vars:     Size  Location     Type
  6022 ;;  u               4   12[BANK0 ] struct .
  6023 ;;  e               2   10[BANK0 ] int 
  6024 ;; Return value:  Size  Location     Type
  6025 ;;                  2    0[BANK0 ] int 
  6026 ;; Registers used:
  6027 ;;		wreg, status,2, status,0
  6028 ;; Tracked objects:
  6029 ;;		On entry : 0/0
  6030 ;;		On exit  : 0/0
  6031 ;;		Unchanged: 0/0
  6032 ;; Data sizes:     COMMON   BANK0   BANK1   BANK3   BANK2
  6033 ;;      Params:         0       4       0       0       0
  6034 ;;      Locals:         0       6       0       0       0
  6035 ;;      Temps:          0       6       0       0       0
  6036 ;;      Totals:         0      16       0       0       0
  6037 ;;Total ram usage:       16 bytes
  6038 ;; Hardware stack levels used: 1
  6039 ;; Hardware stack levels required when called: 1
  6040 ;; This function calls:
  6041 ;;		Nothing
  6042 ;; This function is called by:
  6043 ;;		_efgtoa
  6044 ;; This function uses a non-reentrant model
  6045 ;;
  6046                           
  6047     1EDA                     ___fpclassifyf:	
  6048                           ;psect for function ___fpclassifyf
  6049                           
  6050     1EDA                     l3140:	
  6051                           ;incstack = 0
  6052                           ; Regs used in ___fpclassifyf: [wreg+status,2+status,0]
  6053                           
  6054     1EDA  1683               	bsf	3,5	;RP0=1, select bank3
  6055     1EDB  1703               	bsf	3,6	;RP1=1, select bank3
  6056     1EDC  083B               	movf	(___fpclassifyf@F465+3)^(0+384),w
  6057     1EDD  1283               	bcf	3,5	;RP0=0, select bank0
  6058     1EDE  1303               	bcf	3,6	;RP1=0, select bank0
  6059     1EDF  00AF               	movwf	___fpclassifyf@u+3
  6060     1EE0  1683               	bsf	3,5	;RP0=1, select bank3
  6061     1EE1  1703               	bsf	3,6	;RP1=1, select bank3
  6062     1EE2  083A               	movf	(___fpclassifyf@F465+2)^(0+384),w
  6063     1EE3  1283               	bcf	3,5	;RP0=0, select bank0
  6064     1EE4  1303               	bcf	3,6	;RP1=0, select bank0
  6065     1EE5  00AE               	movwf	___fpclassifyf@u+2
  6066     1EE6  1683               	bsf	3,5	;RP0=1, select bank3
  6067     1EE7  1703               	bsf	3,6	;RP1=1, select bank3
  6068     1EE8  0839               	movf	(___fpclassifyf@F465+1)^(0+384),w
  6069     1EE9  1283               	bcf	3,5	;RP0=0, select bank0
  6070     1EEA  1303               	bcf	3,6	;RP1=0, select bank0
  6071     1EEB  00AD               	movwf	___fpclassifyf@u+1
  6072     1EEC  1683               	bsf	3,5	;RP0=1, select bank3
  6073     1EED  1703               	bsf	3,6	;RP1=1, select bank3
  6074     1EEE  0838               	movf	___fpclassifyf@F465^(0+384),w
  6075     1EEF  1283               	bcf	3,5	;RP0=0, select bank0
  6076     1EF0  1303               	bcf	3,6	;RP1=0, select bank0
  6077     1EF1  00AC               	movwf	___fpclassifyf@u
  6078     1EF2  0823               	movf	___fpclassifyf@x+3,w
  6079     1EF3  00AF               	movwf	___fpclassifyf@u+3
  6080     1EF4  0822               	movf	___fpclassifyf@x+2,w
  6081     1EF5  00AE               	movwf	___fpclassifyf@u+2
  6082     1EF6  0821               	movf	___fpclassifyf@x+1,w
  6083     1EF7  00AD               	movwf	___fpclassifyf@u+1
  6084     1EF8  0820               	movf	___fpclassifyf@x,w
  6085     1EF9  00AC               	movwf	___fpclassifyf@u
  6086     1EFA                     l3142:
  6087     1EFA  082C               	movf	___fpclassifyf@u,w
  6088     1EFB  00A4               	movwf	??___fpclassifyf
  6089     1EFC  082D               	movf	___fpclassifyf@u+1,w
  6090     1EFD  00A5               	movwf	??___fpclassifyf+1
  6091     1EFE  082E               	movf	___fpclassifyf@u+2,w
  6092     1EFF  00A6               	movwf	??___fpclassifyf+2
  6093     1F00  082F               	movf	___fpclassifyf@u+3,w
  6094     1F01  00A7               	movwf	??___fpclassifyf+3
  6095     1F02  3017               	movlw	23
  6096     1F03                     u4275:
  6097     1F03  1003               	clrc
  6098     1F04  0CA7               	rrf	??___fpclassifyf+3,f
  6099     1F05  0CA6               	rrf	??___fpclassifyf+2,f
  6100     1F06  0CA5               	rrf	??___fpclassifyf+1,f
  6101     1F07  0CA4               	rrf	??___fpclassifyf,f
  6102     1F08                     u4270:
  6103     1F08  3EFF               	addlw	-1
  6104     1F09  1D03               	skipz
  6105     1F0A  2F03               	goto	u4275
  6106     1F0B  30FF               	movlw	255
  6107     1F0C  0524               	andwf	??___fpclassifyf,w
  6108     1F0D  00AA               	movwf	___fpclassifyf@e
  6109     1F0E  3000               	movlw	0
  6110     1F0F  0525               	andwf	??___fpclassifyf+1,w
  6111     1F10  00AB               	movwf	___fpclassifyf@e+1
  6112     1F11                     l3144:
  6113     1F11  082A               	movf	___fpclassifyf@e,w
  6114     1F12  042B               	iorwf	___fpclassifyf@e+1,w
  6115     1F13  1D03               	btfss	3,2
  6116     1F14  2F16               	goto	u4281
  6117     1F15  2F17               	goto	u4280
  6118     1F16                     u4281:
  6119     1F16  2F3A               	goto	l3154
  6120     1F17                     u4280:
  6121     1F17                     l3146:
  6122     1F17  082C               	movf	___fpclassifyf@u,w
  6123     1F18  00A4               	movwf	??___fpclassifyf
  6124     1F19  082D               	movf	___fpclassifyf@u+1,w
  6125     1F1A  00A5               	movwf	??___fpclassifyf+1
  6126     1F1B  082E               	movf	___fpclassifyf@u+2,w
  6127     1F1C  00A6               	movwf	??___fpclassifyf+2
  6128     1F1D  082F               	movf	___fpclassifyf@u+3,w
  6129     1F1E  00A7               	movwf	??___fpclassifyf+3
  6130     1F1F  3001               	movlw	1
  6131     1F20                     u4295:
  6132     1F20  1003               	clrc
  6133     1F21  0DA4               	rlf	??___fpclassifyf,f
  6134     1F22  0DA5               	rlf	??___fpclassifyf+1,f
  6135     1F23  0DA6               	rlf	??___fpclassifyf+2,f
  6136     1F24  0DA7               	rlf	??___fpclassifyf+3,f
  6137     1F25                     u4290:
  6138     1F25  3EFF               	addlw	-1
  6139     1F26  1D03               	skipz
  6140     1F27  2F20               	goto	u4295
  6141     1F28  0827               	movf	??___fpclassifyf+3,w
  6142     1F29  0426               	iorwf	??___fpclassifyf+2,w
  6143     1F2A  0425               	iorwf	??___fpclassifyf+1,w
  6144     1F2B  0424               	iorwf	??___fpclassifyf,w
  6145     1F2C  1D03               	skipz
  6146     1F2D  2F2F               	goto	u4301
  6147     1F2E  2F30               	goto	u4300
  6148     1F2F                     u4301:
  6149     1F2F  2F35               	goto	l3150
  6150     1F30                     u4300:
  6151     1F30                     l3148:
  6152     1F30  3002               	movlw	2
  6153     1F31  00A0               	movwf	?___fpclassifyf
  6154     1F32  3000               	movlw	0
  6155     1F33  00A1               	movwf	?___fpclassifyf+1
  6156     1F34  2F66               	goto	l916
  6157     1F35                     l3150:
  6158     1F35  3003               	movlw	3
  6159     1F36  00A0               	movwf	?___fpclassifyf
  6160     1F37  3000               	movlw	0
  6161     1F38  00A1               	movwf	?___fpclassifyf+1
  6162     1F39  2F66               	goto	l916
  6163     1F3A                     l3154:
  6164     1F3A  0A2A               	incf	___fpclassifyf@e,w
  6165     1F3B  042B               	iorwf	___fpclassifyf@e+1,w
  6166     1F3C  1D03               	btfss	3,2
  6167     1F3D  2F3F               	goto	u4311
  6168     1F3E  2F40               	goto	u4310
  6169     1F3F                     u4311:
  6170     1F3F  2F62               	goto	l3160
  6171     1F40                     u4310:
  6172     1F40                     l3156:
  6173     1F40  082C               	movf	___fpclassifyf@u,w
  6174     1F41  00A4               	movwf	??___fpclassifyf
  6175     1F42  082D               	movf	___fpclassifyf@u+1,w
  6176     1F43  00A5               	movwf	??___fpclassifyf+1
  6177     1F44  082E               	movf	___fpclassifyf@u+2,w
  6178     1F45  00A6               	movwf	??___fpclassifyf+2
  6179     1F46  082F               	movf	___fpclassifyf@u+3,w
  6180     1F47  00A7               	movwf	??___fpclassifyf+3
  6181     1F48  3009               	movlw	9
  6182     1F49                     u4325:
  6183     1F49  1003               	clrc
  6184     1F4A  0DA4               	rlf	??___fpclassifyf,f
  6185     1F4B  0DA5               	rlf	??___fpclassifyf+1,f
  6186     1F4C  0DA6               	rlf	??___fpclassifyf+2,f
  6187     1F4D  0DA7               	rlf	??___fpclassifyf+3,f
  6188     1F4E                     u4320:
  6189     1F4E  3EFF               	addlw	-1
  6190     1F4F  1D03               	skipz
  6191     1F50  2F49               	goto	u4325
  6192     1F51  0827               	movf	??___fpclassifyf+3,w
  6193     1F52  0426               	iorwf	??___fpclassifyf+2,w
  6194     1F53  0425               	iorwf	??___fpclassifyf+1,w
  6195     1F54  0424               	iorwf	??___fpclassifyf,w
  6196     1F55  1903               	skipnz
  6197     1F56  2F58               	goto	u4331
  6198     1F57  2F5A               	goto	u4330
  6199     1F58                     u4331:
  6200     1F58  3001               	movlw	1
  6201     1F59  2F5B               	goto	u4340
  6202     1F5A                     u4330:
  6203     1F5A  3000               	movlw	0
  6204     1F5B                     u4340:
  6205     1F5B  00A8               	movwf	??___fpclassifyf+4
  6206     1F5C  01A9               	clrf	??___fpclassifyf+5
  6207     1F5D  0828               	movf	??___fpclassifyf+4,w
  6208     1F5E  00A0               	movwf	?___fpclassifyf
  6209     1F5F  0829               	movf	??___fpclassifyf+5,w
  6210     1F60  00A1               	movwf	?___fpclassifyf+1
  6211     1F61  2F66               	goto	l916
  6212     1F62                     l3160:
  6213     1F62  3004               	movlw	4
  6214     1F63  00A0               	movwf	?___fpclassifyf
  6215     1F64  3000               	movlw	0
  6216     1F65  00A1               	movwf	?___fpclassifyf+1
  6217     1F66                     l916:
  6218     1F66  0008               	return
  6219     1F67                     __end_of___fpclassifyf:
  6220                           
  6221                           	psect	text20
  6222     1A1E                     __ptext20:	
  6223 ;; *************** function ___flsub *****************
  6224 ;; Defined at:
  6225 ;;		line 242 in file "/opt/microchip/xc8/v3.10/pic/sources/c99/common/sprcadd.c"
  6226 ;; Parameters:    Size  Location     Type
  6227 ;;  a               4   40[BANK0 ] int 
  6228 ;;  b               4   44[BANK0 ] int 
  6229 ;; Auto vars:     Size  Location     Type
  6230 ;;		None
  6231 ;; Return value:  Size  Location     Type
  6232 ;;                  4   40[BANK0 ] int 
  6233 ;; Registers used:
  6234 ;;		wreg, status,2, status,0, pclath, btemp1, cstack
  6235 ;; Tracked objects:
  6236 ;;		On entry : 0/0
  6237 ;;		On exit  : 0/0
  6238 ;;		Unchanged: 0/0
  6239 ;; Data sizes:     COMMON   BANK0   BANK1   BANK3   BANK2
  6240 ;;      Params:         0       8       0       0       0
  6241 ;;      Locals:         0       0       0       0       0
  6242 ;;      Temps:          0       0       0       0       0
  6243 ;;      Totals:         0       8       0       0       0
  6244 ;;Total ram usage:        8 bytes
  6245 ;; Hardware stack levels used: 1
  6246 ;; Hardware stack levels required when called: 2
  6247 ;; This function calls:
  6248 ;;		___fladd
  6249 ;; This function is called by:
  6250 ;;		_efgtoa
  6251 ;; This function uses a non-reentrant model
  6252 ;;
  6253                           
  6254     1A1E                     ___flsub:	
  6255                           ;psect for function ___flsub
  6256                           
  6257     1A1E                     l2836:	
  6258                           ;incstack = 0
  6259                           ; Regs used in ___flsub: [wreg+status,2+status,0+pclath+btemp1+cstack]
  6260                           
  6261     1A1E  3080               	movlw	128
  6262     1A1F  1283               	bcf	3,5	;RP0=0, select bank0
  6263     1A20  1303               	bcf	3,6	;RP1=0, select bank0
  6264     1A21  06CB               	xorwf	___flsub@a+3,f
  6265     1A22                     l2838:
  6266     1A22  084F               	movf	___flsub@b+3,w
  6267     1A23  00A3               	movwf	___fladd@b+3
  6268     1A24  084E               	movf	___flsub@b+2,w
  6269     1A25  00A2               	movwf	___fladd@b+2
  6270     1A26  084D               	movf	___flsub@b+1,w
  6271     1A27  00A1               	movwf	___fladd@b+1
  6272     1A28  084C               	movf	___flsub@b,w
  6273     1A29  00A0               	movwf	___fladd@b
  6274     1A2A  084B               	movf	___flsub@a+3,w
  6275     1A2B  00A7               	movwf	___fladd@a+3
  6276     1A2C  084A               	movf	___flsub@a+2,w
  6277     1A2D  00A6               	movwf	___fladd@a+2
  6278     1A2E  0849               	movf	___flsub@a+1,w
  6279     1A2F  00A5               	movwf	___fladd@a+1
  6280     1A30  0848               	movf	___flsub@a,w
  6281     1A31  00A4               	movwf	___fladd@a
  6282     1A32  160A  118A  232A  160A  158A  	fcall	___fladd
  6283     1A37  1283               	bcf	3,5	;RP0=0, select bank0
  6284     1A38  1303               	bcf	3,6	;RP1=0, select bank0
  6285     1A39  0823               	movf	?___fladd+3,w
  6286     1A3A  00CB               	movwf	?___flsub+3
  6287     1A3B  0822               	movf	?___fladd+2,w
  6288     1A3C  00CA               	movwf	?___flsub+2
  6289     1A3D  0821               	movf	?___fladd+1,w
  6290     1A3E  00C9               	movwf	?___flsub+1
  6291     1A3F  0820               	movf	?___fladd,w
  6292     1A40  00C8               	movwf	?___flsub
  6293     1A41                     l668:
  6294     1A41  0008               	return
  6295     1A42                     __end_of___flsub:
  6296                           
  6297                           	psect	text21
  6298     132A                     __ptext21:	
  6299 ;; *************** function ___fladd *****************
  6300 ;; Defined at:
  6301 ;;		line 10 in file "/opt/microchip/xc8/v3.10/pic/sources/c99/common/sprcadd.c"
  6302 ;; Parameters:    Size  Location     Type
  6303 ;;  b               4    0[BANK0 ] int 
  6304 ;;  a               4    4[BANK0 ] int 
  6305 ;; Auto vars:     Size  Location     Type
  6306 ;;  grs             1   19[BANK0 ] unsigned char 
  6307 ;;  bexp            1   18[BANK0 ] unsigned char 
  6308 ;;  aexp            1   17[BANK0 ] unsigned char 
  6309 ;;  signs           1   16[BANK0 ] unsigned char 
  6310 ;; Return value:  Size  Location     Type
  6311 ;;                  4    0[BANK0 ] unsigned char 
  6312 ;; Registers used:
  6313 ;;		wreg, status,2, status,0, btemp1
  6314 ;; Tracked objects:
  6315 ;;		On entry : 0/0
  6316 ;;		On exit  : 0/0
  6317 ;;		Unchanged: 0/0
  6318 ;; Data sizes:     COMMON   BANK0   BANK1   BANK3   BANK2
  6319 ;;      Params:         0       8       0       0       0
  6320 ;;      Locals:         0       4       0       0       0
  6321 ;;      Temps:          0       8       0       0       0
  6322 ;;      Totals:         0      20       0       0       0
  6323 ;;Total ram usage:       20 bytes
  6324 ;; Hardware stack levels used: 1
  6325 ;; Hardware stack levels required when called: 1
  6326 ;; This function calls:
  6327 ;;		Nothing
  6328 ;; This function is called by:
  6329 ;;		___flsub
  6330 ;;		_efgtoa
  6331 ;; This function uses a non-reentrant model
  6332 ;;
  6333                           
  6334     132A                     ___fladd:	
  6335                           ;psect for function ___fladd
  6336                           
  6337     132A                     l2540:	
  6338                           ;incstack = 0
  6339                           ; Regs used in ___fladd: [wreg+status,2+status,0+btemp1]
  6340                           
  6341     132A  1283               	bcf	3,5	;RP0=0, select bank0
  6342     132B  1303               	bcf	3,6	;RP1=0, select bank0
  6343     132C  0823               	movf	___fladd@b+3,w
  6344     132D  00B0               	movwf	___fladd@signs
  6345     132E                     l2542:
  6346     132E  3080               	movlw	128
  6347     132F  05B0               	andwf	___fladd@signs,f
  6348     1330                     l2544:
  6349     1330  0823               	movf	___fladd@b+3,w
  6350     1331  00A8               	movwf	??___fladd
  6351     1332  0728               	addwf	??___fladd,w
  6352     1333  00B2               	movwf	___fladd@bexp
  6353     1334                     l2546:
  6354     1334  1FA2               	btfss	___fladd@b+2,7
  6355     1335  2B37               	goto	u2881
  6356     1336  2B38               	goto	u2880
  6357     1337                     u2881:
  6358     1337  2B39               	goto	l2550
  6359     1338                     u2880:
  6360     1338                     l2548:
  6361     1338  1432               	bsf	___fladd@bexp,0
  6362     1339                     l2550:
  6363     1339  0832               	movf	___fladd@bexp,w
  6364     133A  1903               	btfsc	3,2
  6365     133B  2B3D               	goto	u2891
  6366     133C  2B3E               	goto	u2890
  6367     133D                     u2891:
  6368     133D  2B4E               	goto	l2560
  6369     133E                     u2890:
  6370     133E                     l2552:
  6371     133E  0A32               	incf	___fladd@bexp,w
  6372     133F  1D03               	btfss	3,2
  6373     1340  2B42               	goto	u2901
  6374     1341  2B43               	goto	u2900
  6375     1342                     u2901:
  6376     1342  2B4B               	goto	l2556
  6377     1343                     u2900:
  6378     1343                     l2554:
  6379     1343  3000               	movlw	0
  6380     1344  00A3               	movwf	___fladd@b+3
  6381     1345  3000               	movlw	0
  6382     1346  00A2               	movwf	___fladd@b+2
  6383     1347  3000               	movlw	0
  6384     1348  00A1               	movwf	___fladd@b+1
  6385     1349  3000               	movlw	0
  6386     134A  00A0               	movwf	___fladd@b
  6387     134B                     l2556:
  6388     134B  17A2               	bsf	___fladd@b+2,7
  6389     134C                     l2558:
  6390     134C  01A3               	clrf	___fladd@b+3
  6391     134D  2B56               	goto	l617
  6392     134E                     l2560:
  6393     134E  3000               	movlw	0
  6394     134F  00A3               	movwf	___fladd@b+3
  6395     1350  3000               	movlw	0
  6396     1351  00A2               	movwf	___fladd@b+2
  6397     1352  3000               	movlw	0
  6398     1353  00A1               	movwf	___fladd@b+1
  6399     1354  3000               	movlw	0
  6400     1355  00A0               	movwf	___fladd@b
  6401     1356                     l617:
  6402     1356  0827               	movf	___fladd@a+3,w
  6403     1357  00B1               	movwf	___fladd@aexp
  6404     1358                     l2562:
  6405     1358  3080               	movlw	128
  6406     1359  05B1               	andwf	___fladd@aexp,f
  6407     135A                     l2564:
  6408     135A  0831               	movf	___fladd@aexp,w
  6409     135B  0630               	xorwf	___fladd@signs,w
  6410     135C  1903               	skipnz
  6411     135D  2B5F               	goto	u2911
  6412     135E  2B60               	goto	u2910
  6413     135F                     u2911:
  6414     135F  2B61               	goto	l2568
  6415     1360                     u2910:
  6416     1360                     l2566:
  6417     1360  1730               	bsf	___fladd@signs,6
  6418     1361                     l2568:
  6419     1361  0827               	movf	___fladd@a+3,w
  6420     1362  00A8               	movwf	??___fladd
  6421     1363  0728               	addwf	??___fladd,w
  6422     1364  00B1               	movwf	___fladd@aexp
  6423     1365                     l2570:
  6424     1365  1FA6               	btfss	___fladd@a+2,7
  6425     1366  2B68               	goto	u2921
  6426     1367  2B69               	goto	u2920
  6427     1368                     u2921:
  6428     1368  2B6A               	goto	l2574
  6429     1369                     u2920:
  6430     1369                     l2572:
  6431     1369  1431               	bsf	___fladd@aexp,0
  6432     136A                     l2574:
  6433     136A  0831               	movf	___fladd@aexp,w
  6434     136B  1903               	btfsc	3,2
  6435     136C  2B6E               	goto	u2931
  6436     136D  2B6F               	goto	u2930
  6437     136E                     u2931:
  6438     136E  2B7F               	goto	l2584
  6439     136F                     u2930:
  6440     136F                     l2576:
  6441     136F  0A31               	incf	___fladd@aexp,w
  6442     1370  1D03               	btfss	3,2
  6443     1371  2B73               	goto	u2941
  6444     1372  2B74               	goto	u2940
  6445     1373                     u2941:
  6446     1373  2B7C               	goto	l2580
  6447     1374                     u2940:
  6448     1374                     l2578:
  6449     1374  3000               	movlw	0
  6450     1375  00A7               	movwf	___fladd@a+3
  6451     1376  3000               	movlw	0
  6452     1377  00A6               	movwf	___fladd@a+2
  6453     1378  3000               	movlw	0
  6454     1379  00A5               	movwf	___fladd@a+1
  6455     137A  3000               	movlw	0
  6456     137B  00A4               	movwf	___fladd@a
  6457     137C                     l2580:
  6458     137C  17A6               	bsf	___fladd@a+2,7
  6459     137D                     l2582:
  6460     137D  01A7               	clrf	___fladd@a+3
  6461     137E  2B87               	goto	l622
  6462     137F                     l2584:
  6463     137F  3000               	movlw	0
  6464     1380  00A7               	movwf	___fladd@a+3
  6465     1381  3000               	movlw	0
  6466     1382  00A6               	movwf	___fladd@a+2
  6467     1383  3000               	movlw	0
  6468     1384  00A5               	movwf	___fladd@a+1
  6469     1385  3000               	movlw	0
  6470     1386  00A4               	movwf	___fladd@a
  6471     1387                     l622:
  6472     1387  0832               	movf	___fladd@bexp,w
  6473     1388  0231               	subwf	___fladd@aexp,w
  6474     1389  1803               	skipnc
  6475     138A  2B8C               	goto	u2951
  6476     138B  2B8D               	goto	u2950
  6477     138C                     u2951:
  6478     138C  2BB1               	goto	l2620
  6479     138D                     u2950:
  6480     138D                     l2586:
  6481     138D  1F30               	btfss	___fladd@signs,6
  6482     138E  2B90               	goto	u2961
  6483     138F  2B91               	goto	u2960
  6484     1390                     u2961:
  6485     1390  2B93               	goto	l2590
  6486     1391                     u2960:
  6487     1391                     l2588:
  6488     1391  3080               	movlw	128
  6489     1392  06B0               	xorwf	___fladd@signs,f
  6490     1393                     l2590:
  6491     1393  0832               	movf	___fladd@bexp,w
  6492     1394  00B3               	movwf	___fladd@grs
  6493     1395                     l2592:
  6494     1395  0831               	movf	___fladd@aexp,w
  6495     1396  00B2               	movwf	___fladd@bexp
  6496     1397                     l2594:
  6497     1397  0833               	movf	___fladd@grs,w
  6498     1398  00B1               	movwf	___fladd@aexp
  6499     1399                     l2596:
  6500     1399  0820               	movf	___fladd@b,w
  6501     139A  00B3               	movwf	___fladd@grs
  6502     139B                     l2598:
  6503     139B  0824               	movf	___fladd@a,w
  6504     139C  00A0               	movwf	___fladd@b
  6505     139D                     l2600:
  6506     139D  0833               	movf	___fladd@grs,w
  6507     139E  00A4               	movwf	___fladd@a
  6508     139F                     l2602:
  6509     139F  0821               	movf	___fladd@b+1,w
  6510     13A0  00B3               	movwf	___fladd@grs
  6511     13A1                     l2604:
  6512     13A1  0825               	movf	___fladd@a+1,w
  6513     13A2  00A1               	movwf	___fladd@b+1
  6514     13A3                     l2606:
  6515     13A3  0833               	movf	___fladd@grs,w
  6516     13A4  00A5               	movwf	___fladd@a+1
  6517     13A5                     l2608:
  6518     13A5  0822               	movf	___fladd@b+2,w
  6519     13A6  00B3               	movwf	___fladd@grs
  6520     13A7                     l2610:
  6521     13A7  0826               	movf	___fladd@a+2,w
  6522     13A8  00A2               	movwf	___fladd@b+2
  6523     13A9                     l2612:
  6524     13A9  0833               	movf	___fladd@grs,w
  6525     13AA  00A6               	movwf	___fladd@a+2
  6526     13AB                     l2614:
  6527     13AB  0823               	movf	___fladd@b+3,w
  6528     13AC  00B3               	movwf	___fladd@grs
  6529     13AD                     l2616:
  6530     13AD  0827               	movf	___fladd@a+3,w
  6531     13AE  00A3               	movwf	___fladd@b+3
  6532     13AF                     l2618:
  6533     13AF  0833               	movf	___fladd@grs,w
  6534     13B0  00A7               	movwf	___fladd@a+3
  6535     13B1                     l2620:
  6536     13B1  01B3               	clrf	___fladd@grs
  6537     13B2                     l2622:
  6538     13B2  0831               	movf	___fladd@aexp,w
  6539     13B3  00A8               	movwf	??___fladd
  6540     13B4  01A9               	clrf	??___fladd+1
  6541     13B5  0829               	movf	??___fladd+1,w
  6542     13B6  00AB               	movwf	??___fladd+3
  6543     13B7  0832               	movf	___fladd@bexp,w
  6544     13B8  0228               	subwf	??___fladd,w
  6545     13B9  00AA               	movwf	??___fladd+2
  6546     13BA  1C03               	skipc
  6547     13BB  03AB               	decf	??___fladd+3,f
  6548     13BC  082B               	movf	??___fladd+3,w
  6549     13BD  3A80               	xorlw	128
  6550     13BE  00FF               	movwf	btemp1
  6551     13BF  3080               	movlw	128
  6552     13C0  027F               	subwf	btemp1,w
  6553     13C1  1D03               	skipz
  6554     13C2  2BC5               	goto	u2975
  6555     13C3  301A               	movlw	26
  6556     13C4  022A               	subwf	??___fladd+2,w
  6557     13C5                     u2975:
  6558     13C5  1C03               	skipc
  6559     13C6  2BC8               	goto	u2971
  6560     13C7  2BC9               	goto	u2970
  6561     13C8                     u2971:
  6562     13C8  2BFE               	goto	l2638
  6563     13C9                     u2970:
  6564     13C9                     l2624:
  6565     13C9  1283               	bcf	3,5	;RP0=0, select bank0
  6566     13CA  1303               	bcf	3,6	;RP1=0, select bank0
  6567     13CB  0823               	movf	___fladd@b+3,w
  6568     13CC  0422               	iorwf	___fladd@b+2,w
  6569     13CD  0421               	iorwf	___fladd@b+1,w
  6570     13CE  0420               	iorwf	___fladd@b,w
  6571     13CF  1D03               	skipz
  6572     13D0  2BD2               	goto	u2981
  6573     13D1  2BD4               	goto	u2980
  6574     13D2                     u2981:
  6575     13D2  3001               	movlw	1
  6576     13D3  2BD5               	goto	u2990
  6577     13D4                     u2980:
  6578     13D4  3000               	movlw	0
  6579     13D5                     u2990:
  6580     13D5  00B3               	movwf	___fladd@grs
  6581     13D6  3000               	movlw	0
  6582     13D7  00A3               	movwf	___fladd@b+3
  6583     13D8  3000               	movlw	0
  6584     13D9  00A2               	movwf	___fladd@b+2
  6585     13DA  3000               	movlw	0
  6586     13DB  00A1               	movwf	___fladd@b+1
  6587     13DC  3000               	movlw	0
  6588     13DD  00A0               	movwf	___fladd@b
  6589     13DE  0831               	movf	___fladd@aexp,w
  6590     13DF  00B2               	movwf	___fladd@bexp
  6591     13E0  2C06               	goto	l626
  6592     13E1                     l628:
  6593     13E1  1C33               	btfss	___fladd@grs,0
  6594     13E2  2BE4               	goto	u3001
  6595     13E3  2BE5               	goto	u3000
  6596     13E4                     u3001:
  6597     13E4  2BEC               	goto	l2628
  6598     13E5                     u3000:
  6599     13E5                     l2626:
  6600     13E5  0833               	movf	___fladd@grs,w
  6601     13E6  00A8               	movwf	??___fladd
  6602     13E7  1003               	clrc
  6603     13E8  0C28               	rrf	??___fladd,w
  6604     13E9  3801               	iorlw	1
  6605     13EA  00B3               	movwf	___fladd@grs
  6606     13EB  2BEE               	goto	l2630
  6607     13EC                     l2628:
  6608     13EC  1003               	clrc
  6609     13ED  0CB3               	rrf	___fladd@grs,f
  6610     13EE                     l2630:
  6611     13EE  1C20               	btfss	___fladd@b,0
  6612     13EF  2BF1               	goto	u3011
  6613     13F0  2BF2               	goto	u3010
  6614     13F1                     u3011:
  6615     13F1  2BF3               	goto	l2634
  6616     13F2                     u3010:
  6617     13F2                     l2632:
  6618     13F2  17B3               	bsf	___fladd@grs,7
  6619     13F3                     l2634:
  6620     13F3  3001               	movlw	1
  6621     13F4  00A8               	movwf	??___fladd
  6622     13F5                     u3025:
  6623     13F5  0D23               	rlf	___fladd@b+3,w
  6624     13F6  0CA3               	rrf	___fladd@b+3,f
  6625     13F7  0CA2               	rrf	___fladd@b+2,f
  6626     13F8  0CA1               	rrf	___fladd@b+1,f
  6627     13F9  0CA0               	rrf	___fladd@b,f
  6628     13FA  0BA8               	decfsz	??___fladd& (0+127),f
  6629     13FB  2BF5               	goto	u3025
  6630     13FC                     l2636:
  6631     13FC  3001               	movlw	1
  6632     13FD  07B2               	addwf	___fladd@bexp,f
  6633     13FE                     l2638:
  6634     13FE  1283               	bcf	3,5	;RP0=0, select bank0
  6635     13FF  1303               	bcf	3,6	;RP1=0, select bank0
  6636     1400  0831               	movf	___fladd@aexp,w
  6637     1401  0232               	subwf	___fladd@bexp,w
  6638     1402  1C03               	skipc
  6639     1403  2C05               	goto	u3031
  6640     1404  2C06               	goto	u3030
  6641     1405                     u3031:
  6642     1405  2BE1               	goto	l628
  6643     1406                     u3030:
  6644     1406                     l626:
  6645     1406  1B30               	btfsc	___fladd@signs,6
  6646     1407  2C09               	goto	u3041
  6647     1408  2C0A               	goto	u3040
  6648     1409                     u3041:
  6649     1409  2C51               	goto	l2664
  6650     140A                     u3040:
  6651     140A                     l2640:
  6652     140A  0832               	movf	___fladd@bexp,w
  6653     140B  1D03               	btfss	3,2
  6654     140C  2C0E               	goto	u3051
  6655     140D  2C0F               	goto	u3050
  6656     140E                     u3051:
  6657     140E  2C18               	goto	l2646
  6658     140F                     u3050:
  6659     140F                     l2642:
  6660     140F  3000               	movlw	0
  6661     1410  00A3               	movwf	?___fladd+3
  6662     1411  3000               	movlw	0
  6663     1412  00A2               	movwf	?___fladd+2
  6664     1413  3000               	movlw	0
  6665     1414  00A1               	movwf	?___fladd+1
  6666     1415  3000               	movlw	0
  6667     1416  00A0               	movwf	?___fladd
  6668     1417  2D79               	goto	l635
  6669     1418                     l2646:
  6670     1418  0824               	movf	___fladd@a,w
  6671     1419  07A0               	addwf	___fladd@b,f
  6672     141A  0825               	movf	___fladd@a+1,w
  6673     141B  1103               	clrz
  6674     141C  1803               	skipnc
  6675     141D  3E01               	addlw	1
  6676     141E  1903               	skipnz
  6677     141F  2C21               	goto	u3061
  6678     1420  07A1               	addwf	___fladd@b+1,f
  6679     1421                     u3061:
  6680     1421  0826               	movf	___fladd@a+2,w
  6681     1422  1103               	clrz
  6682     1423  1803               	skipnc
  6683     1424  3E01               	addlw	1
  6684     1425  1903               	skipnz
  6685     1426  2C28               	goto	u3062
  6686     1427  07A2               	addwf	___fladd@b+2,f
  6687     1428                     u3062:
  6688     1428  0827               	movf	___fladd@a+3,w
  6689     1429  1103               	clrz
  6690     142A  1803               	skipnc
  6691     142B  3E01               	addlw	1
  6692     142C  1903               	skipnz
  6693     142D  2C2F               	goto	u3063
  6694     142E  07A3               	addwf	___fladd@b+3,f
  6695     142F                     u3063:
  6696     142F                     l2648:
  6697     142F  1C23               	btfss	___fladd@b+3,0
  6698     1430  2C32               	goto	u3071
  6699     1431  2C33               	goto	u3070
  6700     1432                     u3071:
  6701     1432  2D05               	goto	l2700
  6702     1433                     u3070:
  6703     1433                     l2650:
  6704     1433  1C33               	btfss	___fladd@grs,0
  6705     1434  2C36               	goto	u3081
  6706     1435  2C37               	goto	u3080
  6707     1436                     u3081:
  6708     1436  2C3E               	goto	l2654
  6709     1437                     u3080:
  6710     1437                     l2652:
  6711     1437  0833               	movf	___fladd@grs,w
  6712     1438  00A8               	movwf	??___fladd
  6713     1439  1003               	clrc
  6714     143A  0C28               	rrf	??___fladd,w
  6715     143B  3801               	iorlw	1
  6716     143C  00B3               	movwf	___fladd@grs
  6717     143D  2C40               	goto	l2656
  6718     143E                     l2654:
  6719     143E  1003               	clrc
  6720     143F  0CB3               	rrf	___fladd@grs,f
  6721     1440                     l2656:
  6722     1440  1C20               	btfss	___fladd@b,0
  6723     1441  2C43               	goto	u3091
  6724     1442  2C44               	goto	u3090
  6725     1443                     u3091:
  6726     1443  2C45               	goto	l2660
  6727     1444                     u3090:
  6728     1444                     l2658:
  6729     1444  17B3               	bsf	___fladd@grs,7
  6730     1445                     l2660:
  6731     1445  3001               	movlw	1
  6732     1446  00A8               	movwf	??___fladd
  6733     1447                     u3105:
  6734     1447  0D23               	rlf	___fladd@b+3,w
  6735     1448  0CA3               	rrf	___fladd@b+3,f
  6736     1449  0CA2               	rrf	___fladd@b+2,f
  6737     144A  0CA1               	rrf	___fladd@b+1,f
  6738     144B  0CA0               	rrf	___fladd@b,f
  6739     144C  0BA8               	decfsz	??___fladd& (0+127),f
  6740     144D  2C47               	goto	u3105
  6741     144E                     l2662:
  6742     144E  3001               	movlw	1
  6743     144F  07B2               	addwf	___fladd@bexp,f
  6744     1450  2D05               	goto	l2700
  6745     1451                     l2664:
  6746     1451  0823               	movf	___fladd@b+3,w
  6747     1452  3A80               	xorlw	128
  6748     1453  00FF               	movwf	btemp1
  6749     1454  0827               	movf	___fladd@a+3,w
  6750     1455  3A80               	xorlw	128
  6751     1456  027F               	subwf	btemp1,w
  6752     1457  1D03               	skipz
  6753     1458  2C63               	goto	u3113
  6754     1459  0826               	movf	___fladd@a+2,w
  6755     145A  0222               	subwf	___fladd@b+2,w
  6756     145B  1D03               	skipz
  6757     145C  2C63               	goto	u3113
  6758     145D  0825               	movf	___fladd@a+1,w
  6759     145E  0221               	subwf	___fladd@b+1,w
  6760     145F  1D03               	skipz
  6761     1460  2C63               	goto	u3113
  6762     1461  0824               	movf	___fladd@a,w
  6763     1462  0220               	subwf	___fladd@b,w
  6764     1463                     u3113:
  6765     1463  1803               	skipnc
  6766     1464  2C66               	goto	u3111
  6767     1465  2C67               	goto	u3110
  6768     1466                     u3111:
  6769     1466  2CBE               	goto	l2676
  6770     1467                     u3110:
  6771     1467                     l2666:
  6772     1467  30FF               	movlw	255
  6773     1468  00A8               	movwf	??___fladd
  6774     1469  30FF               	movlw	255
  6775     146A  00A9               	movwf	??___fladd+1
  6776     146B  30FF               	movlw	255
  6777     146C  00AA               	movwf	??___fladd+2
  6778     146D  30FF               	movlw	255
  6779     146E  00AB               	movwf	??___fladd+3
  6780     146F  0824               	movf	___fladd@a,w
  6781     1470  00AC               	movwf	??___fladd+4
  6782     1471  0825               	movf	___fladd@a+1,w
  6783     1472  00AD               	movwf	??___fladd+5
  6784     1473  0826               	movf	___fladd@a+2,w
  6785     1474  00AE               	movwf	??___fladd+6
  6786     1475  0827               	movf	___fladd@a+3,w
  6787     1476  00AF               	movwf	??___fladd+7
  6788     1477  0820               	movf	___fladd@b,w
  6789     1478  02AC               	subwf	??___fladd+4,f
  6790     1479  0821               	movf	___fladd@b+1,w
  6791     147A  1C03               	skipc
  6792     147B  0F21               	incfsz	___fladd@b+1,w
  6793     147C  2C7E               	goto	u3121
  6794     147D  2C7F               	goto	u3122
  6795     147E                     u3121:
  6796     147E  02AD               	subwf	??___fladd+5,f
  6797     147F                     u3122:
  6798     147F  0822               	movf	___fladd@b+2,w
  6799     1480  1C03               	skipc
  6800     1481  0F22               	incfsz	___fladd@b+2,w
  6801     1482  2C84               	goto	u3123
  6802     1483  2C85               	goto	u3124
  6803     1484                     u3123:
  6804     1484  02AE               	subwf	??___fladd+6,f
  6805     1485                     u3124:
  6806     1485  0823               	movf	___fladd@b+3,w
  6807     1486  1C03               	skipc
  6808     1487  0F23               	incfsz	___fladd@b+3,w
  6809     1488  2C8A               	goto	u3125
  6810     1489  2C8B               	goto	u3126
  6811     148A                     u3125:
  6812     148A  02AF               	subwf	??___fladd+7,f
  6813     148B                     u3126:
  6814     148B  082C               	movf	??___fladd+4,w
  6815     148C  07A8               	addwf	??___fladd,f
  6816     148D  082D               	movf	??___fladd+5,w
  6817     148E  1803               	skipnc
  6818     148F  0F2D               	incfsz	??___fladd+5,w
  6819     1490  2C92               	goto	u3130
  6820     1491  2C93               	goto	u3131
  6821     1492                     u3130:
  6822     1492  07A9               	addwf	??___fladd+1,f
  6823     1493                     u3131:
  6824     1493  082E               	movf	??___fladd+6,w
  6825     1494  1803               	skipnc
  6826     1495  0F2E               	incfsz	??___fladd+6,w
  6827     1496  2C98               	goto	u3132
  6828     1497  2C99               	goto	u3133
  6829     1498                     u3132:
  6830     1498  07AA               	addwf	??___fladd+2,f
  6831     1499                     u3133:
  6832     1499  082F               	movf	??___fladd+7,w
  6833     149A  1803               	skipnc
  6834     149B  0A2F               	incf	??___fladd+7,w
  6835     149C  07AB               	addwf	??___fladd+3,f
  6836     149D  082B               	movf	??___fladd+3,w
  6837     149E  00A3               	movwf	___fladd@b+3
  6838     149F  082A               	movf	??___fladd+2,w
  6839     14A0  00A2               	movwf	___fladd@b+2
  6840     14A1  0829               	movf	??___fladd+1,w
  6841     14A2  00A1               	movwf	___fladd@b+1
  6842     14A3  0828               	movf	??___fladd,w
  6843     14A4  00A0               	movwf	___fladd@b
  6844     14A5                     l2668:
  6845     14A5  3080               	movlw	128
  6846     14A6  06B0               	xorwf	___fladd@signs,f
  6847     14A7                     l2670:
  6848     14A7  0333               	decf	___fladd@grs,w
  6849     14A8  3AFF               	xorlw	255
  6850     14A9  00B3               	movwf	___fladd@grs
  6851     14AA                     l2672:
  6852     14AA  0833               	movf	___fladd@grs,w
  6853     14AB  1D03               	btfss	3,2
  6854     14AC  2CAE               	goto	u3141
  6855     14AD  2CAF               	goto	u3140
  6856     14AE                     u3141:
  6857     14AE  2CCC               	goto	l643
  6858     14AF                     u3140:
  6859     14AF                     l2674:
  6860     14AF  3001               	movlw	1
  6861     14B0  07A0               	addwf	___fladd@b,f
  6862     14B1  3000               	movlw	0
  6863     14B2  1803               	skipnc
  6864     14B3  3001               	movlw	1
  6865     14B4  07A1               	addwf	___fladd@b+1,f
  6866     14B5  3000               	movlw	0
  6867     14B6  1803               	skipnc
  6868     14B7  3001               	movlw	1
  6869     14B8  07A2               	addwf	___fladd@b+2,f
  6870     14B9  3000               	movlw	0
  6871     14BA  1803               	skipnc
  6872     14BB  3001               	movlw	1
  6873     14BC  07A3               	addwf	___fladd@b+3,f
  6874     14BD  2CCC               	goto	l643
  6875     14BE                     l2676:
  6876     14BE  0824               	movf	___fladd@a,w
  6877     14BF  02A0               	subwf	___fladd@b,f
  6878     14C0  0825               	movf	___fladd@a+1,w
  6879     14C1  1C03               	skipc
  6880     14C2  0F25               	incfsz	___fladd@a+1,w
  6881     14C3  02A1               	subwf	___fladd@b+1,f
  6882     14C4  0826               	movf	___fladd@a+2,w
  6883     14C5  1C03               	skipc
  6884     14C6  0F26               	incfsz	___fladd@a+2,w
  6885     14C7  02A2               	subwf	___fladd@b+2,f
  6886     14C8  0827               	movf	___fladd@a+3,w
  6887     14C9  1C03               	skipc
  6888     14CA  0F27               	incfsz	___fladd@a+3,w
  6889     14CB  02A3               	subwf	___fladd@b+3,f
  6890     14CC                     l643:
  6891     14CC  0823               	movf	___fladd@b+3,w
  6892     14CD  0422               	iorwf	___fladd@b+2,w
  6893     14CE  0421               	iorwf	___fladd@b+1,w
  6894     14CF  0420               	iorwf	___fladd@b,w
  6895     14D0  1D03               	skipz
  6896     14D1  2CD3               	goto	u3151
  6897     14D2  2CD4               	goto	u3150
  6898     14D3                     u3151:
  6899     14D3  2D01               	goto	l2698
  6900     14D4                     u3150:
  6901     14D4                     l2678:
  6902     14D4  0833               	movf	___fladd@grs,w
  6903     14D5  1D03               	btfss	3,2
  6904     14D6  2CD8               	goto	u3161
  6905     14D7  2CD9               	goto	u3160
  6906     14D8                     u3161:
  6907     14D8  2D01               	goto	l2698
  6908     14D9                     u3160:
  6909     14D9                     l2680:
  6910     14D9  3000               	movlw	0
  6911     14DA  00A3               	movwf	?___fladd+3
  6912     14DB  3000               	movlw	0
  6913     14DC  00A2               	movwf	?___fladd+2
  6914     14DD  3000               	movlw	0
  6915     14DE  00A1               	movwf	?___fladd+1
  6916     14DF  3000               	movlw	0
  6917     14E0  00A0               	movwf	?___fladd
  6918     14E1  2D79               	goto	l635
  6919     14E2                     l2684:
  6920     14E2  3001               	movlw	1
  6921     14E3  00A8               	movwf	??___fladd
  6922     14E4                     u3175:
  6923     14E4  1003               	clrc
  6924     14E5  0DA0               	rlf	___fladd@b,f
  6925     14E6  0DA1               	rlf	___fladd@b+1,f
  6926     14E7  0DA2               	rlf	___fladd@b+2,f
  6927     14E8  0DA3               	rlf	___fladd@b+3,f
  6928     14E9  0BA8               	decfsz	??___fladd,f
  6929     14EA  2CE4               	goto	u3175
  6930     14EB                     l2686:
  6931     14EB  1FB3               	btfss	___fladd@grs,7
  6932     14EC  2CEE               	goto	u3181
  6933     14ED  2CEF               	goto	u3180
  6934     14EE                     u3181:
  6935     14EE  2CF0               	goto	l647
  6936     14EF                     u3180:
  6937     14EF                     l2688:
  6938     14EF  1420               	bsf	___fladd@b,0
  6939     14F0                     l647:
  6940     14F0  1C33               	btfss	___fladd@grs,0
  6941     14F1  2CF3               	goto	u3191
  6942     14F2  2CF4               	goto	u3190
  6943     14F3                     u3191:
  6944     14F3  2CF8               	goto	l2692
  6945     14F4                     u3190:
  6946     14F4                     l2690:
  6947     14F4  1403               	setc
  6948     14F5  0D33               	rlf	___fladd@grs,w
  6949     14F6  00B3               	movwf	___fladd@grs
  6950     14F7  2CFA               	goto	l2694
  6951     14F8                     l2692:
  6952     14F8  1003               	clrc
  6953     14F9  0DB3               	rlf	___fladd@grs,f
  6954     14FA                     l2694:
  6955     14FA  0832               	movf	___fladd@bexp,w
  6956     14FB  1903               	btfsc	3,2
  6957     14FC  2CFE               	goto	u3201
  6958     14FD  2CFF               	goto	u3200
  6959     14FE                     u3201:
  6960     14FE  2D01               	goto	l2698
  6961     14FF                     u3200:
  6962     14FF                     l2696:
  6963     14FF  3001               	movlw	1
  6964     1500  02B2               	subwf	___fladd@bexp,f
  6965     1501                     l2698:
  6966     1501  1FA2               	btfss	___fladd@b+2,7
  6967     1502  2D04               	goto	u3211
  6968     1503  2D05               	goto	u3210
  6969     1504                     u3211:
  6970     1504  2CE2               	goto	l2684
  6971     1505                     u3210:
  6972     1505                     l2700:
  6973     1505  01B1               	clrf	___fladd@aexp
  6974     1506                     l2702:
  6975     1506  1FB3               	btfss	___fladd@grs,7
  6976     1507  2D09               	goto	u3221
  6977     1508  2D0A               	goto	u3220
  6978     1509                     u3221:
  6979     1509  2D18               	goto	l2710
  6980     150A                     u3220:
  6981     150A                     l2704:
  6982     150A  0833               	movf	___fladd@grs,w
  6983     150B  397F               	andlw	127
  6984     150C  1903               	btfsc	3,2
  6985     150D  2D0F               	goto	u3231
  6986     150E  2D10               	goto	u3230
  6987     150F                     u3231:
  6988     150F  2D13               	goto	l653
  6989     1510                     u3230:
  6990     1510                     l2706:
  6991     1510  3001               	movlw	1
  6992     1511  00B1               	movwf	___fladd@aexp
  6993     1512  2D18               	goto	l2710
  6994     1513                     l653:
  6995     1513  1C20               	btfss	___fladd@b,0
  6996     1514  2D16               	goto	u3241
  6997     1515  2D17               	goto	u3240
  6998     1516                     u3241:
  6999     1516  2D18               	goto	l2710
  7000     1517                     u3240:
  7001     1517  2D10               	goto	l2706
  7002     1518                     l2710:
  7003     1518  0831               	movf	___fladd@aexp,w
  7004     1519  1903               	btfsc	3,2
  7005     151A  2D1C               	goto	u3251
  7006     151B  2D1D               	goto	u3250
  7007     151C                     u3251:
  7008     151C  2D4F               	goto	l656
  7009     151D                     u3250:
  7010     151D                     l2712:
  7011     151D  3001               	movlw	1
  7012     151E  07A0               	addwf	___fladd@b,f
  7013     151F  3000               	movlw	0
  7014     1520  1803               	skipnc
  7015     1521  3001               	movlw	1
  7016     1522  07A1               	addwf	___fladd@b+1,f
  7017     1523  3000               	movlw	0
  7018     1524  1803               	skipnc
  7019     1525  3001               	movlw	1
  7020     1526  07A2               	addwf	___fladd@b+2,f
  7021     1527  3000               	movlw	0
  7022     1528  1803               	skipnc
  7023     1529  3001               	movlw	1
  7024     152A  07A3               	addwf	___fladd@b+3,f
  7025     152B                     l2714:
  7026     152B  1C23               	btfss	___fladd@b+3,0
  7027     152C  2D2E               	goto	u3261
  7028     152D  2D2F               	goto	u3260
  7029     152E                     u3261:
  7030     152E  2D4F               	goto	l656
  7031     152F                     u3260:
  7032     152F                     l2716:
  7033     152F  0820               	movf	___fladd@b,w
  7034     1530  00A8               	movwf	??___fladd
  7035     1531  0821               	movf	___fladd@b+1,w
  7036     1532  00A9               	movwf	??___fladd+1
  7037     1533  0822               	movf	___fladd@b+2,w
  7038     1534  00AA               	movwf	??___fladd+2
  7039     1535  0823               	movf	___fladd@b+3,w
  7040     1536  00AB               	movwf	??___fladd+3
  7041     1537  3001               	movlw	1
  7042     1538  00AC               	movwf	??___fladd+4
  7043     1539                     u3275:
  7044     1539  0D2B               	rlf	??___fladd+3,w
  7045     153A  0CAB               	rrf	??___fladd+3,f
  7046     153B  0CAA               	rrf	??___fladd+2,f
  7047     153C  0CA9               	rrf	??___fladd+1,f
  7048     153D  0CA8               	rrf	??___fladd,f
  7049     153E                     u3270:
  7050     153E  0BAC               	decfsz	??___fladd+4,f
  7051     153F  2D39               	goto	u3275
  7052     1540  082B               	movf	??___fladd+3,w
  7053     1541  00A3               	movwf	___fladd@b+3
  7054     1542  082A               	movf	??___fladd+2,w
  7055     1543  00A2               	movwf	___fladd@b+2
  7056     1544  0829               	movf	??___fladd+1,w
  7057     1545  00A1               	movwf	___fladd@b+1
  7058     1546  0828               	movf	??___fladd,w
  7059     1547  00A0               	movwf	___fladd@b
  7060     1548  0A32               	incf	___fladd@bexp,w
  7061     1549  1903               	btfsc	3,2
  7062     154A  2D4C               	goto	u3281
  7063     154B  2D4D               	goto	u3280
  7064     154C                     u3281:
  7065     154C  2D4F               	goto	l656
  7066     154D                     u3280:
  7067     154D                     l2718:
  7068     154D  3001               	movlw	1
  7069     154E  07B2               	addwf	___fladd@bexp,f
  7070     154F                     l656:
  7071     154F  0A32               	incf	___fladd@bexp,w
  7072     1550  1903               	btfsc	3,2
  7073     1551  2D53               	goto	u3291
  7074     1552  2D54               	goto	u3290
  7075     1553                     u3291:
  7076     1553  2D59               	goto	l2722
  7077     1554                     u3290:
  7078     1554                     l2720:
  7079     1554  0832               	movf	___fladd@bexp,w
  7080     1555  1D03               	btfss	3,2
  7081     1556  2D58               	goto	u3301
  7082     1557  2D59               	goto	u3300
  7083     1558                     u3301:
  7084     1558  2D67               	goto	l2728
  7085     1559                     u3300:
  7086     1559                     l2722:
  7087     1559  3000               	movlw	0
  7088     155A  00A3               	movwf	___fladd@b+3
  7089     155B  3000               	movlw	0
  7090     155C  00A2               	movwf	___fladd@b+2
  7091     155D  3000               	movlw	0
  7092     155E  00A1               	movwf	___fladd@b+1
  7093     155F  3000               	movlw	0
  7094     1560  00A0               	movwf	___fladd@b
  7095     1561                     l2724:
  7096     1561  0832               	movf	___fladd@bexp,w
  7097     1562  1D03               	btfss	3,2
  7098     1563  2D65               	goto	u3311
  7099     1564  2D66               	goto	u3310
  7100     1565                     u3311:
  7101     1565  2D67               	goto	l2728
  7102     1566                     u3310:
  7103     1566                     l2726:
  7104     1566  01B0               	clrf	___fladd@signs
  7105     1567                     l2728:
  7106     1567  1C32               	btfss	___fladd@bexp,0
  7107     1568  2D6A               	goto	u3321
  7108     1569  2D6B               	goto	u3320
  7109     156A                     u3321:
  7110     156A  2D6D               	goto	l2732
  7111     156B                     u3320:
  7112     156B                     l2730:
  7113     156B  17A2               	bsf	___fladd@b+2,7
  7114     156C  2D6F               	goto	l664
  7115     156D                     l2732:
  7116     156D  307F               	movlw	127
  7117     156E  05A2               	andwf	___fladd@b+2,f
  7118     156F                     l664:
  7119     156F  0832               	movf	___fladd@bexp,w
  7120     1570  00A8               	movwf	??___fladd
  7121     1571  1003               	clrc
  7122     1572  0C28               	rrf	??___fladd,w
  7123     1573  00A3               	movwf	___fladd@b+3
  7124     1574                     l2734:
  7125     1574  1FB0               	btfss	___fladd@signs,7
  7126     1575  2D77               	goto	u3331
  7127     1576  2D78               	goto	u3330
  7128     1577                     u3331:
  7129     1577  2D79               	goto	l665
  7130     1578                     u3330:
  7131     1578                     l2736:
  7132     1578  17A3               	bsf	___fladd@b+3,7
  7133     1579                     l665:
  7134     1579                     l635:
  7135     1579  0008               	return
  7136     157A                     __end_of___fladd:
  7137                           
  7138                           	psect	text22
  7139     196B                     __ptext22:	
  7140 ;; *************** function ___flneg *****************
  7141 ;; Defined at:
  7142 ;;		line 15 in file "/opt/microchip/xc8/v3.10/pic/sources/c99/common/flneg.c"
  7143 ;; Parameters:    Size  Location     Type
  7144 ;;  f1              4    0[BANK0 ] unsigned char 
  7145 ;; Auto vars:     Size  Location     Type
  7146 ;;		None
  7147 ;; Return value:  Size  Location     Type
  7148 ;;                  4    0[BANK0 ] unsigned char 
  7149 ;; Registers used:
  7150 ;;		wreg
  7151 ;; Tracked objects:
  7152 ;;		On entry : 0/0
  7153 ;;		On exit  : 0/0
  7154 ;;		Unchanged: 0/0
  7155 ;; Data sizes:     COMMON   BANK0   BANK1   BANK3   BANK2
  7156 ;;      Params:         0       4       0       0       0
  7157 ;;      Locals:         0       0       0       0       0
  7158 ;;      Temps:          0       0       0       0       0
  7159 ;;      Totals:         0       4       0       0       0
  7160 ;;Total ram usage:        4 bytes
  7161 ;; Hardware stack levels used: 1
  7162 ;; Hardware stack levels required when called: 1
  7163 ;; This function calls:
  7164 ;;		Nothing
  7165 ;; This function is called by:
  7166 ;;		_efgtoa
  7167 ;; This function uses a non-reentrant model
  7168 ;;
  7169                           
  7170     196B                     ___flneg:	
  7171                           ;psect for function ___flneg
  7172                           
  7173     196B                     l2792:	
  7174                           ;incstack = 0
  7175                           ; Regs used in ___flneg: [wreg]
  7176                           
  7177     196B  1283               	bcf	3,5	;RP0=0, select bank0
  7178     196C  1303               	bcf	3,6	;RP1=0, select bank0
  7179     196D  0823               	movf	___flneg@f1+3,w
  7180     196E  0422               	iorwf	___flneg@f1+2,w
  7181     196F  0421               	iorwf	___flneg@f1+1,w
  7182     1970  0420               	iorwf	___flneg@f1,w
  7183     1971  1903               	skipnz
  7184     1972  2974               	goto	u3481
  7185     1973  2975               	goto	u3480
  7186     1974                     u3481:
  7187     1974  2977               	goto	l2796
  7188     1975                     u3480:
  7189     1975                     l2794:
  7190     1975  3080               	movlw	128
  7191     1976  06A3               	xorwf	___flneg@f1+3,f
  7192     1977                     l2796:
  7193     1977                     l511:
  7194     1977  0008               	return
  7195     1978                     __end_of___flneg:
  7196                           
  7197                           	psect	text23
  7198     1006                     __ptext23:	
  7199 ;; *************** function ___flge *****************
  7200 ;; Defined at:
  7201 ;;		line 4 in file "/opt/microchip/xc8/v3.10/pic/sources/c99/common/flge.c"
  7202 ;; Parameters:    Size  Location     Type
  7203 ;;  ff1             4   40[BANK0 ] unsigned char 
  7204 ;;  ff2             4   44[BANK0 ] unsigned char 
  7205 ;; Auto vars:     Size  Location     Type
  7206 ;;		None
  7207 ;; Return value:  Size  Location     Type
  7208 ;;		None               void
  7209 ;; Registers used:
  7210 ;;		wreg, status,2, status,0
  7211 ;; Tracked objects:
  7212 ;;		On entry : 0/0
  7213 ;;		On exit  : 0/0
  7214 ;;		Unchanged: 0/0
  7215 ;; Data sizes:     COMMON   BANK0   BANK1   BANK3   BANK2
  7216 ;;      Params:         0       8       0       0       0
  7217 ;;      Locals:         0       0       0       0       0
  7218 ;;      Temps:          0       4       0       0       0
  7219 ;;      Totals:         0      12       0       0       0
  7220 ;;Total ram usage:       12 bytes
  7221 ;; Hardware stack levels used: 1
  7222 ;; Hardware stack levels required when called: 1
  7223 ;; This function calls:
  7224 ;;		Nothing
  7225 ;; This function is called by:
  7226 ;;		_efgtoa
  7227 ;; This function uses a non-reentrant model
  7228 ;;
  7229                           
  7230     1006                     ___flge:	
  7231                           ;psect for function ___flge
  7232                           
  7233     1006                     l2772:	
  7234                           ;incstack = 0
  7235                           ; Regs used in ___flge: [wreg+status,2+status,0]
  7236                           
  7237     1006  3000               	movlw	0
  7238     1007  1283               	bcf	3,5	;RP0=0, select bank0
  7239     1008  1303               	bcf	3,6	;RP1=0, select bank0
  7240     1009  0548               	andwf	___flge@ff1,w
  7241     100A  00D0               	movwf	??___flge
  7242     100B  3000               	movlw	0
  7243     100C  0549               	andwf	___flge@ff1+1,w
  7244     100D  00D1               	movwf	??___flge+1
  7245     100E  3080               	movlw	128
  7246     100F  054A               	andwf	___flge@ff1+2,w
  7247     1010  00D2               	movwf	??___flge+2
  7248     1011  307F               	movlw	127
  7249     1012  054B               	andwf	___flge@ff1+3,w
  7250     1013  00D3               	movwf	??___flge+3
  7251     1014  0853               	movf	??___flge+3,w
  7252     1015  0452               	iorwf	??___flge+2,w
  7253     1016  0451               	iorwf	??___flge+1,w
  7254     1017  0450               	iorwf	??___flge,w
  7255     1018  1D03               	skipz
  7256     1019  281B               	goto	u3411
  7257     101A  281C               	goto	u3410
  7258     101B                     u3411:
  7259     101B  2824               	goto	l499
  7260     101C                     u3410:
  7261     101C                     l2774:
  7262     101C  3000               	movlw	0
  7263     101D  00CB               	movwf	___flge@ff1+3
  7264     101E  3000               	movlw	0
  7265     101F  00CA               	movwf	___flge@ff1+2
  7266     1020  3000               	movlw	0
  7267     1021  00C9               	movwf	___flge@ff1+1
  7268     1022  3000               	movlw	0
  7269     1023  00C8               	movwf	___flge@ff1
  7270     1024                     l499:
  7271     1024  3000               	movlw	0
  7272     1025  054C               	andwf	___flge@ff2,w
  7273     1026  00D0               	movwf	??___flge
  7274     1027  3000               	movlw	0
  7275     1028  054D               	andwf	___flge@ff2+1,w
  7276     1029  00D1               	movwf	??___flge+1
  7277     102A  3080               	movlw	128
  7278     102B  054E               	andwf	___flge@ff2+2,w
  7279     102C  00D2               	movwf	??___flge+2
  7280     102D  307F               	movlw	127
  7281     102E  054F               	andwf	___flge@ff2+3,w
  7282     102F  00D3               	movwf	??___flge+3
  7283     1030  0853               	movf	??___flge+3,w
  7284     1031  0452               	iorwf	??___flge+2,w
  7285     1032  0451               	iorwf	??___flge+1,w
  7286     1033  0450               	iorwf	??___flge,w
  7287     1034  1D03               	skipz
  7288     1035  2837               	goto	u3421
  7289     1036  2838               	goto	u3420
  7290     1037                     u3421:
  7291     1037  2840               	goto	l2778
  7292     1038                     u3420:
  7293     1038                     l2776:
  7294     1038  3000               	movlw	0
  7295     1039  00CF               	movwf	___flge@ff2+3
  7296     103A  3000               	movlw	0
  7297     103B  00CE               	movwf	___flge@ff2+2
  7298     103C  3000               	movlw	0
  7299     103D  00CD               	movwf	___flge@ff2+1
  7300     103E  3000               	movlw	0
  7301     103F  00CC               	movwf	___flge@ff2
  7302     1040                     l2778:
  7303     1040  1FCB               	btfss	___flge@ff1+3,7
  7304     1041  2843               	goto	u3431
  7305     1042  2844               	goto	u3430
  7306     1043                     u3431:
  7307     1043  2868               	goto	l2782
  7308     1044                     u3430:
  7309     1044                     l2780:
  7310     1044  3000               	movlw	0
  7311     1045  00D0               	movwf	??___flge
  7312     1046  3000               	movlw	0
  7313     1047  00D1               	movwf	??___flge+1
  7314     1048  3000               	movlw	0
  7315     1049  00D2               	movwf	??___flge+2
  7316     104A  3080               	movlw	128
  7317     104B  00D3               	movwf	??___flge+3
  7318     104C  0848               	movf	___flge@ff1,w
  7319     104D  02D0               	subwf	??___flge,f
  7320     104E  0849               	movf	___flge@ff1+1,w
  7321     104F  1C03               	skipc
  7322     1050  0F49               	incfsz	___flge@ff1+1,w
  7323     1051  2853               	goto	u3441
  7324     1052  2854               	goto	u3442
  7325     1053                     u3441:
  7326     1053  02D1               	subwf	??___flge+1,f
  7327     1054                     u3442:
  7328     1054  084A               	movf	___flge@ff1+2,w
  7329     1055  1C03               	skipc
  7330     1056  0F4A               	incfsz	___flge@ff1+2,w
  7331     1057  2859               	goto	u3443
  7332     1058  285A               	goto	u3444
  7333     1059                     u3443:
  7334     1059  02D2               	subwf	??___flge+2,f
  7335     105A                     u3444:
  7336     105A  084B               	movf	___flge@ff1+3,w
  7337     105B  1C03               	skipc
  7338     105C  0F4B               	incfsz	___flge@ff1+3,w
  7339     105D  285F               	goto	u3445
  7340     105E  2860               	goto	u3446
  7341     105F                     u3445:
  7342     105F  02D3               	subwf	??___flge+3,f
  7343     1060                     u3446:
  7344     1060  0853               	movf	??___flge+3,w
  7345     1061  00CB               	movwf	___flge@ff1+3
  7346     1062  0852               	movf	??___flge+2,w
  7347     1063  00CA               	movwf	___flge@ff1+2
  7348     1064  0851               	movf	??___flge+1,w
  7349     1065  00C9               	movwf	___flge@ff1+1
  7350     1066  0850               	movf	??___flge,w
  7351     1067  00C8               	movwf	___flge@ff1
  7352     1068                     l2782:
  7353     1068  1FCF               	btfss	___flge@ff2+3,7
  7354     1069  286B               	goto	u3451
  7355     106A  286C               	goto	u3450
  7356     106B                     u3451:
  7357     106B  2890               	goto	l502
  7358     106C                     u3450:
  7359     106C                     l2784:
  7360     106C  3000               	movlw	0
  7361     106D  00D0               	movwf	??___flge
  7362     106E  3000               	movlw	0
  7363     106F  00D1               	movwf	??___flge+1
  7364     1070  3000               	movlw	0
  7365     1071  00D2               	movwf	??___flge+2
  7366     1072  3080               	movlw	128
  7367     1073  00D3               	movwf	??___flge+3
  7368     1074  084C               	movf	___flge@ff2,w
  7369     1075  02D0               	subwf	??___flge,f
  7370     1076  084D               	movf	___flge@ff2+1,w
  7371     1077  1C03               	skipc
  7372     1078  0F4D               	incfsz	___flge@ff2+1,w
  7373     1079  287B               	goto	u3461
  7374     107A  287C               	goto	u3462
  7375     107B                     u3461:
  7376     107B  02D1               	subwf	??___flge+1,f
  7377     107C                     u3462:
  7378     107C  084E               	movf	___flge@ff2+2,w
  7379     107D  1C03               	skipc
  7380     107E  0F4E               	incfsz	___flge@ff2+2,w
  7381     107F  2881               	goto	u3463
  7382     1080  2882               	goto	u3464
  7383     1081                     u3463:
  7384     1081  02D2               	subwf	??___flge+2,f
  7385     1082                     u3464:
  7386     1082  084F               	movf	___flge@ff2+3,w
  7387     1083  1C03               	skipc
  7388     1084  0F4F               	incfsz	___flge@ff2+3,w
  7389     1085  2887               	goto	u3465
  7390     1086  2888               	goto	u3466
  7391     1087                     u3465:
  7392     1087  02D3               	subwf	??___flge+3,f
  7393     1088                     u3466:
  7394     1088  0853               	movf	??___flge+3,w
  7395     1089  00CF               	movwf	___flge@ff2+3
  7396     108A  0852               	movf	??___flge+2,w
  7397     108B  00CE               	movwf	___flge@ff2+2
  7398     108C  0851               	movf	??___flge+1,w
  7399     108D  00CD               	movwf	___flge@ff2+1
  7400     108E  0850               	movf	??___flge,w
  7401     108F  00CC               	movwf	___flge@ff2
  7402     1090                     l502:
  7403     1090  3080               	movlw	128
  7404     1091  06CB               	xorwf	___flge@ff1+3,f
  7405     1092  3080               	movlw	128
  7406     1093  06CF               	xorwf	___flge@ff2+3,f
  7407     1094  084F               	movf	___flge@ff2+3,w
  7408     1095  024B               	subwf	___flge@ff1+3,w
  7409     1096  1D03               	skipz
  7410     1097  28A2               	goto	u3475
  7411     1098  084E               	movf	___flge@ff2+2,w
  7412     1099  024A               	subwf	___flge@ff1+2,w
  7413     109A  1D03               	skipz
  7414     109B  28A2               	goto	u3475
  7415     109C  084D               	movf	___flge@ff2+1,w
  7416     109D  0249               	subwf	___flge@ff1+1,w
  7417     109E  1D03               	skipz
  7418     109F  28A2               	goto	u3475
  7419     10A0  084C               	movf	___flge@ff2,w
  7420     10A1  0248               	subwf	___flge@ff1,w
  7421     10A2                     u3475:
  7422     10A2  1803               	skipnc
  7423     10A3  28A5               	goto	u3471
  7424     10A4  28A6               	goto	u3470
  7425     10A5                     u3471:
  7426     10A5  28A8               	goto	l2788
  7427     10A6                     u3470:
  7428     10A6                     l2786:
  7429     10A6  1003               	clrc
  7430     10A7  28A9               	goto	l507
  7431     10A8                     l2788:
  7432     10A8  1403               	setc
  7433     10A9                     l507:
  7434     10A9  0008               	return
  7435     10AA                     __end_of___flge:
  7436                           
  7437                           	psect	text24
  7438     1AF5                     __ptext24:	
  7439 ;; *************** function ___fleq *****************
  7440 ;; Defined at:
  7441 ;;		line 4 in file "/opt/microchip/xc8/v3.10/pic/sources/c99/common/fleq.c"
  7442 ;; Parameters:    Size  Location     Type
  7443 ;;  ff1             4    0[BANK0 ] unsigned char 
  7444 ;;  ff2             4    4[BANK0 ] unsigned char 
  7445 ;; Auto vars:     Size  Location     Type
  7446 ;;		None
  7447 ;; Return value:  Size  Location     Type
  7448 ;;		None               void
  7449 ;; Registers used:
  7450 ;;		wreg, status,2, status,0
  7451 ;; Tracked objects:
  7452 ;;		On entry : 0/0
  7453 ;;		On exit  : 0/0
  7454 ;;		Unchanged: 0/0
  7455 ;; Data sizes:     COMMON   BANK0   BANK1   BANK3   BANK2
  7456 ;;      Params:         0       8       0       0       0
  7457 ;;      Locals:         0       0       0       0       0
  7458 ;;      Temps:          0       4       0       0       0
  7459 ;;      Totals:         0      12       0       0       0
  7460 ;;Total ram usage:       12 bytes
  7461 ;; Hardware stack levels used: 1
  7462 ;; Hardware stack levels required when called: 1
  7463 ;; This function calls:
  7464 ;;		Nothing
  7465 ;; This function is called by:
  7466 ;;		_efgtoa
  7467 ;; This function uses a non-reentrant model
  7468 ;;
  7469                           
  7470     1AF5                     ___fleq:	
  7471                           ;psect for function ___fleq
  7472                           
  7473     1AF5                     l2760:	
  7474                           ;incstack = 0
  7475                           ; Regs used in ___fleq: [wreg+status,2+status,0]
  7476                           
  7477     1AF5  3000               	movlw	0
  7478     1AF6  1283               	bcf	3,5	;RP0=0, select bank0
  7479     1AF7  1303               	bcf	3,6	;RP1=0, select bank0
  7480     1AF8  0520               	andwf	___fleq@ff1,w
  7481     1AF9  00A8               	movwf	??___fleq
  7482     1AFA  3000               	movlw	0
  7483     1AFB  0521               	andwf	___fleq@ff1+1,w
  7484     1AFC  00A9               	movwf	??___fleq+1
  7485     1AFD  3080               	movlw	128
  7486     1AFE  0522               	andwf	___fleq@ff1+2,w
  7487     1AFF  00AA               	movwf	??___fleq+2
  7488     1B00  307F               	movlw	127
  7489     1B01  0523               	andwf	___fleq@ff1+3,w
  7490     1B02  00AB               	movwf	??___fleq+3
  7491     1B03  082B               	movf	??___fleq+3,w
  7492     1B04  042A               	iorwf	??___fleq+2,w
  7493     1B05  0429               	iorwf	??___fleq+1,w
  7494     1B06  0428               	iorwf	??___fleq,w
  7495     1B07  1D03               	skipz
  7496     1B08  2B0A               	goto	u3381
  7497     1B09  2B0B               	goto	u3380
  7498     1B0A                     u3381:
  7499     1B0A  2B13               	goto	l490
  7500     1B0B                     u3380:
  7501     1B0B                     l2762:
  7502     1B0B  3000               	movlw	0
  7503     1B0C  00A3               	movwf	___fleq@ff1+3
  7504     1B0D  3000               	movlw	0
  7505     1B0E  00A2               	movwf	___fleq@ff1+2
  7506     1B0F  3000               	movlw	0
  7507     1B10  00A1               	movwf	___fleq@ff1+1
  7508     1B11  3000               	movlw	0
  7509     1B12  00A0               	movwf	___fleq@ff1
  7510     1B13                     l490:
  7511     1B13  3000               	movlw	0
  7512     1B14  0524               	andwf	___fleq@ff2,w
  7513     1B15  00A8               	movwf	??___fleq
  7514     1B16  3000               	movlw	0
  7515     1B17  0525               	andwf	___fleq@ff2+1,w
  7516     1B18  00A9               	movwf	??___fleq+1
  7517     1B19  3080               	movlw	128
  7518     1B1A  0526               	andwf	___fleq@ff2+2,w
  7519     1B1B  00AA               	movwf	??___fleq+2
  7520     1B1C  307F               	movlw	127
  7521     1B1D  0527               	andwf	___fleq@ff2+3,w
  7522     1B1E  00AB               	movwf	??___fleq+3
  7523     1B1F  082B               	movf	??___fleq+3,w
  7524     1B20  042A               	iorwf	??___fleq+2,w
  7525     1B21  0429               	iorwf	??___fleq+1,w
  7526     1B22  0428               	iorwf	??___fleq,w
  7527     1B23  1D03               	skipz
  7528     1B24  2B26               	goto	u3391
  7529     1B25  2B27               	goto	u3390
  7530     1B26                     u3391:
  7531     1B26  2B2F               	goto	l491
  7532     1B27                     u3390:
  7533     1B27                     l2764:
  7534     1B27  3000               	movlw	0
  7535     1B28  00A7               	movwf	___fleq@ff2+3
  7536     1B29  3000               	movlw	0
  7537     1B2A  00A6               	movwf	___fleq@ff2+2
  7538     1B2B  3000               	movlw	0
  7539     1B2C  00A5               	movwf	___fleq@ff2+1
  7540     1B2D  3000               	movlw	0
  7541     1B2E  00A4               	movwf	___fleq@ff2
  7542     1B2F                     l491:
  7543     1B2F  0827               	movf	___fleq@ff2+3,w
  7544     1B30  0623               	xorwf	___fleq@ff1+3,w
  7545     1B31  1D03               	skipz
  7546     1B32  2B3D               	goto	u3405
  7547     1B33  0826               	movf	___fleq@ff2+2,w
  7548     1B34  0622               	xorwf	___fleq@ff1+2,w
  7549     1B35  1D03               	skipz
  7550     1B36  2B3D               	goto	u3405
  7551     1B37  0825               	movf	___fleq@ff2+1,w
  7552     1B38  0621               	xorwf	___fleq@ff1+1,w
  7553     1B39  1D03               	skipz
  7554     1B3A  2B3D               	goto	u3405
  7555     1B3B  0824               	movf	___fleq@ff2,w
  7556     1B3C  0620               	xorwf	___fleq@ff1,w
  7557     1B3D                     u3405:
  7558     1B3D  1903               	skipnz
  7559     1B3E  2B40               	goto	u3401
  7560     1B3F  2B41               	goto	u3400
  7561     1B40                     u3401:
  7562     1B40  2B43               	goto	l2768
  7563     1B41                     u3400:
  7564     1B41                     l2766:
  7565     1B41  1003               	clrc
  7566     1B42  2B44               	goto	l496
  7567     1B43                     l2768:
  7568     1B43  1403               	setc
  7569     1B44                     l496:
  7570     1B44  0008               	return
  7571     1B45                     __end_of___fleq:
  7572                           
  7573                           	psect	text25
  7574     1160                     __ptext25:	
  7575 ;; *************** function ___fldiv *****************
  7576 ;; Defined at:
  7577 ;;		line 8 in file "/opt/microchip/xc8/v3.10/pic/sources/c99/common/sprcdiv.c"
  7578 ;; Parameters:    Size  Location     Type
  7579 ;;  a               4    0[BANK0 ] unsigned char 
  7580 ;;  b               4    4[BANK0 ] unsigned char 
  7581 ;; Auto vars:     Size  Location     Type
  7582 ;;  grs             4   20[BANK0 ] unsigned long 
  7583 ;;  rem             4   13[BANK0 ] unsigned long 
  7584 ;;  new_exp         2   18[BANK0 ] short 
  7585 ;;  aexp            1   25[BANK0 ] unsigned char 
  7586 ;;  bexp            1   24[BANK0 ] unsigned char 
  7587 ;;  sign            1   17[BANK0 ] unsigned char 
  7588 ;; Return value:  Size  Location     Type
  7589 ;;                  4    0[BANK0 ] unsigned char 
  7590 ;; Registers used:
  7591 ;;		wreg, status,2, status,0, btemp1
  7592 ;; Tracked objects:
  7593 ;;		On entry : 0/0
  7594 ;;		On exit  : 0/0
  7595 ;;		Unchanged: 0/0
  7596 ;; Data sizes:     COMMON   BANK0   BANK1   BANK3   BANK2
  7597 ;;      Params:         0       8       0       0       0
  7598 ;;      Locals:         0      13       0       0       0
  7599 ;;      Temps:          0       5       0       0       0
  7600 ;;      Totals:         0      26       0       0       0
  7601 ;;Total ram usage:       26 bytes
  7602 ;; Hardware stack levels used: 1
  7603 ;; Hardware stack levels required when called: 1
  7604 ;; This function calls:
  7605 ;;		Nothing
  7606 ;; This function is called by:
  7607 ;;		_efgtoa
  7608 ;; This function uses a non-reentrant model
  7609 ;;
  7610                           
  7611     1160                     ___fldiv:	
  7612                           ;psect for function ___fldiv
  7613                           
  7614     1160                     l2842:	
  7615                           ;incstack = 0
  7616                           ; Regs used in ___fldiv: [wreg+status,2+status,0+btemp1]
  7617                           
  7618     1160  1283               	bcf	3,5	;RP0=0, select bank0
  7619     1161  1303               	bcf	3,6	;RP1=0, select bank0
  7620     1162  0827               	movf	___fldiv@b+3,w
  7621     1163  00B1               	movwf	___fldiv@sign
  7622     1164                     l2844:
  7623     1164  3080               	movlw	128
  7624     1165  05B1               	andwf	___fldiv@sign,f
  7625     1166                     l2846:
  7626     1166  0827               	movf	___fldiv@b+3,w
  7627     1167  00A8               	movwf	??___fldiv
  7628     1168  0728               	addwf	??___fldiv,w
  7629     1169  00B8               	movwf	___fldiv@bexp
  7630     116A                     l2848:
  7631     116A  1FA6               	btfss	___fldiv@b+2,7
  7632     116B  296D               	goto	u3591
  7633     116C  296E               	goto	u3590
  7634     116D                     u3591:
  7635     116D  296F               	goto	l2852
  7636     116E                     u3590:
  7637     116E                     l2850:
  7638     116E  1438               	bsf	___fldiv@bexp,0
  7639     116F                     l2852:
  7640     116F  0838               	movf	___fldiv@bexp,w
  7641     1170  1903               	btfsc	3,2
  7642     1171  2973               	goto	u3601
  7643     1172  2974               	goto	u3600
  7644     1173                     u3601:
  7645     1173  2984               	goto	l2862
  7646     1174                     u3600:
  7647     1174                     l2854:
  7648     1174  0A38               	incf	___fldiv@bexp,w
  7649     1175  1D03               	btfss	3,2
  7650     1176  2978               	goto	u3611
  7651     1177  2979               	goto	u3610
  7652     1178                     u3611:
  7653     1178  2981               	goto	l2858
  7654     1179                     u3610:
  7655     1179                     l2856:
  7656     1179  3000               	movlw	0
  7657     117A  00A7               	movwf	___fldiv@b+3
  7658     117B  3000               	movlw	0
  7659     117C  00A6               	movwf	___fldiv@b+2
  7660     117D  3000               	movlw	0
  7661     117E  00A5               	movwf	___fldiv@b+1
  7662     117F  3000               	movlw	0
  7663     1180  00A4               	movwf	___fldiv@b
  7664     1181                     l2858:
  7665     1181  17A6               	bsf	___fldiv@b+2,7
  7666     1182                     l2860:
  7667     1182  01A7               	clrf	___fldiv@b+3
  7668     1183  298C               	goto	l2864
  7669     1184                     l2862:
  7670     1184  3000               	movlw	0
  7671     1185  00A7               	movwf	___fldiv@b+3
  7672     1186  3000               	movlw	0
  7673     1187  00A6               	movwf	___fldiv@b+2
  7674     1188  3000               	movlw	0
  7675     1189  00A5               	movwf	___fldiv@b+1
  7676     118A  3000               	movlw	0
  7677     118B  00A4               	movwf	___fldiv@b
  7678     118C                     l2864:
  7679     118C  0823               	movf	___fldiv@a+3,w
  7680     118D  3980               	andlw	128
  7681     118E  06B1               	xorwf	___fldiv@sign,f
  7682     118F                     l2866:
  7683     118F  0823               	movf	___fldiv@a+3,w
  7684     1190  00A8               	movwf	??___fldiv
  7685     1191  0728               	addwf	??___fldiv,w
  7686     1192  00B9               	movwf	___fldiv@aexp
  7687     1193                     l2868:
  7688     1193  1FA2               	btfss	___fldiv@a+2,7
  7689     1194  2996               	goto	u3621
  7690     1195  2997               	goto	u3620
  7691     1196                     u3621:
  7692     1196  2998               	goto	l2872
  7693     1197                     u3620:
  7694     1197                     l2870:
  7695     1197  1439               	bsf	___fldiv@aexp,0
  7696     1198                     l2872:
  7697     1198  0839               	movf	___fldiv@aexp,w
  7698     1199  1903               	btfsc	3,2
  7699     119A  299C               	goto	u3631
  7700     119B  299D               	goto	u3630
  7701     119C                     u3631:
  7702     119C  29AD               	goto	l2882
  7703     119D                     u3630:
  7704     119D                     l2874:
  7705     119D  0A39               	incf	___fldiv@aexp,w
  7706     119E  1D03               	btfss	3,2
  7707     119F  29A1               	goto	u3641
  7708     11A0  29A2               	goto	u3640
  7709     11A1                     u3641:
  7710     11A1  29AA               	goto	l2878
  7711     11A2                     u3640:
  7712     11A2                     l2876:
  7713     11A2  3000               	movlw	0
  7714     11A3  00A3               	movwf	___fldiv@a+3
  7715     11A4  3000               	movlw	0
  7716     11A5  00A2               	movwf	___fldiv@a+2
  7717     11A6  3000               	movlw	0
  7718     11A7  00A1               	movwf	___fldiv@a+1
  7719     11A8  3000               	movlw	0
  7720     11A9  00A0               	movwf	___fldiv@a
  7721     11AA                     l2878:
  7722     11AA  17A2               	bsf	___fldiv@a+2,7
  7723     11AB                     l2880:
  7724     11AB  01A3               	clrf	___fldiv@a+3
  7725     11AC  29B5               	goto	l678
  7726     11AD                     l2882:
  7727     11AD  3000               	movlw	0
  7728     11AE  00A3               	movwf	___fldiv@a+3
  7729     11AF  3000               	movlw	0
  7730     11B0  00A2               	movwf	___fldiv@a+2
  7731     11B1  3000               	movlw	0
  7732     11B2  00A1               	movwf	___fldiv@a+1
  7733     11B3  3000               	movlw	0
  7734     11B4  00A0               	movwf	___fldiv@a
  7735     11B5                     l678:
  7736     11B5  0823               	movf	___fldiv@a+3,w
  7737     11B6  0422               	iorwf	___fldiv@a+2,w
  7738     11B7  0421               	iorwf	___fldiv@a+1,w
  7739     11B8  0420               	iorwf	___fldiv@a,w
  7740     11B9  1D03               	skipz
  7741     11BA  29BC               	goto	u3651
  7742     11BB  29BD               	goto	u3650
  7743     11BC                     u3651:
  7744     11BC  29D4               	goto	l2892
  7745     11BD                     u3650:
  7746     11BD                     l2884:
  7747     11BD  3000               	movlw	0
  7748     11BE  00A7               	movwf	___fldiv@b+3
  7749     11BF  3000               	movlw	0
  7750     11C0  00A6               	movwf	___fldiv@b+2
  7751     11C1  3000               	movlw	0
  7752     11C2  00A5               	movwf	___fldiv@b+1
  7753     11C3  3000               	movlw	0
  7754     11C4  00A4               	movwf	___fldiv@b
  7755     11C5  3080               	movlw	128
  7756     11C6  04A6               	iorwf	___fldiv@b+2,f
  7757     11C7  307F               	movlw	127
  7758     11C8  04A7               	iorwf	___fldiv@b+3,f
  7759     11C9                     l2886:
  7760     11C9  0831               	movf	___fldiv@sign,w
  7761     11CA  04A7               	iorwf	___fldiv@b+3,f
  7762     11CB                     l2888:
  7763     11CB  0827               	movf	___fldiv@b+3,w
  7764     11CC  00A3               	movwf	?___fldiv+3
  7765     11CD  0826               	movf	___fldiv@b+2,w
  7766     11CE  00A2               	movwf	?___fldiv+2
  7767     11CF  0825               	movf	___fldiv@b+1,w
  7768     11D0  00A1               	movwf	?___fldiv+1
  7769     11D1  0824               	movf	___fldiv@b,w
  7770     11D2  00A0               	movwf	?___fldiv
  7771     11D3  2B29               	goto	l680
  7772     11D4                     l2892:
  7773     11D4  0838               	movf	___fldiv@bexp,w
  7774     11D5  1D03               	btfss	3,2
  7775     11D6  29D8               	goto	u3661
  7776     11D7  29D9               	goto	u3660
  7777     11D8                     u3661:
  7778     11D8  29E2               	goto	l2898
  7779     11D9                     u3660:
  7780     11D9                     l2894:
  7781     11D9  3000               	movlw	0
  7782     11DA  00A3               	movwf	?___fldiv+3
  7783     11DB  3000               	movlw	0
  7784     11DC  00A2               	movwf	?___fldiv+2
  7785     11DD  3000               	movlw	0
  7786     11DE  00A1               	movwf	?___fldiv+1
  7787     11DF  3000               	movlw	0
  7788     11E0  00A0               	movwf	?___fldiv
  7789     11E1  2B29               	goto	l680
  7790     11E2                     l2898:
  7791     11E2  0838               	movf	___fldiv@bexp,w
  7792     11E3  00A8               	movwf	??___fldiv
  7793     11E4  01A9               	clrf	??___fldiv+1
  7794     11E5  0829               	movf	??___fldiv+1,w
  7795     11E6  00AB               	movwf	??___fldiv+3
  7796     11E7  0839               	movf	___fldiv@aexp,w
  7797     11E8  0228               	subwf	??___fldiv,w
  7798     11E9  00AA               	movwf	??___fldiv+2
  7799     11EA  1C03               	skipc
  7800     11EB  03AB               	decf	??___fldiv+3,f
  7801     11EC  082A               	movf	??___fldiv+2,w
  7802     11ED  3E7F               	addlw	127
  7803     11EE  00B2               	movwf	___fldiv@new_exp
  7804     11EF  082B               	movf	??___fldiv+3,w
  7805     11F0  1803               	skipnc
  7806     11F1  3E01               	addlw	1
  7807     11F2  3E00               	addlw	0
  7808     11F3  00B3               	movwf	___fldiv@new_exp+1
  7809     11F4                     l2900:
  7810     11F4  0827               	movf	___fldiv@b+3,w
  7811     11F5  00B0               	movwf	___fldiv@rem+3
  7812     11F6  0826               	movf	___fldiv@b+2,w
  7813     11F7  00AF               	movwf	___fldiv@rem+2
  7814     11F8  0825               	movf	___fldiv@b+1,w
  7815     11F9  00AE               	movwf	___fldiv@rem+1
  7816     11FA  0824               	movf	___fldiv@b,w
  7817     11FB  00AD               	movwf	___fldiv@rem
  7818     11FC                     l2902:
  7819     11FC  3000               	movlw	0
  7820     11FD  00A7               	movwf	___fldiv@b+3
  7821     11FE  3000               	movlw	0
  7822     11FF  00A6               	movwf	___fldiv@b+2
  7823     1200  3000               	movlw	0
  7824     1201  00A5               	movwf	___fldiv@b+1
  7825     1202  3000               	movlw	0
  7826     1203  00A4               	movwf	___fldiv@b
  7827     1204                     l2904:
  7828     1204  3000               	movlw	0
  7829     1205  00B7               	movwf	___fldiv@grs+3
  7830     1206  3000               	movlw	0
  7831     1207  00B6               	movwf	___fldiv@grs+2
  7832     1208  3000               	movlw	0
  7833     1209  00B5               	movwf	___fldiv@grs+1
  7834     120A  3000               	movlw	0
  7835     120B  00B4               	movwf	___fldiv@grs
  7836     120C                     l2906:
  7837     120C  01B9               	clrf	___fldiv@aexp
  7838     120D  2A56               	goto	l2926
  7839     120E                     l2908:
  7840     120E  0839               	movf	___fldiv@aexp,w
  7841     120F  1903               	btfsc	3,2
  7842     1210  2A12               	goto	u3671
  7843     1211  2A13               	goto	u3670
  7844     1212                     u3671:
  7845     1212  2A33               	goto	l2918
  7846     1213                     u3670:
  7847     1213                     l2910:
  7848     1213  3001               	movlw	1
  7849     1214  00A8               	movwf	??___fldiv
  7850     1215                     u3685:
  7851     1215  1003               	clrc
  7852     1216  0DAD               	rlf	___fldiv@rem,f
  7853     1217  0DAE               	rlf	___fldiv@rem+1,f
  7854     1218  0DAF               	rlf	___fldiv@rem+2,f
  7855     1219  0DB0               	rlf	___fldiv@rem+3,f
  7856     121A  0BA8               	decfsz	??___fldiv,f
  7857     121B  2A15               	goto	u3685
  7858     121C  3001               	movlw	1
  7859     121D  00A8               	movwf	??___fldiv
  7860     121E                     u3695:
  7861     121E  1003               	clrc
  7862     121F  0DA4               	rlf	___fldiv@b,f
  7863     1220  0DA5               	rlf	___fldiv@b+1,f
  7864     1221  0DA6               	rlf	___fldiv@b+2,f
  7865     1222  0DA7               	rlf	___fldiv@b+3,f
  7866     1223  0BA8               	decfsz	??___fldiv,f
  7867     1224  2A1E               	goto	u3695
  7868     1225                     l2912:
  7869     1225  1FB7               	btfss	___fldiv@grs+3,7
  7870     1226  2A28               	goto	u3701
  7871     1227  2A29               	goto	u3700
  7872     1228                     u3701:
  7873     1228  2A2A               	goto	l2916
  7874     1229                     u3700:
  7875     1229                     l2914:
  7876     1229  1424               	bsf	___fldiv@b,0
  7877     122A                     l2916:
  7878     122A  3001               	movlw	1
  7879     122B  00A8               	movwf	??___fldiv
  7880     122C                     u3715:
  7881     122C  1003               	clrc
  7882     122D  0DB4               	rlf	___fldiv@grs,f
  7883     122E  0DB5               	rlf	___fldiv@grs+1,f
  7884     122F  0DB6               	rlf	___fldiv@grs+2,f
  7885     1230  0DB7               	rlf	___fldiv@grs+3,f
  7886     1231  0BA8               	decfsz	??___fldiv,f
  7887     1232  2A2C               	goto	u3715
  7888     1233                     l2918:
  7889     1233  0823               	movf	___fldiv@a+3,w
  7890     1234  0230               	subwf	___fldiv@rem+3,w
  7891     1235  1D03               	skipz
  7892     1236  2A41               	goto	u3725
  7893     1237  0822               	movf	___fldiv@a+2,w
  7894     1238  022F               	subwf	___fldiv@rem+2,w
  7895     1239  1D03               	skipz
  7896     123A  2A41               	goto	u3725
  7897     123B  0821               	movf	___fldiv@a+1,w
  7898     123C  022E               	subwf	___fldiv@rem+1,w
  7899     123D  1D03               	skipz
  7900     123E  2A41               	goto	u3725
  7901     123F  0820               	movf	___fldiv@a,w
  7902     1240  022D               	subwf	___fldiv@rem,w
  7903     1241                     u3725:
  7904     1241  1C03               	skipc
  7905     1242  2A44               	goto	u3721
  7906     1243  2A45               	goto	u3720
  7907     1244                     u3721:
  7908     1244  2A54               	goto	l2924
  7909     1245                     u3720:
  7910     1245                     l2920:
  7911     1245  1737               	bsf	___fldiv@grs+3,6
  7912     1246                     l2922:
  7913     1246  0820               	movf	___fldiv@a,w
  7914     1247  02AD               	subwf	___fldiv@rem,f
  7915     1248  0821               	movf	___fldiv@a+1,w
  7916     1249  1C03               	skipc
  7917     124A  0F21               	incfsz	___fldiv@a+1,w
  7918     124B  02AE               	subwf	___fldiv@rem+1,f
  7919     124C  0822               	movf	___fldiv@a+2,w
  7920     124D  1C03               	skipc
  7921     124E  0F22               	incfsz	___fldiv@a+2,w
  7922     124F  02AF               	subwf	___fldiv@rem+2,f
  7923     1250  0823               	movf	___fldiv@a+3,w
  7924     1251  1C03               	skipc
  7925     1252  0F23               	incfsz	___fldiv@a+3,w
  7926     1253  02B0               	subwf	___fldiv@rem+3,f
  7927     1254                     l2924:
  7928     1254  3001               	movlw	1
  7929     1255  07B9               	addwf	___fldiv@aexp,f
  7930     1256                     l2926:
  7931     1256  301A               	movlw	26
  7932     1257  0239               	subwf	___fldiv@aexp,w
  7933     1258  1C03               	skipc
  7934     1259  2A5B               	goto	u3731
  7935     125A  2A5C               	goto	u3730
  7936     125B                     u3731:
  7937     125B  2A0E               	goto	l2908
  7938     125C                     u3730:
  7939     125C                     l2928:
  7940     125C  0830               	movf	___fldiv@rem+3,w
  7941     125D  042F               	iorwf	___fldiv@rem+2,w
  7942     125E  042E               	iorwf	___fldiv@rem+1,w
  7943     125F  042D               	iorwf	___fldiv@rem,w
  7944     1260  1903               	skipnz
  7945     1261  2A63               	goto	u3741
  7946     1262  2A64               	goto	u3740
  7947     1263                     u3741:
  7948     1263  2A83               	goto	l2942
  7949     1264                     u3740:
  7950     1264                     l2930:
  7951     1264  1434               	bsf	___fldiv@grs,0
  7952     1265  2A83               	goto	l2942
  7953     1266                     l2932:
  7954     1266  3001               	movlw	1
  7955     1267  00A8               	movwf	??___fldiv
  7956     1268                     u3755:
  7957     1268  1003               	clrc
  7958     1269  0DA4               	rlf	___fldiv@b,f
  7959     126A  0DA5               	rlf	___fldiv@b+1,f
  7960     126B  0DA6               	rlf	___fldiv@b+2,f
  7961     126C  0DA7               	rlf	___fldiv@b+3,f
  7962     126D  0BA8               	decfsz	??___fldiv,f
  7963     126E  2A68               	goto	u3755
  7964     126F                     l2934:
  7965     126F  1FB7               	btfss	___fldiv@grs+3,7
  7966     1270  2A72               	goto	u3761
  7967     1271  2A73               	goto	u3760
  7968     1272                     u3761:
  7969     1272  2A74               	goto	l2938
  7970     1273                     u3760:
  7971     1273                     l2936:
  7972     1273  1424               	bsf	___fldiv@b,0
  7973     1274                     l2938:
  7974     1274  3001               	movlw	1
  7975     1275  00A8               	movwf	??___fldiv
  7976     1276                     u3775:
  7977     1276  1003               	clrc
  7978     1277  0DB4               	rlf	___fldiv@grs,f
  7979     1278  0DB5               	rlf	___fldiv@grs+1,f
  7980     1279  0DB6               	rlf	___fldiv@grs+2,f
  7981     127A  0DB7               	rlf	___fldiv@grs+3,f
  7982     127B  0BA8               	decfsz	??___fldiv,f
  7983     127C  2A76               	goto	u3775
  7984     127D                     l2940:
  7985     127D  30FF               	movlw	255
  7986     127E  07B2               	addwf	___fldiv@new_exp,f
  7987     127F  1803               	skipnc
  7988     1280  0AB3               	incf	___fldiv@new_exp+1,f
  7989     1281  30FF               	movlw	255
  7990     1282  07B3               	addwf	___fldiv@new_exp+1,f
  7991     1283                     l2942:
  7992     1283  1FA6               	btfss	___fldiv@b+2,7
  7993     1284  2A86               	goto	u3781
  7994     1285  2A87               	goto	u3780
  7995     1286                     u3781:
  7996     1286  2A66               	goto	l2932
  7997     1287                     u3780:
  7998     1287                     l2944:
  7999     1287  01B9               	clrf	___fldiv@aexp
  8000     1288                     l2946:
  8001     1288  1FB7               	btfss	___fldiv@grs+3,7
  8002     1289  2A8B               	goto	u3791
  8003     128A  2A8C               	goto	u3790
  8004     128B                     u3791:
  8005     128B  2AA8               	goto	l2954
  8006     128C                     u3790:
  8007     128C                     l2948:
  8008     128C  30FF               	movlw	255
  8009     128D  0534               	andwf	___fldiv@grs,w
  8010     128E  00A8               	movwf	??___fldiv
  8011     128F  30FF               	movlw	255
  8012     1290  0535               	andwf	___fldiv@grs+1,w
  8013     1291  00A9               	movwf	??___fldiv+1
  8014     1292  30FF               	movlw	255
  8015     1293  0536               	andwf	___fldiv@grs+2,w
  8016     1294  00AA               	movwf	??___fldiv+2
  8017     1295  307F               	movlw	127
  8018     1296  0537               	andwf	___fldiv@grs+3,w
  8019     1297  00AB               	movwf	??___fldiv+3
  8020     1298  082B               	movf	??___fldiv+3,w
  8021     1299  042A               	iorwf	??___fldiv+2,w
  8022     129A  0429               	iorwf	??___fldiv+1,w
  8023     129B  0428               	iorwf	??___fldiv,w
  8024     129C  1903               	skipnz
  8025     129D  2A9F               	goto	u3801
  8026     129E  2AA0               	goto	u3800
  8027     129F                     u3801:
  8028     129F  2AA3               	goto	l694
  8029     12A0                     u3800:
  8030     12A0                     l2950:
  8031     12A0  3001               	movlw	1
  8032     12A1  00B9               	movwf	___fldiv@aexp
  8033     12A2  2AA8               	goto	l2954
  8034     12A3                     l694:
  8035     12A3  1C24               	btfss	___fldiv@b,0
  8036     12A4  2AA6               	goto	u3811
  8037     12A5  2AA7               	goto	u3810
  8038     12A6                     u3811:
  8039     12A6  2AA8               	goto	l2954
  8040     12A7                     u3810:
  8041     12A7  2AA0               	goto	l2950
  8042     12A8                     l2954:
  8043     12A8  0839               	movf	___fldiv@aexp,w
  8044     12A9  1903               	btfsc	3,2
  8045     12AA  2AAC               	goto	u3821
  8046     12AB  2AAD               	goto	u3820
  8047     12AC                     u3821:
  8048     12AC  2ADE               	goto	l2964
  8049     12AD                     u3820:
  8050     12AD                     l2956:
  8051     12AD  3001               	movlw	1
  8052     12AE  07A4               	addwf	___fldiv@b,f
  8053     12AF  3000               	movlw	0
  8054     12B0  1803               	skipnc
  8055     12B1  3001               	movlw	1
  8056     12B2  07A5               	addwf	___fldiv@b+1,f
  8057     12B3  3000               	movlw	0
  8058     12B4  1803               	skipnc
  8059     12B5  3001               	movlw	1
  8060     12B6  07A6               	addwf	___fldiv@b+2,f
  8061     12B7  3000               	movlw	0
  8062     12B8  1803               	skipnc
  8063     12B9  3001               	movlw	1
  8064     12BA  07A7               	addwf	___fldiv@b+3,f
  8065     12BB                     l2958:
  8066     12BB  1C27               	btfss	___fldiv@b+3,0
  8067     12BC  2ABE               	goto	u3831
  8068     12BD  2ABF               	goto	u3830
  8069     12BE                     u3831:
  8070     12BE  2ADE               	goto	l2964
  8071     12BF                     u3830:
  8072     12BF                     l2960:
  8073     12BF  0824               	movf	___fldiv@b,w
  8074     12C0  00A8               	movwf	??___fldiv
  8075     12C1  0825               	movf	___fldiv@b+1,w
  8076     12C2  00A9               	movwf	??___fldiv+1
  8077     12C3  0826               	movf	___fldiv@b+2,w
  8078     12C4  00AA               	movwf	??___fldiv+2
  8079     12C5  0827               	movf	___fldiv@b+3,w
  8080     12C6  00AB               	movwf	??___fldiv+3
  8081     12C7  3001               	movlw	1
  8082     12C8  00AC               	movwf	??___fldiv+4
  8083     12C9                     u3845:
  8084     12C9  0D2B               	rlf	??___fldiv+3,w
  8085     12CA  0CAB               	rrf	??___fldiv+3,f
  8086     12CB  0CAA               	rrf	??___fldiv+2,f
  8087     12CC  0CA9               	rrf	??___fldiv+1,f
  8088     12CD  0CA8               	rrf	??___fldiv,f
  8089     12CE                     u3840:
  8090     12CE  0BAC               	decfsz	??___fldiv+4,f
  8091     12CF  2AC9               	goto	u3845
  8092     12D0  082B               	movf	??___fldiv+3,w
  8093     12D1  00A7               	movwf	___fldiv@b+3
  8094     12D2  082A               	movf	??___fldiv+2,w
  8095     12D3  00A6               	movwf	___fldiv@b+2
  8096     12D4  0829               	movf	??___fldiv+1,w
  8097     12D5  00A5               	movwf	___fldiv@b+1
  8098     12D6  0828               	movf	??___fldiv,w
  8099     12D7  00A4               	movwf	___fldiv@b
  8100     12D8                     l2962:
  8101     12D8  3001               	movlw	1
  8102     12D9  07B2               	addwf	___fldiv@new_exp,f
  8103     12DA  1803               	skipnc
  8104     12DB  0AB3               	incf	___fldiv@new_exp+1,f
  8105     12DC  3000               	movlw	0
  8106     12DD  07B3               	addwf	___fldiv@new_exp+1,f
  8107     12DE                     l2964:
  8108     12DE  0833               	movf	___fldiv@new_exp+1,w
  8109     12DF  3A80               	xorlw	128
  8110     12E0  00FF               	movwf	btemp1
  8111     12E1  3080               	movlw	128
  8112     12E2  027F               	subwf	btemp1,w
  8113     12E3  1D03               	skipz
  8114     12E4  2AE7               	goto	u3855
  8115     12E5  30FF               	movlw	255
  8116     12E6  0232               	subwf	___fldiv@new_exp,w
  8117     12E7                     u3855:
  8118     12E7  1C03               	skipc
  8119     12E8  2AEA               	goto	u3851
  8120     12E9  2AEB               	goto	u3850
  8121     12EA                     u3851:
  8122     12EA  2AF9               	goto	l2968
  8123     12EB                     u3850:
  8124     12EB                     l2966:
  8125     12EB  30FF               	movlw	255
  8126     12EC  1283               	bcf	3,5	;RP0=0, select bank0
  8127     12ED  1303               	bcf	3,6	;RP1=0, select bank0
  8128     12EE  00B2               	movwf	___fldiv@new_exp
  8129     12EF  3000               	movlw	0
  8130     12F0  00B3               	movwf	___fldiv@new_exp+1
  8131     12F1  3000               	movlw	0
  8132     12F2  00A7               	movwf	___fldiv@b+3
  8133     12F3  3000               	movlw	0
  8134     12F4  00A6               	movwf	___fldiv@b+2
  8135     12F5  3000               	movlw	0
  8136     12F6  00A5               	movwf	___fldiv@b+1
  8137     12F7  3000               	movlw	0
  8138     12F8  00A4               	movwf	___fldiv@b
  8139     12F9                     l2968:
  8140     12F9  1283               	bcf	3,5	;RP0=0, select bank0
  8141     12FA  1303               	bcf	3,6	;RP1=0, select bank0
  8142     12FB  0833               	movf	___fldiv@new_exp+1,w
  8143     12FC  3A80               	xorlw	128
  8144     12FD  00FF               	movwf	btemp1
  8145     12FE  3080               	movlw	128
  8146     12FF  027F               	subwf	btemp1,w
  8147     1300  1D03               	skipz
  8148     1301  2B04               	goto	u3865
  8149     1302  3001               	movlw	1
  8150     1303  0232               	subwf	___fldiv@new_exp,w
  8151     1304                     u3865:
  8152     1304  1803               	skipnc
  8153     1305  2B07               	goto	u3861
  8154     1306  2B08               	goto	u3860
  8155     1307                     u3861:
  8156     1307  2B15               	goto	l700
  8157     1308                     u3860:
  8158     1308                     l2970:
  8159     1308  1283               	bcf	3,5	;RP0=0, select bank0
  8160     1309  1303               	bcf	3,6	;RP1=0, select bank0
  8161     130A  01B2               	clrf	___fldiv@new_exp
  8162     130B  01B3               	clrf	___fldiv@new_exp+1
  8163     130C                     l2972:
  8164     130C  3000               	movlw	0
  8165     130D  00A7               	movwf	___fldiv@b+3
  8166     130E  3000               	movlw	0
  8167     130F  00A6               	movwf	___fldiv@b+2
  8168     1310  3000               	movlw	0
  8169     1311  00A5               	movwf	___fldiv@b+1
  8170     1312  3000               	movlw	0
  8171     1313  00A4               	movwf	___fldiv@b
  8172     1314                     l2974:
  8173     1314  01B1               	clrf	___fldiv@sign
  8174     1315                     l700:
  8175     1315  1283               	bcf	3,5	;RP0=0, select bank0
  8176     1316  1303               	bcf	3,6	;RP1=0, select bank0
  8177     1317  0832               	movf	___fldiv@new_exp,w
  8178     1318  00B8               	movwf	___fldiv@bexp
  8179     1319                     l2976:
  8180     1319  1C38               	btfss	___fldiv@bexp,0
  8181     131A  2B1C               	goto	u3871
  8182     131B  2B1D               	goto	u3870
  8183     131C                     u3871:
  8184     131C  2B1F               	goto	l2980
  8185     131D                     u3870:
  8186     131D                     l2978:
  8187     131D  17A6               	bsf	___fldiv@b+2,7
  8188     131E  2B21               	goto	l702
  8189     131F                     l2980:
  8190     131F  307F               	movlw	127
  8191     1320  05A6               	andwf	___fldiv@b+2,f
  8192     1321                     l702:
  8193     1321  0838               	movf	___fldiv@bexp,w
  8194     1322  00A8               	movwf	??___fldiv
  8195     1323  1003               	clrc
  8196     1324  0C28               	rrf	??___fldiv,w
  8197     1325  00A7               	movwf	___fldiv@b+3
  8198     1326  0831               	movf	___fldiv@sign,w
  8199     1327  04A7               	iorwf	___fldiv@b+3,f
  8200     1328  29CB               	goto	l2888
  8201     1329                     l680:
  8202     1329  0008               	return
  8203     132A                     __end_of___fldiv:
  8204                           
  8205                           	psect	text26
  8206     1998                     __ptext26:	
  8207 ;; *************** function _abs *****************
  8208 ;; Defined at:
  8209 ;;		line 1 in file "/opt/microchip/xc8/v3.10/pic/sources/c99/common/abs.c"
  8210 ;; Parameters:    Size  Location     Type
  8211 ;;  a               2    6[BANK0 ] int 
  8212 ;; Auto vars:     Size  Location     Type
  8213 ;;		None
  8214 ;; Return value:  Size  Location     Type
  8215 ;;                  2    6[BANK0 ] int 
  8216 ;; Registers used:
  8217 ;;		wreg, status,2, status,0
  8218 ;; Tracked objects:
  8219 ;;		On entry : 0/0
  8220 ;;		On exit  : 0/0
  8221 ;;		Unchanged: 0/0
  8222 ;; Data sizes:     COMMON   BANK0   BANK1   BANK3   BANK2
  8223 ;;      Params:         0       2       0       0       0
  8224 ;;      Locals:         0       0       0       0       0
  8225 ;;      Temps:          0       2       0       0       0
  8226 ;;      Totals:         0       4       0       0       0
  8227 ;;Total ram usage:        4 bytes
  8228 ;; Hardware stack levels used: 1
  8229 ;; Hardware stack levels required when called: 1
  8230 ;; This function calls:
  8231 ;;		Nothing
  8232 ;; This function is called by:
  8233 ;;		_vfpfcnvrt
  8234 ;; This function uses a non-reentrant model
  8235 ;;
  8236                           
  8237     1998                     _abs:	
  8238                           ;psect for function _abs
  8239                           
  8240     1998                     l3510:	
  8241                           ;incstack = 0
  8242                           ; Regs used in _abs: [wreg+status,2+status,0]
  8243                           
  8244     1998  1283               	bcf	3,5	;RP0=0, select bank0
  8245     1999  1303               	bcf	3,6	;RP1=0, select bank0
  8246     199A  1BA7               	btfsc	abs@a+1,7
  8247     199B  299D               	goto	u5041
  8248     199C  299E               	goto	u5040
  8249     199D                     u5041:
  8250     199D  299F               	goto	l3514
  8251     199E                     u5040:
  8252     199E                     l3512:
  8253     199E  29AA               	goto	l924
  8254     199F                     l3514:
  8255     199F  0926               	comf	abs@a,w
  8256     19A0  00A8               	movwf	??_abs
  8257     19A1  0927               	comf	abs@a+1,w
  8258     19A2  00A9               	movwf	??_abs+1
  8259     19A3  0AA8               	incf	??_abs,f
  8260     19A4  1903               	skipnz
  8261     19A5  0AA9               	incf	??_abs+1,f
  8262     19A6  0828               	movf	??_abs,w
  8263     19A7  00A6               	movwf	?_abs
  8264     19A8  0829               	movf	??_abs+1,w
  8265     19A9  00A7               	movwf	?_abs+1
  8266     19AA                     l924:
  8267     19AA  0008               	return
  8268     19AB                     __end_of_abs:
  8269                           
  8270                           	psect	text27
  8271     1BED                     __ptext27:	
  8272 ;; *************** function ___awmod *****************
  8273 ;; Defined at:
  8274 ;;		line 5 in file "/opt/microchip/xc8/v3.10/pic/sources/c99/common/awmod.c"
  8275 ;; Parameters:    Size  Location     Type
  8276 ;;  divisor         2    0[BANK0 ] int 
  8277 ;;  dividend        2    2[BANK0 ] int 
  8278 ;; Auto vars:     Size  Location     Type
  8279 ;;  sign            1    5[BANK0 ] unsigned char 
  8280 ;;  counter         1    4[BANK0 ] unsigned char 
  8281 ;; Return value:  Size  Location     Type
  8282 ;;                  2    0[BANK0 ] int 
  8283 ;; Registers used:
  8284 ;;		wreg, status,2, status,0
  8285 ;; Tracked objects:
  8286 ;;		On entry : 0/0
  8287 ;;		On exit  : 0/0
  8288 ;;		Unchanged: 0/0
  8289 ;; Data sizes:     COMMON   BANK0   BANK1   BANK3   BANK2
  8290 ;;      Params:         0       4       0       0       0
  8291 ;;      Locals:         0       2       0       0       0
  8292 ;;      Temps:          0       0       0       0       0
  8293 ;;      Totals:         0       6       0       0       0
  8294 ;;Total ram usage:        6 bytes
  8295 ;; Hardware stack levels used: 1
  8296 ;; Hardware stack levels required when called: 1
  8297 ;; This function calls:
  8298 ;;		Nothing
  8299 ;; This function is called by:
  8300 ;;		_vfpfcnvrt
  8301 ;; This function uses a non-reentrant model
  8302 ;;
  8303                           
  8304     1BED                     ___awmod:	
  8305                           ;psect for function ___awmod
  8306                           
  8307     1BED                     l3258:	
  8308                           ;incstack = 0
  8309                           ; Regs used in ___awmod: [wreg+status,2+status,0]
  8310                           
  8311     1BED  1283               	bcf	3,5	;RP0=0, select bank0
  8312     1BEE  1303               	bcf	3,6	;RP1=0, select bank0
  8313     1BEF  01A5               	clrf	___awmod@sign
  8314     1BF0                     l3260:
  8315     1BF0  1FA3               	btfss	___awmod@dividend+1,7
  8316     1BF1  2BF3               	goto	u4601
  8317     1BF2  2BF4               	goto	u4600
  8318     1BF3                     u4601:
  8319     1BF3  2BFB               	goto	l3266
  8320     1BF4                     u4600:
  8321     1BF4                     l3262:
  8322     1BF4  09A2               	comf	___awmod@dividend,f
  8323     1BF5  09A3               	comf	___awmod@dividend+1,f
  8324     1BF6  0AA2               	incf	___awmod@dividend,f
  8325     1BF7  1903               	skipnz
  8326     1BF8  0AA3               	incf	___awmod@dividend+1,f
  8327     1BF9                     l3264:
  8328     1BF9  3001               	movlw	1
  8329     1BFA  00A5               	movwf	___awmod@sign
  8330     1BFB                     l3266:
  8331     1BFB  1FA1               	btfss	___awmod@divisor+1,7
  8332     1BFC  2BFE               	goto	u4611
  8333     1BFD  2BFF               	goto	u4610
  8334     1BFE                     u4611:
  8335     1BFE  2C04               	goto	l3270
  8336     1BFF                     u4610:
  8337     1BFF                     l3268:
  8338     1BFF  09A0               	comf	___awmod@divisor,f
  8339     1C00  09A1               	comf	___awmod@divisor+1,f
  8340     1C01  0AA0               	incf	___awmod@divisor,f
  8341     1C02  1903               	skipnz
  8342     1C03  0AA1               	incf	___awmod@divisor+1,f
  8343     1C04                     l3270:
  8344     1C04  0820               	movf	___awmod@divisor,w
  8345     1C05  0421               	iorwf	___awmod@divisor+1,w
  8346     1C06  1903               	btfsc	3,2
  8347     1C07  2C09               	goto	u4621
  8348     1C08  2C0A               	goto	u4620
  8349     1C09                     u4621:
  8350     1C09  2C37               	goto	l3288
  8351     1C0A                     u4620:
  8352     1C0A                     l3272:
  8353     1C0A  3001               	movlw	1
  8354     1C0B  00A4               	movwf	___awmod@counter
  8355     1C0C  2C16               	goto	l3278
  8356     1C0D                     l3274:
  8357     1C0D  3001               	movlw	1
  8358     1C0E                     u4635:
  8359     1C0E  1003               	clrc
  8360     1C0F  0DA0               	rlf	___awmod@divisor,f
  8361     1C10  0DA1               	rlf	___awmod@divisor+1,f
  8362     1C11  3EFF               	addlw	-1
  8363     1C12  1D03               	skipz
  8364     1C13  2C0E               	goto	u4635
  8365     1C14                     l3276:
  8366     1C14  3001               	movlw	1
  8367     1C15  07A4               	addwf	___awmod@counter,f
  8368     1C16                     l3278:
  8369     1C16  1FA1               	btfss	___awmod@divisor+1,7
  8370     1C17  2C19               	goto	u4641
  8371     1C18  2C1A               	goto	u4640
  8372     1C19                     u4641:
  8373     1C19  2C0D               	goto	l3274
  8374     1C1A                     u4640:
  8375     1C1A                     l3280:
  8376     1C1A  0821               	movf	___awmod@divisor+1,w
  8377     1C1B  0223               	subwf	___awmod@dividend+1,w
  8378     1C1C  1D03               	skipz
  8379     1C1D  2C20               	goto	u4655
  8380     1C1E  0820               	movf	___awmod@divisor,w
  8381     1C1F  0222               	subwf	___awmod@dividend,w
  8382     1C20                     u4655:
  8383     1C20  1C03               	skipc
  8384     1C21  2C23               	goto	u4651
  8385     1C22  2C24               	goto	u4650
  8386     1C23                     u4651:
  8387     1C23  2C2A               	goto	l3284
  8388     1C24                     u4650:
  8389     1C24                     l3282:
  8390     1C24  0820               	movf	___awmod@divisor,w
  8391     1C25  02A2               	subwf	___awmod@dividend,f
  8392     1C26  0821               	movf	___awmod@divisor+1,w
  8393     1C27  1C03               	skipc
  8394     1C28  03A3               	decf	___awmod@dividend+1,f
  8395     1C29  02A3               	subwf	___awmod@dividend+1,f
  8396     1C2A                     l3284:
  8397     1C2A  3001               	movlw	1
  8398     1C2B                     u4665:
  8399     1C2B  1003               	clrc
  8400     1C2C  0CA1               	rrf	___awmod@divisor+1,f
  8401     1C2D  0CA0               	rrf	___awmod@divisor,f
  8402     1C2E  3EFF               	addlw	-1
  8403     1C2F  1D03               	skipz
  8404     1C30  2C2B               	goto	u4665
  8405     1C31                     l3286:
  8406     1C31  3001               	movlw	1
  8407     1C32  02A4               	subwf	___awmod@counter,f
  8408     1C33  1D03               	btfss	3,2
  8409     1C34  2C36               	goto	u4671
  8410     1C35  2C37               	goto	u4670
  8411     1C36                     u4671:
  8412     1C36  2C1A               	goto	l3280
  8413     1C37                     u4670:
  8414     1C37                     l3288:
  8415     1C37  0825               	movf	___awmod@sign,w
  8416     1C38  1903               	btfsc	3,2
  8417     1C39  2C3B               	goto	u4681
  8418     1C3A  2C3C               	goto	u4680
  8419     1C3B                     u4681:
  8420     1C3B  2C41               	goto	l3292
  8421     1C3C                     u4680:
  8422     1C3C                     l3290:
  8423     1C3C  09A2               	comf	___awmod@dividend,f
  8424     1C3D  09A3               	comf	___awmod@dividend+1,f
  8425     1C3E  0AA2               	incf	___awmod@dividend,f
  8426     1C3F  1903               	skipnz
  8427     1C40  0AA3               	incf	___awmod@dividend+1,f
  8428     1C41                     l3292:
  8429     1C41  0823               	movf	___awmod@dividend+1,w
  8430     1C42  00A1               	movwf	?___awmod+1
  8431     1C43  0822               	movf	___awmod@dividend,w
  8432     1C44  00A0               	movwf	?___awmod
  8433     1C45                     l487:
  8434     1C45  0008               	return
  8435     1C46                     __end_of___awmod:
  8436                           
  8437                           	psect	text28
  8438     1C46                     __ptext28:	
  8439 ;; *************** function ___awdiv *****************
  8440 ;; Defined at:
  8441 ;;		line 5 in file "/opt/microchip/xc8/v3.10/pic/sources/c99/common/awdiv.c"
  8442 ;; Parameters:    Size  Location     Type
  8443 ;;  divisor         2    0[BANK0 ] int 
  8444 ;;  dividend        2    2[BANK0 ] int 
  8445 ;; Auto vars:     Size  Location     Type
  8446 ;;  quotient        2    6[BANK0 ] int 
  8447 ;;  sign            1    5[BANK0 ] unsigned char 
  8448 ;;  counter         1    4[BANK0 ] unsigned char 
  8449 ;; Return value:  Size  Location     Type
  8450 ;;                  2    0[BANK0 ] int 
  8451 ;; Registers used:
  8452 ;;		wreg, status,2, status,0
  8453 ;; Tracked objects:
  8454 ;;		On entry : 0/0
  8455 ;;		On exit  : 0/0
  8456 ;;		Unchanged: 0/0
  8457 ;; Data sizes:     COMMON   BANK0   BANK1   BANK3   BANK2
  8458 ;;      Params:         0       4       0       0       0
  8459 ;;      Locals:         0       4       0       0       0
  8460 ;;      Temps:          0       0       0       0       0
  8461 ;;      Totals:         0       8       0       0       0
  8462 ;;Total ram usage:        8 bytes
  8463 ;; Hardware stack levels used: 1
  8464 ;; Hardware stack levels required when called: 1
  8465 ;; This function calls:
  8466 ;;		Nothing
  8467 ;; This function is called by:
  8468 ;;		_vfpfcnvrt
  8469 ;; This function uses a non-reentrant model
  8470 ;;
  8471                           
  8472     1C46                     ___awdiv:	
  8473                           ;psect for function ___awdiv
  8474                           
  8475     1C46                     l3214:	
  8476                           ;incstack = 0
  8477                           ; Regs used in ___awdiv: [wreg+status,2+status,0]
  8478                           
  8479     1C46  1283               	bcf	3,5	;RP0=0, select bank0
  8480     1C47  1303               	bcf	3,6	;RP1=0, select bank0
  8481     1C48  01A5               	clrf	___awdiv@sign
  8482     1C49                     l3216:
  8483     1C49  1FA1               	btfss	___awdiv@divisor+1,7
  8484     1C4A  2C4C               	goto	u4501
  8485     1C4B  2C4D               	goto	u4500
  8486     1C4C                     u4501:
  8487     1C4C  2C54               	goto	l3222
  8488     1C4D                     u4500:
  8489     1C4D                     l3218:
  8490     1C4D  09A0               	comf	___awdiv@divisor,f
  8491     1C4E  09A1               	comf	___awdiv@divisor+1,f
  8492     1C4F  0AA0               	incf	___awdiv@divisor,f
  8493     1C50  1903               	skipnz
  8494     1C51  0AA1               	incf	___awdiv@divisor+1,f
  8495     1C52                     l3220:
  8496     1C52  3001               	movlw	1
  8497     1C53  00A5               	movwf	___awdiv@sign
  8498     1C54                     l3222:
  8499     1C54  1FA3               	btfss	___awdiv@dividend+1,7
  8500     1C55  2C57               	goto	u4511
  8501     1C56  2C58               	goto	u4510
  8502     1C57                     u4511:
  8503     1C57  2C5F               	goto	l3228
  8504     1C58                     u4510:
  8505     1C58                     l3224:
  8506     1C58  09A2               	comf	___awdiv@dividend,f
  8507     1C59  09A3               	comf	___awdiv@dividend+1,f
  8508     1C5A  0AA2               	incf	___awdiv@dividend,f
  8509     1C5B  1903               	skipnz
  8510     1C5C  0AA3               	incf	___awdiv@dividend+1,f
  8511     1C5D                     l3226:
  8512     1C5D  3001               	movlw	1
  8513     1C5E  06A5               	xorwf	___awdiv@sign,f
  8514     1C5F                     l3228:
  8515     1C5F  01A6               	clrf	___awdiv@quotient
  8516     1C60  01A7               	clrf	___awdiv@quotient+1
  8517     1C61                     l3230:
  8518     1C61  0820               	movf	___awdiv@divisor,w
  8519     1C62  0421               	iorwf	___awdiv@divisor+1,w
  8520     1C63  1903               	btfsc	3,2
  8521     1C64  2C66               	goto	u4521
  8522     1C65  2C67               	goto	u4520
  8523     1C66                     u4521:
  8524     1C66  2C9C               	goto	l3250
  8525     1C67                     u4520:
  8526     1C67                     l3232:
  8527     1C67  3001               	movlw	1
  8528     1C68  00A4               	movwf	___awdiv@counter
  8529     1C69  2C73               	goto	l3238
  8530     1C6A                     l3234:
  8531     1C6A  3001               	movlw	1
  8532     1C6B                     u4535:
  8533     1C6B  1003               	clrc
  8534     1C6C  0DA0               	rlf	___awdiv@divisor,f
  8535     1C6D  0DA1               	rlf	___awdiv@divisor+1,f
  8536     1C6E  3EFF               	addlw	-1
  8537     1C6F  1D03               	skipz
  8538     1C70  2C6B               	goto	u4535
  8539     1C71                     l3236:
  8540     1C71  3001               	movlw	1
  8541     1C72  07A4               	addwf	___awdiv@counter,f
  8542     1C73                     l3238:
  8543     1C73  1FA1               	btfss	___awdiv@divisor+1,7
  8544     1C74  2C76               	goto	u4541
  8545     1C75  2C77               	goto	u4540
  8546     1C76                     u4541:
  8547     1C76  2C6A               	goto	l3234
  8548     1C77                     u4540:
  8549     1C77                     l3240:
  8550     1C77  3001               	movlw	1
  8551     1C78                     u4555:
  8552     1C78  1003               	clrc
  8553     1C79  0DA6               	rlf	___awdiv@quotient,f
  8554     1C7A  0DA7               	rlf	___awdiv@quotient+1,f
  8555     1C7B  3EFF               	addlw	-1
  8556     1C7C  1D03               	skipz
  8557     1C7D  2C78               	goto	u4555
  8558     1C7E  0821               	movf	___awdiv@divisor+1,w
  8559     1C7F  0223               	subwf	___awdiv@dividend+1,w
  8560     1C80  1D03               	skipz
  8561     1C81  2C84               	goto	u4565
  8562     1C82  0820               	movf	___awdiv@divisor,w
  8563     1C83  0222               	subwf	___awdiv@dividend,w
  8564     1C84                     u4565:
  8565     1C84  1C03               	skipc
  8566     1C85  2C87               	goto	u4561
  8567     1C86  2C88               	goto	u4560
  8568     1C87                     u4561:
  8569     1C87  2C8F               	goto	l3246
  8570     1C88                     u4560:
  8571     1C88                     l3242:
  8572     1C88  0820               	movf	___awdiv@divisor,w
  8573     1C89  02A2               	subwf	___awdiv@dividend,f
  8574     1C8A  0821               	movf	___awdiv@divisor+1,w
  8575     1C8B  1C03               	skipc
  8576     1C8C  03A3               	decf	___awdiv@dividend+1,f
  8577     1C8D  02A3               	subwf	___awdiv@dividend+1,f
  8578     1C8E                     l3244:
  8579     1C8E  1426               	bsf	___awdiv@quotient,0
  8580     1C8F                     l3246:
  8581     1C8F  3001               	movlw	1
  8582     1C90                     u4575:
  8583     1C90  1003               	clrc
  8584     1C91  0CA1               	rrf	___awdiv@divisor+1,f
  8585     1C92  0CA0               	rrf	___awdiv@divisor,f
  8586     1C93  3EFF               	addlw	-1
  8587     1C94  1D03               	skipz
  8588     1C95  2C90               	goto	u4575
  8589     1C96                     l3248:
  8590     1C96  3001               	movlw	1
  8591     1C97  02A4               	subwf	___awdiv@counter,f
  8592     1C98  1D03               	btfss	3,2
  8593     1C99  2C9B               	goto	u4581
  8594     1C9A  2C9C               	goto	u4580
  8595     1C9B                     u4581:
  8596     1C9B  2C77               	goto	l3240
  8597     1C9C                     u4580:
  8598     1C9C                     l3250:
  8599     1C9C  0825               	movf	___awdiv@sign,w
  8600     1C9D  1903               	btfsc	3,2
  8601     1C9E  2CA0               	goto	u4591
  8602     1C9F  2CA1               	goto	u4590
  8603     1CA0                     u4591:
  8604     1CA0  2CA6               	goto	l3254
  8605     1CA1                     u4590:
  8606     1CA1                     l3252:
  8607     1CA1  09A6               	comf	___awdiv@quotient,f
  8608     1CA2  09A7               	comf	___awdiv@quotient+1,f
  8609     1CA3  0AA6               	incf	___awdiv@quotient,f
  8610     1CA4  1903               	skipnz
  8611     1CA5  0AA7               	incf	___awdiv@quotient+1,f
  8612     1CA6                     l3254:
  8613     1CA6  0827               	movf	___awdiv@quotient+1,w
  8614     1CA7  00A1               	movwf	?___awdiv+1
  8615     1CA8  0826               	movf	___awdiv@quotient,w
  8616     1CA9  00A0               	movwf	?___awdiv
  8617     1CAA                     l474:
  8618     1CAA  0008               	return
  8619     1CAB                     __end_of___awdiv:
  8620                           
  8621                           	psect	text29
  8622     1978                     __ptext29:	
  8623 ;; *************** function _init_TMR0 *****************
  8624 ;; Defined at:
  8625 ;;		line 168 in file "../../Code/main.c"
  8626 ;; Parameters:    Size  Location     Type
  8627 ;;		None
  8628 ;; Auto vars:     Size  Location     Type
  8629 ;;		None
  8630 ;; Return value:  Size  Location     Type
  8631 ;;                  1    wreg      void 
  8632 ;; Registers used:
  8633 ;;		wreg, status,2, status,0
  8634 ;; Tracked objects:
  8635 ;;		On entry : 0/0
  8636 ;;		On exit  : 0/0
  8637 ;;		Unchanged: 0/0
  8638 ;; Data sizes:     COMMON   BANK0   BANK1   BANK3   BANK2
  8639 ;;      Params:         0       0       0       0       0
  8640 ;;      Locals:         0       0       0       0       0
  8641 ;;      Temps:          0       0       0       0       0
  8642 ;;      Totals:         0       0       0       0       0
  8643 ;;Total ram usage:        0 bytes
  8644 ;; Hardware stack levels used: 1
  8645 ;; Hardware stack levels required when called: 1
  8646 ;; This function calls:
  8647 ;;		Nothing
  8648 ;; This function is called by:
  8649 ;;		_main
  8650 ;; This function uses a non-reentrant model
  8651 ;;
  8652                           
  8653     1978                     _init_TMR0:	
  8654                           ;psect for function _init_TMR0
  8655                           
  8656     1978                     l3794:	
  8657                           ;incstack = 0
  8658                           ; Regs used in _init_TMR0: [wreg+status,2+status,0]
  8659                           
  8660                           
  8661                           ;../../Code/main.c: 170:     OPTION_REGbits.T0CS = 0;
  8662     1978  1683               	bsf	3,5	;RP0=1, select bank1
  8663     1979  1303               	bcf	3,6	;RP1=0, select bank1
  8664     197A  1281               	bcf	1,5	;volatile
  8665                           
  8666                           ;../../Code/main.c: 171:     OPTION_REGbits.PSA = 0;
  8667     197B  1181               	bcf	1,3	;volatile
  8668     197C                     l3796:
  8669                           
  8670                           ;../../Code/main.c: 172:     OPTION_REGbits.PS = 0b110;
  8671     197C  0801               	movf	1,w	;volatile
  8672     197D  39F8               	andlw	-8
  8673     197E  3806               	iorlw	6
  8674     197F  0081               	movwf	1	;volatile
  8675     1980                     l3798:
  8676                           
  8677                           ;../../Code/main.c: 173:     INTCONbits.T0IF = 0;
  8678     1980  110B               	bcf	11,2	;volatile
  8679     1981                     l3800:
  8680                           
  8681                           ;../../Code/main.c: 174:     INTCONbits.T0IE = 1;
  8682     1981  168B               	bsf	11,5	;volatile
  8683     1982                     l3802:
  8684                           
  8685                           ;../../Code/main.c: 175:     TMR0 = 236;
  8686     1982  30EC               	movlw	236
  8687     1983  1283               	bcf	3,5	;RP0=0, select bank0
  8688     1984  1303               	bcf	3,6	;RP1=0, select bank0
  8689     1985  0081               	movwf	1	;volatile
  8690     1986                     l208:
  8691     1986  0008               	return
  8692     1987                     __end_of_init_TMR0:
  8693                           
  8694                           	psect	text30
  8695     1E60                     __ptext30:	
  8696 ;; *************** function _init_PWM *****************
  8697 ;; Defined at:
  8698 ;;		line 14 in file "../../Functions/pwm-v1.c"
  8699 ;; Parameters:    Size  Location     Type
  8700 ;;  freq            2   50[BANK0 ] int 
  8701 ;;  porcentaje      4   52[BANK0 ] float 
  8702 ;; Auto vars:     Size  Location     Type
  8703 ;;		None
  8704 ;; Return value:  Size  Location     Type
  8705 ;;                  1    wreg      void 
  8706 ;; Registers used:
  8707 ;;		wreg, status,2, status,0, pclath, btemp1, cstack
  8708 ;; Tracked objects:
  8709 ;;		On entry : 0/0
  8710 ;;		On exit  : 0/0
  8711 ;;		Unchanged: 0/0
  8712 ;; Data sizes:     COMMON   BANK0   BANK1   BANK3   BANK2
  8713 ;;      Params:         0       6       0       0       0
  8714 ;;      Locals:         0       0       0       0       0
  8715 ;;      Temps:          0       4       0       0       0
  8716 ;;      Totals:         0      10       0       0       0
  8717 ;;Total ram usage:       10 bytes
  8718 ;; Hardware stack levels used: 1
  8719 ;; Hardware stack levels required when called: 2
  8720 ;; This function calls:
  8721 ;;		___aldiv
  8722 ;;		___flmul
  8723 ;;		___fltol
  8724 ;;		___xxtofl
  8725 ;; This function is called by:
  8726 ;;		_main
  8727 ;; This function uses a non-reentrant model
  8728 ;;
  8729                           
  8730     1E60                     _init_PWM:	
  8731                           ;psect for function _init_PWM
  8732                           
  8733     1E60                     l3716:	
  8734                           ;incstack = 0
  8735                           ; Regs used in _init_PWM: [wreg+status,2+status,0+pclath+btemp1+cstack]
  8736                           
  8737                           
  8738                           ;../../Functions/pwm-v1.c: 14: void init_PWM(int freq, float porcentaje);../../Functions
      +                          /pwm-v1.c: 15: {;../../Functions/pwm-v1.c: 16:     PR2 = 5000000 / (4 * freq * 1) - 1;
  8739     1E60  1283               	bcf	3,5	;RP0=0, select bank0
  8740     1E61  1303               	bcf	3,6	;RP1=0, select bank0
  8741     1E62  0853               	movf	init_PWM@freq+1,w
  8742     1E63  00D9               	movwf	??_init_PWM+1
  8743     1E64  0852               	movf	init_PWM@freq,w
  8744     1E65  00D8               	movwf	??_init_PWM
  8745     1E66  1003               	clrc
  8746     1E67  0DD8               	rlf	??_init_PWM,f
  8747     1E68  0DD9               	rlf	??_init_PWM+1,f
  8748     1E69  1003               	clrc
  8749     1E6A  0DD8               	rlf	??_init_PWM,f
  8750     1E6B  0DD9               	rlf	??_init_PWM+1,f
  8751     1E6C  0858               	movf	??_init_PWM,w
  8752     1E6D  00A0               	movwf	___aldiv@divisor
  8753     1E6E  0859               	movf	??_init_PWM+1,w
  8754     1E6F  00A1               	movwf	___aldiv@divisor+1
  8755     1E70  3000               	movlw	0
  8756     1E71  1BA1               	btfsc	___aldiv@divisor+1,7
  8757     1E72  30FF               	movlw	255
  8758     1E73  00A2               	movwf	___aldiv@divisor+2
  8759     1E74  00A3               	movwf	___aldiv@divisor+3
  8760     1E75  3000               	movlw	0
  8761     1E76  00A7               	movwf	___aldiv@dividend+3
  8762     1E77  304C               	movlw	76
  8763     1E78  00A6               	movwf	___aldiv@dividend+2
  8764     1E79  304B               	movlw	75
  8765     1E7A  00A5               	movwf	___aldiv@dividend+1
  8766     1E7B  3040               	movlw	64
  8767     1E7C  00A4               	movwf	___aldiv@dividend
  8768     1E7D  160A  158A  2767  160A  158A  	fcall	___aldiv
  8769     1E82  1283               	bcf	3,5	;RP0=0, select bank0
  8770     1E83  1303               	bcf	3,6	;RP1=0, select bank0
  8771     1E84  0820               	movf	?___aldiv,w
  8772     1E85  3EFF               	addlw	255
  8773     1E86  1683               	bsf	3,5	;RP0=1, select bank1
  8774     1E87  1303               	bcf	3,6	;RP1=0, select bank1
  8775     1E88  0092               	movwf	18	;volatile
  8776     1E89                     l3718:
  8777                           
  8778                           ;../../Functions/pwm-v1.c: 17:     T2CONbits.T2CKPS = 0b00;
  8779     1E89  30FC               	movlw	-4
  8780     1E8A  1283               	bcf	3,5	;RP0=0, select bank0
  8781     1E8B  1303               	bcf	3,6	;RP1=0, select bank0
  8782     1E8C  0592               	andwf	18,f	;volatile
  8783     1E8D                     l3720:
  8784                           
  8785                           ;../../Functions/pwm-v1.c: 18:     T2CONbits.TMR2ON = 1;
  8786     1E8D  1512               	bsf	18,2	;volatile
  8787     1E8E                     l3722:
  8788                           
  8789                           ;../../Functions/pwm-v1.c: 20:     TRISCbits.TRISC2 = 0;
  8790     1E8E  1683               	bsf	3,5	;RP0=1, select bank1
  8791     1E8F  1303               	bcf	3,6	;RP1=0, select bank1
  8792     1E90  1107               	bcf	7,2	;volatile
  8793     1E91                     l3724:
  8794                           
  8795                           ;../../Functions/pwm-v1.c: 21:     TRISCbits.TRISC1 = 0;
  8796     1E91  1087               	bcf	7,1	;volatile
  8797     1E92                     l3726:
  8798                           
  8799                           ;../../Functions/pwm-v1.c: 22:     CCP1CONbits.CCP1M = 0b1100;
  8800     1E92  1283               	bcf	3,5	;RP0=0, select bank0
  8801     1E93  1303               	bcf	3,6	;RP1=0, select bank0
  8802     1E94  0817               	movf	23,w	;volatile
  8803     1E95  39F0               	andlw	-16
  8804     1E96  380C               	iorlw	12
  8805     1E97  0097               	movwf	23	;volatile
  8806     1E98                     l3728:
  8807                           
  8808                           ;../../Functions/pwm-v1.c: 23:     CCPR1L = PR2 * porcentaje;
  8809     1E98  1683               	bsf	3,5	;RP0=1, select bank1
  8810     1E99  1303               	bcf	3,6	;RP1=0, select bank1
  8811     1E9A  0812               	movf	18,w	;volatile
  8812     1E9B  1283               	bcf	3,5	;RP0=0, select bank0
  8813     1E9C  1303               	bcf	3,6	;RP1=0, select bank0
  8814     1E9D  00D8               	movwf	??_init_PWM
  8815     1E9E  01D9               	clrf	??_init_PWM+1
  8816     1E9F  01DA               	clrf	??_init_PWM+2
  8817     1EA0  01DB               	clrf	??_init_PWM+3
  8818     1EA1  085B               	movf	??_init_PWM+3,w
  8819     1EA2  00A3               	movwf	___xxtofl@val+3
  8820     1EA3  085A               	movf	??_init_PWM+2,w
  8821     1EA4  00A2               	movwf	___xxtofl@val+2
  8822     1EA5  0859               	movf	??_init_PWM+1,w
  8823     1EA6  00A1               	movwf	___xxtofl@val+1
  8824     1EA7  0858               	movf	??_init_PWM,w
  8825     1EA8  00A0               	movwf	___xxtofl@val
  8826     1EA9  3001               	movlw	1
  8827     1EAA  160A  118A  20AA  160A  158A  	fcall	___xxtofl
  8828     1EAF  1283               	bcf	3,5	;RP0=0, select bank0
  8829     1EB0  1303               	bcf	3,6	;RP1=0, select bank0
  8830     1EB1  0823               	movf	?___xxtofl+3,w
  8831     1EB2  00B5               	movwf	___flmul@a+3
  8832     1EB3  0822               	movf	?___xxtofl+2,w
  8833     1EB4  00B4               	movwf	___flmul@a+2
  8834     1EB5  0821               	movf	?___xxtofl+1,w
  8835     1EB6  00B3               	movwf	___flmul@a+1
  8836     1EB7  0820               	movf	?___xxtofl,w
  8837     1EB8  00B2               	movwf	___flmul@a
  8838     1EB9  0857               	movf	init_PWM@porcentaje+3,w
  8839     1EBA  00B1               	movwf	___flmul@b+3
  8840     1EBB  0856               	movf	init_PWM@porcentaje+2,w
  8841     1EBC  00B0               	movwf	___flmul@b+2
  8842     1EBD  0855               	movf	init_PWM@porcentaje+1,w
  8843     1EBE  00AF               	movwf	___flmul@b+1
  8844     1EBF  0854               	movf	init_PWM@porcentaje,w
  8845     1EC0  00AE               	movwf	___flmul@b
  8846     1EC1  120A  158A  2144  160A  158A  	fcall	___flmul
  8847     1EC6  1283               	bcf	3,5	;RP0=0, select bank0
  8848     1EC7  1303               	bcf	3,6	;RP1=0, select bank0
  8849     1EC8  0831               	movf	?___flmul+3,w
  8850     1EC9  00CB               	movwf	___fltol@f1+3
  8851     1ECA  0830               	movf	?___flmul+2,w
  8852     1ECB  00CA               	movwf	___fltol@f1+2
  8853     1ECC  082F               	movf	?___flmul+1,w
  8854     1ECD  00C9               	movwf	___fltol@f1+1
  8855     1ECE  082E               	movf	?___flmul,w
  8856     1ECF  00C8               	movwf	___fltol@f1
  8857     1ED0  160A  158A  25EA  160A  158A  	fcall	___fltol
  8858     1ED5  1283               	bcf	3,5	;RP0=0, select bank0
  8859     1ED6  1303               	bcf	3,6	;RP1=0, select bank0
  8860     1ED7  0848               	movf	?___fltol,w
  8861     1ED8  0095               	movwf	21	;volatile
  8862     1ED9                     l13:
  8863     1ED9  0008               	return
  8864     1EDA                     __end_of_init_PWM:
  8865                           
  8866                           	psect	text31
  8867     10AA                     __ptext31:	
  8868 ;; *************** function ___xxtofl *****************
  8869 ;; Defined at:
  8870 ;;		line 10 in file "/opt/microchip/xc8/v3.10/pic/sources/c99/common/xxtofl.c"
  8871 ;; Parameters:    Size  Location     Type
  8872 ;;  sign            1    wreg     unsigned char 
  8873 ;;  val             4    0[BANK0 ] long 
  8874 ;; Auto vars:     Size  Location     Type
  8875 ;;  sign            1    8[BANK0 ] unsigned char 
  8876 ;;  arg             4   10[BANK0 ] unsigned long 
  8877 ;;  exp             1    9[BANK0 ] unsigned char 
  8878 ;; Return value:  Size  Location     Type
  8879 ;;                  4    0[BANK0 ] unsigned char 
  8880 ;; Registers used:
  8881 ;;		wreg, status,2, status,0
  8882 ;; Tracked objects:
  8883 ;;		On entry : 0/0
  8884 ;;		On exit  : 0/0
  8885 ;;		Unchanged: 0/0
  8886 ;; Data sizes:     COMMON   BANK0   BANK1   BANK3   BANK2
  8887 ;;      Params:         0       4       0       0       0
  8888 ;;      Locals:         0       6       0       0       0
  8889 ;;      Temps:          0       4       0       0       0
  8890 ;;      Totals:         0      14       0       0       0
  8891 ;;Total ram usage:       14 bytes
  8892 ;; Hardware stack levels used: 1
  8893 ;; Hardware stack levels required when called: 1
  8894 ;; This function calls:
  8895 ;;		Nothing
  8896 ;; This function is called by:
  8897 ;;		_init_PWM
  8898 ;;		_set_PWM
  8899 ;; This function uses a non-reentrant model
  8900 ;;
  8901                           
  8902     10AA                     ___xxtofl:	
  8903                           ;psect for function ___xxtofl
  8904                           
  8905                           
  8906                           ;incstack = 0
  8907                           ; Regs used in ___xxtofl: [wreg+status,2+status,0]
  8908                           ;___xxtofl@sign stored from wreg
  8909     10AA  1283               	bcf	3,5	;RP0=0, select bank0
  8910     10AB  1303               	bcf	3,6	;RP1=0, select bank0
  8911     10AC  00A8               	movwf	___xxtofl@sign
  8912     10AD                     l3664:
  8913     10AD  0828               	movf	___xxtofl@sign,w
  8914     10AE  1903               	btfsc	3,2
  8915     10AF  28B1               	goto	u5321
  8916     10B0  28B2               	goto	u5320
  8917     10B1                     u5321:
  8918     10B1  28C6               	goto	l3670
  8919     10B2                     u5320:
  8920     10B2                     l3666:
  8921     10B2  1FA3               	btfss	___xxtofl@val+3,7
  8922     10B3  28B5               	goto	u5331
  8923     10B4  28B6               	goto	u5330
  8924     10B5                     u5331:
  8925     10B5  28C6               	goto	l3670
  8926     10B6                     u5330:
  8927     10B6                     l3668:
  8928     10B6  0920               	comf	___xxtofl@val,w
  8929     10B7  00AA               	movwf	___xxtofl@arg
  8930     10B8  0921               	comf	___xxtofl@val+1,w
  8931     10B9  00AB               	movwf	___xxtofl@arg+1
  8932     10BA  0922               	comf	___xxtofl@val+2,w
  8933     10BB  00AC               	movwf	___xxtofl@arg+2
  8934     10BC  0923               	comf	___xxtofl@val+3,w
  8935     10BD  00AD               	movwf	___xxtofl@arg+3
  8936     10BE  0AAA               	incf	___xxtofl@arg,f
  8937     10BF  1903               	skipnz
  8938     10C0  0AAB               	incf	___xxtofl@arg+1,f
  8939     10C1  1903               	skipnz
  8940     10C2  0AAC               	incf	___xxtofl@arg+2,f
  8941     10C3  1903               	skipnz
  8942     10C4  0AAD               	incf	___xxtofl@arg+3,f
  8943     10C5  28CE               	goto	l762
  8944     10C6                     l3670:
  8945     10C6  0823               	movf	___xxtofl@val+3,w
  8946     10C7  00AD               	movwf	___xxtofl@arg+3
  8947     10C8  0822               	movf	___xxtofl@val+2,w
  8948     10C9  00AC               	movwf	___xxtofl@arg+2
  8949     10CA  0821               	movf	___xxtofl@val+1,w
  8950     10CB  00AB               	movwf	___xxtofl@arg+1
  8951     10CC  0820               	movf	___xxtofl@val,w
  8952     10CD  00AA               	movwf	___xxtofl@arg
  8953     10CE                     l762:
  8954     10CE  0823               	movf	___xxtofl@val+3,w
  8955     10CF  0422               	iorwf	___xxtofl@val+2,w
  8956     10D0  0421               	iorwf	___xxtofl@val+1,w
  8957     10D1  0420               	iorwf	___xxtofl@val,w
  8958     10D2  1D03               	skipz
  8959     10D3  28D5               	goto	u5341
  8960     10D4  28D6               	goto	u5340
  8961     10D5                     u5341:
  8962     10D5  28DF               	goto	l763
  8963     10D6                     u5340:
  8964     10D6                     l3672:
  8965     10D6  3000               	movlw	0
  8966     10D7  00A3               	movwf	?___xxtofl+3
  8967     10D8  3000               	movlw	0
  8968     10D9  00A2               	movwf	?___xxtofl+2
  8969     10DA  3000               	movlw	0
  8970     10DB  00A1               	movwf	?___xxtofl+1
  8971     10DC  3000               	movlw	0
  8972     10DD  00A0               	movwf	?___xxtofl
  8973     10DE  295F               	goto	l764
  8974     10DF                     l763:
  8975     10DF  3096               	movlw	150
  8976     10E0  00A9               	movwf	___xxtofl@exp
  8977     10E1  28ED               	goto	l3678
  8978     10E2                     l3676:
  8979     10E2  3001               	movlw	1
  8980     10E3  07A9               	addwf	___xxtofl@exp,f
  8981     10E4  3001               	movlw	1
  8982     10E5                     u5355:
  8983     10E5  1003               	clrc
  8984     10E6  0CAD               	rrf	___xxtofl@arg+3,f
  8985     10E7  0CAC               	rrf	___xxtofl@arg+2,f
  8986     10E8  0CAB               	rrf	___xxtofl@arg+1,f
  8987     10E9  0CAA               	rrf	___xxtofl@arg,f
  8988     10EA  3EFF               	addlw	-1
  8989     10EB  1D03               	skipz
  8990     10EC  28E5               	goto	u5355
  8991     10ED                     l3678:
  8992     10ED  30FE               	movlw	254
  8993     10EE  052D               	andwf	___xxtofl@arg+3,w
  8994     10EF  1D03               	btfss	3,2
  8995     10F0  28F2               	goto	u5361
  8996     10F1  28F3               	goto	u5360
  8997     10F2                     u5361:
  8998     10F2  28E2               	goto	l3676
  8999     10F3                     u5360:
  9000     10F3  290D               	goto	l768
  9001     10F4                     l3680:
  9002     10F4  3001               	movlw	1
  9003     10F5  07A9               	addwf	___xxtofl@exp,f
  9004     10F6                     l3682:
  9005     10F6  3001               	movlw	1
  9006     10F7  07AA               	addwf	___xxtofl@arg,f
  9007     10F8  3000               	movlw	0
  9008     10F9  1803               	skipnc
  9009     10FA  3001               	movlw	1
  9010     10FB  07AB               	addwf	___xxtofl@arg+1,f
  9011     10FC  3000               	movlw	0
  9012     10FD  1803               	skipnc
  9013     10FE  3001               	movlw	1
  9014     10FF  07AC               	addwf	___xxtofl@arg+2,f
  9015     1100  3000               	movlw	0
  9016     1101  1803               	skipnc
  9017     1102  3001               	movlw	1
  9018     1103  07AD               	addwf	___xxtofl@arg+3,f
  9019     1104                     l3684:
  9020     1104  3001               	movlw	1
  9021     1105                     u5375:
  9022     1105  1003               	clrc
  9023     1106  0CAD               	rrf	___xxtofl@arg+3,f
  9024     1107  0CAC               	rrf	___xxtofl@arg+2,f
  9025     1108  0CAB               	rrf	___xxtofl@arg+1,f
  9026     1109  0CAA               	rrf	___xxtofl@arg,f
  9027     110A  3EFF               	addlw	-1
  9028     110B  1D03               	skipz
  9029     110C  2905               	goto	u5375
  9030     110D                     l768:
  9031     110D  30FF               	movlw	255
  9032     110E  052D               	andwf	___xxtofl@arg+3,w
  9033     110F  1D03               	btfss	3,2
  9034     1110  2912               	goto	u5381
  9035     1111  2913               	goto	u5380
  9036     1112                     u5381:
  9037     1112  28F4               	goto	l3680
  9038     1113                     u5380:
  9039     1113  291F               	goto	l3688
  9040     1114                     l3686:
  9041     1114  3001               	movlw	1
  9042     1115  02A9               	subwf	___xxtofl@exp,f
  9043     1116  3001               	movlw	1
  9044     1117  00A4               	movwf	??___xxtofl
  9045     1118                     u5395:
  9046     1118  1003               	clrc
  9047     1119  0DAA               	rlf	___xxtofl@arg,f
  9048     111A  0DAB               	rlf	___xxtofl@arg+1,f
  9049     111B  0DAC               	rlf	___xxtofl@arg+2,f
  9050     111C  0DAD               	rlf	___xxtofl@arg+3,f
  9051     111D  0BA4               	decfsz	??___xxtofl,f
  9052     111E  2918               	goto	u5395
  9053     111F                     l3688:
  9054     111F  1BAC               	btfsc	___xxtofl@arg+2,7
  9055     1120  2922               	goto	u5401
  9056     1121  2923               	goto	u5400
  9057     1122                     u5401:
  9058     1122  2929               	goto	l775
  9059     1123                     u5400:
  9060     1123                     l3690:
  9061     1123  3002               	movlw	2
  9062     1124  0229               	subwf	___xxtofl@exp,w
  9063     1125  1803               	skipnc
  9064     1126  2928               	goto	u5411
  9065     1127  2929               	goto	u5410
  9066     1128                     u5411:
  9067     1128  2914               	goto	l3686
  9068     1129                     u5410:
  9069     1129                     l775:
  9070     1129  1829               	btfsc	___xxtofl@exp,0
  9071     112A  292C               	goto	u5421
  9072     112B  292D               	goto	u5420
  9073     112C                     u5421:
  9074     112C  2935               	goto	l776
  9075     112D                     u5420:
  9076     112D                     l3692:
  9077     112D  30FF               	movlw	255
  9078     112E  05AA               	andwf	___xxtofl@arg,f
  9079     112F  30FF               	movlw	255
  9080     1130  05AB               	andwf	___xxtofl@arg+1,f
  9081     1131  307F               	movlw	127
  9082     1132  05AC               	andwf	___xxtofl@arg+2,f
  9083     1133  30FF               	movlw	255
  9084     1134  05AD               	andwf	___xxtofl@arg+3,f
  9085     1135                     l776:
  9086     1135  1003               	clrc
  9087     1136  0CA9               	rrf	___xxtofl@exp,f
  9088     1137                     l3694:
  9089     1137  0829               	movf	___xxtofl@exp,w
  9090     1138  00A4               	movwf	??___xxtofl
  9091     1139  01A5               	clrf	??___xxtofl+1
  9092     113A  01A6               	clrf	??___xxtofl+2
  9093     113B  01A7               	clrf	??___xxtofl+3
  9094     113C  3018               	movlw	24
  9095     113D                     u5435:
  9096     113D  1003               	clrc
  9097     113E  0DA4               	rlf	??___xxtofl,f
  9098     113F  0DA5               	rlf	??___xxtofl+1,f
  9099     1140  0DA6               	rlf	??___xxtofl+2,f
  9100     1141  0DA7               	rlf	??___xxtofl+3,f
  9101     1142                     u5430:
  9102     1142  3EFF               	addlw	-1
  9103     1143  1D03               	skipz
  9104     1144  293D               	goto	u5435
  9105     1145  0824               	movf	??___xxtofl,w
  9106     1146  04AA               	iorwf	___xxtofl@arg,f
  9107     1147  0825               	movf	??___xxtofl+1,w
  9108     1148  04AB               	iorwf	___xxtofl@arg+1,f
  9109     1149  0826               	movf	??___xxtofl+2,w
  9110     114A  04AC               	iorwf	___xxtofl@arg+2,f
  9111     114B  0827               	movf	??___xxtofl+3,w
  9112     114C  04AD               	iorwf	___xxtofl@arg+3,f
  9113     114D                     l3696:
  9114     114D  0828               	movf	___xxtofl@sign,w
  9115     114E  1903               	btfsc	3,2
  9116     114F  2951               	goto	u5441
  9117     1150  2952               	goto	u5440
  9118     1151                     u5441:
  9119     1151  2957               	goto	l3702
  9120     1152                     u5440:
  9121     1152                     l3698:
  9122     1152  1FA3               	btfss	___xxtofl@val+3,7
  9123     1153  2955               	goto	u5451
  9124     1154  2956               	goto	u5450
  9125     1155                     u5451:
  9126     1155  2957               	goto	l3702
  9127     1156                     u5450:
  9128     1156                     l3700:
  9129     1156  17AD               	bsf	___xxtofl@arg+3,7
  9130     1157                     l3702:
  9131     1157  082D               	movf	___xxtofl@arg+3,w
  9132     1158  00A3               	movwf	?___xxtofl+3
  9133     1159  082C               	movf	___xxtofl@arg+2,w
  9134     115A  00A2               	movwf	?___xxtofl+2
  9135     115B  082B               	movf	___xxtofl@arg+1,w
  9136     115C  00A1               	movwf	?___xxtofl+1
  9137     115D  082A               	movf	___xxtofl@arg,w
  9138     115E  00A0               	movwf	?___xxtofl
  9139     115F                     l764:
  9140     115F  0008               	return
  9141     1160                     __end_of___xxtofl:
  9142                           
  9143                           	psect	text32
  9144     1DEA                     __ptext32:	
  9145 ;; *************** function ___fltol *****************
  9146 ;; Defined at:
  9147 ;;		line 43 in file "/opt/microchip/xc8/v3.10/pic/sources/c99/common/fltol.c"
  9148 ;; Parameters:    Size  Location     Type
  9149 ;;  f1              4   40[BANK0 ] unsigned char 
  9150 ;; Auto vars:     Size  Location     Type
  9151 ;;  exp1            1   49[BANK0 ] unsigned char 
  9152 ;;  sign1           1   48[BANK0 ] unsigned char 
  9153 ;; Return value:  Size  Location     Type
  9154 ;;                  4   40[BANK0 ] long 
  9155 ;; Registers used:
  9156 ;;		wreg, status,2, status,0
  9157 ;; Tracked objects:
  9158 ;;		On entry : 0/0
  9159 ;;		On exit  : 0/0
  9160 ;;		Unchanged: 0/0
  9161 ;; Data sizes:     COMMON   BANK0   BANK1   BANK3   BANK2
  9162 ;;      Params:         0       4       0       0       0
  9163 ;;      Locals:         0       2       0       0       0
  9164 ;;      Temps:          0       4       0       0       0
  9165 ;;      Totals:         0      10       0       0       0
  9166 ;;Total ram usage:       10 bytes
  9167 ;; Hardware stack levels used: 1
  9168 ;; Hardware stack levels required when called: 1
  9169 ;; This function calls:
  9170 ;;		Nothing
  9171 ;; This function is called by:
  9172 ;;		_init_PWM
  9173 ;;		_set_PWM
  9174 ;;		_main
  9175 ;;		_efgtoa
  9176 ;; This function uses a non-reentrant model
  9177 ;;
  9178                           
  9179     1DEA                     ___fltol:	
  9180                           ;psect for function ___fltol
  9181                           
  9182     1DEA                     l2800:	
  9183                           ;incstack = 0
  9184                           ; Regs used in ___fltol: [wreg+status,2+status,0]
  9185                           
  9186     1DEA  1003               	clrc
  9187     1DEB  1283               	bcf	3,5	;RP0=0, select bank0
  9188     1DEC  1303               	bcf	3,6	;RP1=0, select bank0
  9189     1DED  0D4A               	rlf	___fltol@f1+2,w
  9190     1DEE  0D4B               	rlf	___fltol@f1+3,w
  9191     1DEF  00D1               	movwf	___fltol@exp1
  9192     1DF0  0851               	movf	___fltol@exp1,w
  9193     1DF1  1D03               	btfss	3,2
  9194     1DF2  2DF4               	goto	u3491
  9195     1DF3  2DF5               	goto	u3490
  9196     1DF4                     u3491:
  9197     1DF4  2DFE               	goto	l2806
  9198     1DF5                     u3490:
  9199     1DF5                     l2802:
  9200     1DF5  3000               	movlw	0
  9201     1DF6  00CB               	movwf	?___fltol+3
  9202     1DF7  3000               	movlw	0
  9203     1DF8  00CA               	movwf	?___fltol+2
  9204     1DF9  3000               	movlw	0
  9205     1DFA  00C9               	movwf	?___fltol+1
  9206     1DFB  3000               	movlw	0
  9207     1DFC  00C8               	movwf	?___fltol
  9208     1DFD  2E5F               	goto	l515
  9209     1DFE                     l2806:
  9210     1DFE  0848               	movf	___fltol@f1,w
  9211     1DFF  00CC               	movwf	??___fltol
  9212     1E00  0849               	movf	___fltol@f1+1,w
  9213     1E01  00CD               	movwf	??___fltol+1
  9214     1E02  084A               	movf	___fltol@f1+2,w
  9215     1E03  00CE               	movwf	??___fltol+2
  9216     1E04  084B               	movf	___fltol@f1+3,w
  9217     1E05  00CF               	movwf	??___fltol+3
  9218     1E06  301F               	movlw	31
  9219     1E07                     u3505:
  9220     1E07  1003               	clrc
  9221     1E08  0CCF               	rrf	??___fltol+3,f
  9222     1E09  0CCE               	rrf	??___fltol+2,f
  9223     1E0A  0CCD               	rrf	??___fltol+1,f
  9224     1E0B  0CCC               	rrf	??___fltol,f
  9225     1E0C                     u3500:
  9226     1E0C  3EFF               	addlw	-1
  9227     1E0D  1D03               	skipz
  9228     1E0E  2E07               	goto	u3505
  9229     1E0F  084C               	movf	??___fltol,w
  9230     1E10  00D0               	movwf	___fltol@sign1
  9231     1E11                     l2808:
  9232     1E11  17CA               	bsf	___fltol@f1+2,7
  9233     1E12                     l2810:
  9234     1E12  30FF               	movlw	255
  9235     1E13  05C8               	andwf	___fltol@f1,f
  9236     1E14  30FF               	movlw	255
  9237     1E15  05C9               	andwf	___fltol@f1+1,f
  9238     1E16  30FF               	movlw	255
  9239     1E17  05CA               	andwf	___fltol@f1+2,f
  9240     1E18  3000               	movlw	0
  9241     1E19  05CB               	andwf	___fltol@f1+3,f
  9242     1E1A                     l2812:
  9243     1E1A  3096               	movlw	150
  9244     1E1B  02D1               	subwf	___fltol@exp1,f
  9245     1E1C                     l2814:
  9246     1E1C  1FD1               	btfss	___fltol@exp1,7
  9247     1E1D  2E1F               	goto	u3511
  9248     1E1E  2E20               	goto	u3510
  9249     1E1F                     u3511:
  9250     1E1F  2E38               	goto	l2824
  9251     1E20                     u3510:
  9252     1E20                     l2816:
  9253     1E20  0851               	movf	___fltol@exp1,w
  9254     1E21  3A80               	xorlw	128
  9255     1E22  3E97               	addlw	151
  9256     1E23  1803               	skipnc
  9257     1E24  2E26               	goto	u3521
  9258     1E25  2E27               	goto	u3520
  9259     1E26                     u3521:
  9260     1E26  2E28               	goto	l2822
  9261     1E27                     u3520:
  9262     1E27  2DF5               	goto	l2802
  9263     1E28                     l2822:
  9264     1E28  3001               	movlw	1
  9265     1E29                     u3535:
  9266     1E29  1003               	clrc
  9267     1E2A  0CCB               	rrf	___fltol@f1+3,f
  9268     1E2B  0CCA               	rrf	___fltol@f1+2,f
  9269     1E2C  0CC9               	rrf	___fltol@f1+1,f
  9270     1E2D  0CC8               	rrf	___fltol@f1,f
  9271     1E2E  3EFF               	addlw	-1
  9272     1E2F  1D03               	skipz
  9273     1E30  2E29               	goto	u3535
  9274     1E31  3001               	movlw	1
  9275     1E32  07D1               	addwf	___fltol@exp1,f
  9276     1E33  1D03               	btfss	3,2
  9277     1E34  2E36               	goto	u3541
  9278     1E35  2E37               	goto	u3540
  9279     1E36                     u3541:
  9280     1E36  2E28               	goto	l2822
  9281     1E37                     u3540:
  9282     1E37  2E4F               	goto	l2832
  9283     1E38                     l2824:
  9284     1E38  3020               	movlw	32
  9285     1E39  0251               	subwf	___fltol@exp1,w
  9286     1E3A  1C03               	skipc
  9287     1E3B  2E3D               	goto	u3551
  9288     1E3C  2E3E               	goto	u3550
  9289     1E3D                     u3551:
  9290     1E3D  2E4A               	goto	l522
  9291     1E3E                     u3550:
  9292     1E3E  2DF5               	goto	l2802
  9293     1E3F                     l2830:
  9294     1E3F  3001               	movlw	1
  9295     1E40  00CC               	movwf	??___fltol
  9296     1E41                     u3565:
  9297     1E41  1003               	clrc
  9298     1E42  0DC8               	rlf	___fltol@f1,f
  9299     1E43  0DC9               	rlf	___fltol@f1+1,f
  9300     1E44  0DCA               	rlf	___fltol@f1+2,f
  9301     1E45  0DCB               	rlf	___fltol@f1+3,f
  9302     1E46  0BCC               	decfsz	??___fltol,f
  9303     1E47  2E41               	goto	u3565
  9304     1E48  3001               	movlw	1
  9305     1E49  02D1               	subwf	___fltol@exp1,f
  9306     1E4A                     l522:
  9307     1E4A  0851               	movf	___fltol@exp1,w
  9308     1E4B  1D03               	btfss	3,2
  9309     1E4C  2E4E               	goto	u3571
  9310     1E4D  2E4F               	goto	u3570
  9311     1E4E                     u3571:
  9312     1E4E  2E3F               	goto	l2830
  9313     1E4F                     u3570:
  9314     1E4F                     l2832:
  9315     1E4F  0850               	movf	___fltol@sign1,w
  9316     1E50  1903               	btfsc	3,2
  9317     1E51  2E53               	goto	u3581
  9318     1E52  2E54               	goto	u3580
  9319     1E53                     u3581:
  9320     1E53  2E5F               	goto	l525
  9321     1E54                     u3580:
  9322     1E54                     l2834:
  9323     1E54  09C8               	comf	___fltol@f1,f
  9324     1E55  09C9               	comf	___fltol@f1+1,f
  9325     1E56  09CA               	comf	___fltol@f1+2,f
  9326     1E57  09CB               	comf	___fltol@f1+3,f
  9327     1E58  0AC8               	incf	___fltol@f1,f
  9328     1E59  1903               	skipnz
  9329     1E5A  0AC9               	incf	___fltol@f1+1,f
  9330     1E5B  1903               	skipnz
  9331     1E5C  0ACA               	incf	___fltol@f1+2,f
  9332     1E5D  1903               	skipnz
  9333     1E5E  0ACB               	incf	___fltol@f1+3,f
  9334     1E5F                     l525:
  9335     1E5F                     l515:
  9336     1E5F  0008               	return
  9337     1E60                     __end_of___fltol:
  9338                           
  9339                           	psect	text33
  9340     0944                     __ptext33:	
  9341 ;; *************** function ___flmul *****************
  9342 ;; Defined at:
  9343 ;;		line 8 in file "/opt/microchip/xc8/v3.10/pic/sources/c99/common/sprcmul.c"
  9344 ;; Parameters:    Size  Location     Type
  9345 ;;  b               4   14[BANK0 ] long 
  9346 ;;  a               4   18[BANK0 ] long 
  9347 ;; Auto vars:     Size  Location     Type
  9348 ;;  prod            4   34[BANK0 ] struct .
  9349 ;;  grs             4   28[BANK0 ] unsigned long 
  9350 ;;  temp            2   38[BANK0 ] struct .
  9351 ;;  bexp            1   33[BANK0 ] unsigned char 
  9352 ;;  aexp            1   32[BANK0 ] unsigned char 
  9353 ;;  sign            1   27[BANK0 ] unsigned char 
  9354 ;; Return value:  Size  Location     Type
  9355 ;;                  4   14[BANK0 ] unsigned char 
  9356 ;; Registers used:
  9357 ;;		wreg, status,2, status,0, pclath, btemp1, cstack
  9358 ;; Tracked objects:
  9359 ;;		On entry : 0/0
  9360 ;;		On exit  : 0/0
  9361 ;;		Unchanged: 0/0
  9362 ;; Data sizes:     COMMON   BANK0   BANK1   BANK3   BANK2
  9363 ;;      Params:         0       8       0       0       0
  9364 ;;      Locals:         0      13       0       0       0
  9365 ;;      Temps:          0       5       0       0       0
  9366 ;;      Totals:         0      26       0       0       0
  9367 ;;Total ram usage:       26 bytes
  9368 ;; Hardware stack levels used: 1
  9369 ;; Hardware stack levels required when called: 1
  9370 ;; This function calls:
  9371 ;;		__Umul8_16
  9372 ;; This function is called by:
  9373 ;;		_init_PWM
  9374 ;;		_set_PWM
  9375 ;;		_main
  9376 ;;		_efgtoa
  9377 ;; This function uses a non-reentrant model
  9378 ;;
  9379                           
  9380     0944                     ___flmul:	
  9381                           ;psect for function ___flmul
  9382                           
  9383     0944                     l2986:	
  9384                           ;incstack = 0
  9385                           ; Regs used in ___flmul: [wreg+status,2+status,0+pclath+btemp1+cstack]
  9386                           
  9387     0944  1283               	bcf	3,5	;RP0=0, select bank0
  9388     0945  1303               	bcf	3,6	;RP1=0, select bank0
  9389     0946  0831               	movf	___flmul@b+3,w
  9390     0947  00BB               	movwf	___flmul@sign
  9391     0948                     l2988:
  9392     0948  3080               	movlw	128
  9393     0949  05BB               	andwf	___flmul@sign,f
  9394     094A                     l2990:
  9395     094A  0831               	movf	___flmul@b+3,w
  9396     094B  00B6               	movwf	??___flmul
  9397     094C  0736               	addwf	??___flmul,w
  9398     094D  00C1               	movwf	___flmul@bexp
  9399     094E                     l2992:
  9400     094E  1FB0               	btfss	___flmul@b+2,7
  9401     094F  2951               	goto	u3881
  9402     0950  2952               	goto	u3880
  9403     0951                     u3881:
  9404     0951  2953               	goto	l2996
  9405     0952                     u3880:
  9406     0952                     l2994:
  9407     0952  1441               	bsf	___flmul@bexp,0
  9408     0953                     l2996:
  9409     0953  0841               	movf	___flmul@bexp,w
  9410     0954  1903               	btfsc	3,2
  9411     0955  2957               	goto	u3891
  9412     0956  2958               	goto	u3890
  9413     0957                     u3891:
  9414     0957  2967               	goto	l3004
  9415     0958                     u3890:
  9416     0958                     l2998:
  9417     0958  0A41               	incf	___flmul@bexp,w
  9418     0959  1D03               	btfss	3,2
  9419     095A  295C               	goto	u3901
  9420     095B  295D               	goto	u3900
  9421     095C                     u3901:
  9422     095C  2965               	goto	l3002
  9423     095D                     u3900:
  9424     095D                     l3000:
  9425     095D  3000               	movlw	0
  9426     095E  00B1               	movwf	___flmul@b+3
  9427     095F  3000               	movlw	0
  9428     0960  00B0               	movwf	___flmul@b+2
  9429     0961  3000               	movlw	0
  9430     0962  00AF               	movwf	___flmul@b+1
  9431     0963  3000               	movlw	0
  9432     0964  00AE               	movwf	___flmul@b
  9433     0965                     l3002:
  9434     0965  17B0               	bsf	___flmul@b+2,7
  9435     0966  296F               	goto	l3006
  9436     0967                     l3004:
  9437     0967  3000               	movlw	0
  9438     0968  00B1               	movwf	___flmul@b+3
  9439     0969  3000               	movlw	0
  9440     096A  00B0               	movwf	___flmul@b+2
  9441     096B  3000               	movlw	0
  9442     096C  00AF               	movwf	___flmul@b+1
  9443     096D  3000               	movlw	0
  9444     096E  00AE               	movwf	___flmul@b
  9445     096F                     l3006:
  9446     096F  0835               	movf	___flmul@a+3,w
  9447     0970  3980               	andlw	128
  9448     0971  06BB               	xorwf	___flmul@sign,f
  9449     0972                     l3008:
  9450     0972  0835               	movf	___flmul@a+3,w
  9451     0973  00B6               	movwf	??___flmul
  9452     0974  0736               	addwf	??___flmul,w
  9453     0975  00C0               	movwf	___flmul@aexp
  9454     0976                     l3010:
  9455     0976  1FB4               	btfss	___flmul@a+2,7
  9456     0977  2979               	goto	u3911
  9457     0978  297A               	goto	u3910
  9458     0979                     u3911:
  9459     0979  297B               	goto	l3014
  9460     097A                     u3910:
  9461     097A                     l3012:
  9462     097A  1440               	bsf	___flmul@aexp,0
  9463     097B                     l3014:
  9464     097B  0840               	movf	___flmul@aexp,w
  9465     097C  1903               	btfsc	3,2
  9466     097D  297F               	goto	u3921
  9467     097E  2980               	goto	u3920
  9468     097F                     u3921:
  9469     097F  298F               	goto	l3022
  9470     0980                     u3920:
  9471     0980                     l3016:
  9472     0980  0A40               	incf	___flmul@aexp,w
  9473     0981  1D03               	btfss	3,2
  9474     0982  2984               	goto	u3931
  9475     0983  2985               	goto	u3930
  9476     0984                     u3931:
  9477     0984  298D               	goto	l3020
  9478     0985                     u3930:
  9479     0985                     l3018:
  9480     0985  3000               	movlw	0
  9481     0986  00B5               	movwf	___flmul@a+3
  9482     0987  3000               	movlw	0
  9483     0988  00B4               	movwf	___flmul@a+2
  9484     0989  3000               	movlw	0
  9485     098A  00B3               	movwf	___flmul@a+1
  9486     098B  3000               	movlw	0
  9487     098C  00B2               	movwf	___flmul@a
  9488     098D                     l3020:
  9489     098D  17B4               	bsf	___flmul@a+2,7
  9490     098E  2997               	goto	l3024
  9491     098F                     l3022:
  9492     098F  3000               	movlw	0
  9493     0990  00B5               	movwf	___flmul@a+3
  9494     0991  3000               	movlw	0
  9495     0992  00B4               	movwf	___flmul@a+2
  9496     0993  3000               	movlw	0
  9497     0994  00B3               	movwf	___flmul@a+1
  9498     0995  3000               	movlw	0
  9499     0996  00B2               	movwf	___flmul@a
  9500     0997                     l3024:
  9501     0997  0840               	movf	___flmul@aexp,w
  9502     0998  1903               	btfsc	3,2
  9503     0999  299B               	goto	u3941
  9504     099A  299C               	goto	u3940
  9505     099B                     u3941:
  9506     099B  29A1               	goto	l3028
  9507     099C                     u3940:
  9508     099C                     l3026:
  9509     099C  0841               	movf	___flmul@bexp,w
  9510     099D  1D03               	btfss	3,2
  9511     099E  29A0               	goto	u3951
  9512     099F  29A1               	goto	u3950
  9513     09A0                     u3951:
  9514     09A0  29AA               	goto	l3032
  9515     09A1                     u3950:
  9516     09A1                     l3028:
  9517     09A1  3000               	movlw	0
  9518     09A2  00B1               	movwf	?___flmul+3
  9519     09A3  3000               	movlw	0
  9520     09A4  00B0               	movwf	?___flmul+2
  9521     09A5  3000               	movlw	0
  9522     09A6  00AF               	movwf	?___flmul+1
  9523     09A7  3000               	movlw	0
  9524     09A8  00AE               	movwf	?___flmul
  9525     09A9  2C85               	goto	l718
  9526     09AA                     l3032:
  9527     09AA  082E               	movf	___flmul@b,w
  9528     09AB  00A0               	movwf	__Umul8_16@multiplicand
  9529     09AC  0834               	movf	___flmul@a+2,w
  9530     09AD  160A  158A  2269  120A  158A  	fcall	__Umul8_16
  9531     09B2  1283               	bcf	3,5	;RP0=0, select bank0
  9532     09B3  1303               	bcf	3,6	;RP1=0, select bank0
  9533     09B4  0821               	movf	?__Umul8_16+1,w
  9534     09B5  00C7               	movwf	___flmul@temp+1
  9535     09B6  0820               	movf	?__Umul8_16,w
  9536     09B7  00C6               	movwf	___flmul@temp
  9537     09B8                     l3034:
  9538     09B8  0846               	movf	___flmul@temp,w
  9539     09B9  00B6               	movwf	??___flmul
  9540     09BA  01B7               	clrf	??___flmul+1
  9541     09BB  01B8               	clrf	??___flmul+2
  9542     09BC  01B9               	clrf	??___flmul+3
  9543     09BD  0839               	movf	??___flmul+3,w
  9544     09BE  00BF               	movwf	___flmul@grs+3
  9545     09BF  0838               	movf	??___flmul+2,w
  9546     09C0  00BE               	movwf	___flmul@grs+2
  9547     09C1  0837               	movf	??___flmul+1,w
  9548     09C2  00BD               	movwf	___flmul@grs+1
  9549     09C3  0836               	movf	??___flmul,w
  9550     09C4  00BC               	movwf	___flmul@grs
  9551     09C5                     l3036:
  9552     09C5  0847               	movf	___flmul@temp+1,w
  9553     09C6  00B6               	movwf	??___flmul
  9554     09C7  01B7               	clrf	??___flmul+1
  9555     09C8  01B8               	clrf	??___flmul+2
  9556     09C9  01B9               	clrf	??___flmul+3
  9557     09CA  0839               	movf	??___flmul+3,w
  9558     09CB  00C5               	movwf	___flmul@prod+3
  9559     09CC  0838               	movf	??___flmul+2,w
  9560     09CD  00C4               	movwf	___flmul@prod+2
  9561     09CE  0837               	movf	??___flmul+1,w
  9562     09CF  00C3               	movwf	___flmul@prod+1
  9563     09D0  0836               	movf	??___flmul,w
  9564     09D1  00C2               	movwf	___flmul@prod
  9565     09D2  082F               	movf	___flmul@b+1,w
  9566     09D3  00A0               	movwf	__Umul8_16@multiplicand
  9567     09D4  0833               	movf	___flmul@a+1,w
  9568     09D5  160A  158A  2269  120A  158A  	fcall	__Umul8_16
  9569     09DA  1283               	bcf	3,5	;RP0=0, select bank0
  9570     09DB  1303               	bcf	3,6	;RP1=0, select bank0
  9571     09DC  0821               	movf	?__Umul8_16+1,w
  9572     09DD  00C7               	movwf	___flmul@temp+1
  9573     09DE  0820               	movf	?__Umul8_16,w
  9574     09DF  00C6               	movwf	___flmul@temp
  9575     09E0                     l3038:
  9576     09E0  0846               	movf	___flmul@temp,w
  9577     09E1  00B6               	movwf	??___flmul
  9578     09E2  01B7               	clrf	??___flmul+1
  9579     09E3  01B8               	clrf	??___flmul+2
  9580     09E4  01B9               	clrf	??___flmul+3
  9581     09E5  0836               	movf	??___flmul,w
  9582     09E6  07BC               	addwf	___flmul@grs,f
  9583     09E7  0837               	movf	??___flmul+1,w
  9584     09E8  1103               	clrz
  9585     09E9  1803               	skipnc
  9586     09EA  3E01               	addlw	1
  9587     09EB  1903               	skipnz
  9588     09EC  29EE               	goto	u3961
  9589     09ED  07BD               	addwf	___flmul@grs+1,f
  9590     09EE                     u3961:
  9591     09EE  0838               	movf	??___flmul+2,w
  9592     09EF  1103               	clrz
  9593     09F0  1803               	skipnc
  9594     09F1  3E01               	addlw	1
  9595     09F2  1903               	skipnz
  9596     09F3  29F5               	goto	u3962
  9597     09F4  07BE               	addwf	___flmul@grs+2,f
  9598     09F5                     u3962:
  9599     09F5  0839               	movf	??___flmul+3,w
  9600     09F6  1103               	clrz
  9601     09F7  1803               	skipnc
  9602     09F8  3E01               	addlw	1
  9603     09F9  1903               	skipnz
  9604     09FA  29FC               	goto	u3963
  9605     09FB  07BF               	addwf	___flmul@grs+3,f
  9606     09FC                     u3963:
  9607     09FC                     l3040:
  9608     09FC  0847               	movf	___flmul@temp+1,w
  9609     09FD  00B6               	movwf	??___flmul
  9610     09FE  01B7               	clrf	??___flmul+1
  9611     09FF  01B8               	clrf	??___flmul+2
  9612     0A00  01B9               	clrf	??___flmul+3
  9613     0A01  0836               	movf	??___flmul,w
  9614     0A02  07C2               	addwf	___flmul@prod,f
  9615     0A03  0837               	movf	??___flmul+1,w
  9616     0A04  1103               	clrz
  9617     0A05  1803               	skipnc
  9618     0A06  3E01               	addlw	1
  9619     0A07  1903               	skipnz
  9620     0A08  2A0A               	goto	u3971
  9621     0A09  07C3               	addwf	___flmul@prod+1,f
  9622     0A0A                     u3971:
  9623     0A0A  0838               	movf	??___flmul+2,w
  9624     0A0B  1103               	clrz
  9625     0A0C  1803               	skipnc
  9626     0A0D  3E01               	addlw	1
  9627     0A0E  1903               	skipnz
  9628     0A0F  2A11               	goto	u3972
  9629     0A10  07C4               	addwf	___flmul@prod+2,f
  9630     0A11                     u3972:
  9631     0A11  0839               	movf	??___flmul+3,w
  9632     0A12  1103               	clrz
  9633     0A13  1803               	skipnc
  9634     0A14  3E01               	addlw	1
  9635     0A15  1903               	skipnz
  9636     0A16  2A18               	goto	u3973
  9637     0A17  07C5               	addwf	___flmul@prod+3,f
  9638     0A18                     u3973:
  9639     0A18  0830               	movf	___flmul@b+2,w
  9640     0A19  00A0               	movwf	__Umul8_16@multiplicand
  9641     0A1A  0832               	movf	___flmul@a,w
  9642     0A1B  160A  158A  2269  120A  158A  	fcall	__Umul8_16
  9643     0A20  1283               	bcf	3,5	;RP0=0, select bank0
  9644     0A21  1303               	bcf	3,6	;RP1=0, select bank0
  9645     0A22  0821               	movf	?__Umul8_16+1,w
  9646     0A23  00C7               	movwf	___flmul@temp+1
  9647     0A24  0820               	movf	?__Umul8_16,w
  9648     0A25  00C6               	movwf	___flmul@temp
  9649     0A26                     l3042:
  9650     0A26  0846               	movf	___flmul@temp,w
  9651     0A27  00B6               	movwf	??___flmul
  9652     0A28  01B7               	clrf	??___flmul+1
  9653     0A29  01B8               	clrf	??___flmul+2
  9654     0A2A  01B9               	clrf	??___flmul+3
  9655     0A2B  0836               	movf	??___flmul,w
  9656     0A2C  07BC               	addwf	___flmul@grs,f
  9657     0A2D  0837               	movf	??___flmul+1,w
  9658     0A2E  1103               	clrz
  9659     0A2F  1803               	skipnc
  9660     0A30  3E01               	addlw	1
  9661     0A31  1903               	skipnz
  9662     0A32  2A34               	goto	u3981
  9663     0A33  07BD               	addwf	___flmul@grs+1,f
  9664     0A34                     u3981:
  9665     0A34  0838               	movf	??___flmul+2,w
  9666     0A35  1103               	clrz
  9667     0A36  1803               	skipnc
  9668     0A37  3E01               	addlw	1
  9669     0A38  1903               	skipnz
  9670     0A39  2A3B               	goto	u3982
  9671     0A3A  07BE               	addwf	___flmul@grs+2,f
  9672     0A3B                     u3982:
  9673     0A3B  0839               	movf	??___flmul+3,w
  9674     0A3C  1103               	clrz
  9675     0A3D  1803               	skipnc
  9676     0A3E  3E01               	addlw	1
  9677     0A3F  1903               	skipnz
  9678     0A40  2A42               	goto	u3983
  9679     0A41  07BF               	addwf	___flmul@grs+3,f
  9680     0A42                     u3983:
  9681     0A42                     l3044:
  9682     0A42  0847               	movf	___flmul@temp+1,w
  9683     0A43  00B6               	movwf	??___flmul
  9684     0A44  01B7               	clrf	??___flmul+1
  9685     0A45  01B8               	clrf	??___flmul+2
  9686     0A46  01B9               	clrf	??___flmul+3
  9687     0A47  0836               	movf	??___flmul,w
  9688     0A48  07C2               	addwf	___flmul@prod,f
  9689     0A49  0837               	movf	??___flmul+1,w
  9690     0A4A  1103               	clrz
  9691     0A4B  1803               	skipnc
  9692     0A4C  3E01               	addlw	1
  9693     0A4D  1903               	skipnz
  9694     0A4E  2A50               	goto	u3991
  9695     0A4F  07C3               	addwf	___flmul@prod+1,f
  9696     0A50                     u3991:
  9697     0A50  0838               	movf	??___flmul+2,w
  9698     0A51  1103               	clrz
  9699     0A52  1803               	skipnc
  9700     0A53  3E01               	addlw	1
  9701     0A54  1903               	skipnz
  9702     0A55  2A57               	goto	u3992
  9703     0A56  07C4               	addwf	___flmul@prod+2,f
  9704     0A57                     u3992:
  9705     0A57  0839               	movf	??___flmul+3,w
  9706     0A58  1103               	clrz
  9707     0A59  1803               	skipnc
  9708     0A5A  3E01               	addlw	1
  9709     0A5B  1903               	skipnz
  9710     0A5C  2A5E               	goto	u3993
  9711     0A5D  07C5               	addwf	___flmul@prod+3,f
  9712     0A5E                     u3993:
  9713     0A5E                     l3046:
  9714     0A5E  3008               	movlw	8
  9715     0A5F  00B6               	movwf	??___flmul
  9716     0A60                     u4005:
  9717     0A60  1003               	clrc
  9718     0A61  0DBC               	rlf	___flmul@grs,f
  9719     0A62  0DBD               	rlf	___flmul@grs+1,f
  9720     0A63  0DBE               	rlf	___flmul@grs+2,f
  9721     0A64  0DBF               	rlf	___flmul@grs+3,f
  9722     0A65  0BB6               	decfsz	??___flmul,f
  9723     0A66  2A60               	goto	u4005
  9724     0A67                     l3048:
  9725     0A67  082F               	movf	___flmul@b+1,w
  9726     0A68  00A0               	movwf	__Umul8_16@multiplicand
  9727     0A69  0832               	movf	___flmul@a,w
  9728     0A6A  160A  158A  2269  120A  158A  	fcall	__Umul8_16
  9729     0A6F  1283               	bcf	3,5	;RP0=0, select bank0
  9730     0A70  1303               	bcf	3,6	;RP1=0, select bank0
  9731     0A71  0821               	movf	?__Umul8_16+1,w
  9732     0A72  00C7               	movwf	___flmul@temp+1
  9733     0A73  0820               	movf	?__Umul8_16,w
  9734     0A74  00C6               	movwf	___flmul@temp
  9735     0A75                     l3050:
  9736     0A75  0846               	movf	___flmul@temp,w
  9737     0A76  00B6               	movwf	??___flmul
  9738     0A77  0847               	movf	___flmul@temp+1,w
  9739     0A78  00B7               	movwf	??___flmul+1
  9740     0A79  01B8               	clrf	??___flmul+2
  9741     0A7A  01B9               	clrf	??___flmul+3
  9742     0A7B  0836               	movf	??___flmul,w
  9743     0A7C  07BC               	addwf	___flmul@grs,f
  9744     0A7D  0837               	movf	??___flmul+1,w
  9745     0A7E  1103               	clrz
  9746     0A7F  1803               	skipnc
  9747     0A80  3E01               	addlw	1
  9748     0A81  1903               	skipnz
  9749     0A82  2A84               	goto	u4011
  9750     0A83  07BD               	addwf	___flmul@grs+1,f
  9751     0A84                     u4011:
  9752     0A84  0838               	movf	??___flmul+2,w
  9753     0A85  1103               	clrz
  9754     0A86  1803               	skipnc
  9755     0A87  3E01               	addlw	1
  9756     0A88  1903               	skipnz
  9757     0A89  2A8B               	goto	u4012
  9758     0A8A  07BE               	addwf	___flmul@grs+2,f
  9759     0A8B                     u4012:
  9760     0A8B  0839               	movf	??___flmul+3,w
  9761     0A8C  1103               	clrz
  9762     0A8D  1803               	skipnc
  9763     0A8E  3E01               	addlw	1
  9764     0A8F  1903               	skipnz
  9765     0A90  2A92               	goto	u4013
  9766     0A91  07BF               	addwf	___flmul@grs+3,f
  9767     0A92                     u4013:
  9768     0A92                     l3052:
  9769     0A92  082E               	movf	___flmul@b,w
  9770     0A93  00A0               	movwf	__Umul8_16@multiplicand
  9771     0A94  0833               	movf	___flmul@a+1,w
  9772     0A95  160A  158A  2269  120A  158A  	fcall	__Umul8_16
  9773     0A9A  1283               	bcf	3,5	;RP0=0, select bank0
  9774     0A9B  1303               	bcf	3,6	;RP1=0, select bank0
  9775     0A9C  0821               	movf	?__Umul8_16+1,w
  9776     0A9D  00C7               	movwf	___flmul@temp+1
  9777     0A9E  0820               	movf	?__Umul8_16,w
  9778     0A9F  00C6               	movwf	___flmul@temp
  9779     0AA0                     l3054:
  9780     0AA0  0846               	movf	___flmul@temp,w
  9781     0AA1  00B6               	movwf	??___flmul
  9782     0AA2  0847               	movf	___flmul@temp+1,w
  9783     0AA3  00B7               	movwf	??___flmul+1
  9784     0AA4  01B8               	clrf	??___flmul+2
  9785     0AA5  01B9               	clrf	??___flmul+3
  9786     0AA6  0836               	movf	??___flmul,w
  9787     0AA7  07BC               	addwf	___flmul@grs,f
  9788     0AA8  0837               	movf	??___flmul+1,w
  9789     0AA9  1103               	clrz
  9790     0AAA  1803               	skipnc
  9791     0AAB  3E01               	addlw	1
  9792     0AAC  1903               	skipnz
  9793     0AAD  2AAF               	goto	u4021
  9794     0AAE  07BD               	addwf	___flmul@grs+1,f
  9795     0AAF                     u4021:
  9796     0AAF  0838               	movf	??___flmul+2,w
  9797     0AB0  1103               	clrz
  9798     0AB1  1803               	skipnc
  9799     0AB2  3E01               	addlw	1
  9800     0AB3  1903               	skipnz
  9801     0AB4  2AB6               	goto	u4022
  9802     0AB5  07BE               	addwf	___flmul@grs+2,f
  9803     0AB6                     u4022:
  9804     0AB6  0839               	movf	??___flmul+3,w
  9805     0AB7  1103               	clrz
  9806     0AB8  1803               	skipnc
  9807     0AB9  3E01               	addlw	1
  9808     0ABA  1903               	skipnz
  9809     0ABB  2ABD               	goto	u4023
  9810     0ABC  07BF               	addwf	___flmul@grs+3,f
  9811     0ABD                     u4023:
  9812     0ABD                     l3056:
  9813     0ABD  3008               	movlw	8
  9814     0ABE  00B6               	movwf	??___flmul
  9815     0ABF                     u4035:
  9816     0ABF  1003               	clrc
  9817     0AC0  0DBC               	rlf	___flmul@grs,f
  9818     0AC1  0DBD               	rlf	___flmul@grs+1,f
  9819     0AC2  0DBE               	rlf	___flmul@grs+2,f
  9820     0AC3  0DBF               	rlf	___flmul@grs+3,f
  9821     0AC4  0BB6               	decfsz	??___flmul,f
  9822     0AC5  2ABF               	goto	u4035
  9823     0AC6  082E               	movf	___flmul@b,w
  9824     0AC7  00A0               	movwf	__Umul8_16@multiplicand
  9825     0AC8  0832               	movf	___flmul@a,w
  9826     0AC9  160A  158A  2269  120A  158A  	fcall	__Umul8_16
  9827     0ACE  1283               	bcf	3,5	;RP0=0, select bank0
  9828     0ACF  1303               	bcf	3,6	;RP1=0, select bank0
  9829     0AD0  0821               	movf	?__Umul8_16+1,w
  9830     0AD1  00C7               	movwf	___flmul@temp+1
  9831     0AD2  0820               	movf	?__Umul8_16,w
  9832     0AD3  00C6               	movwf	___flmul@temp
  9833     0AD4                     l3058:
  9834     0AD4  0846               	movf	___flmul@temp,w
  9835     0AD5  00B6               	movwf	??___flmul
  9836     0AD6  0847               	movf	___flmul@temp+1,w
  9837     0AD7  00B7               	movwf	??___flmul+1
  9838     0AD8  01B8               	clrf	??___flmul+2
  9839     0AD9  01B9               	clrf	??___flmul+3
  9840     0ADA  0836               	movf	??___flmul,w
  9841     0ADB  07BC               	addwf	___flmul@grs,f
  9842     0ADC  0837               	movf	??___flmul+1,w
  9843     0ADD  1103               	clrz
  9844     0ADE  1803               	skipnc
  9845     0ADF  3E01               	addlw	1
  9846     0AE0  1903               	skipnz
  9847     0AE1  2AE3               	goto	u4041
  9848     0AE2  07BD               	addwf	___flmul@grs+1,f
  9849     0AE3                     u4041:
  9850     0AE3  0838               	movf	??___flmul+2,w
  9851     0AE4  1103               	clrz
  9852     0AE5  1803               	skipnc
  9853     0AE6  3E01               	addlw	1
  9854     0AE7  1903               	skipnz
  9855     0AE8  2AEA               	goto	u4042
  9856     0AE9  07BE               	addwf	___flmul@grs+2,f
  9857     0AEA                     u4042:
  9858     0AEA  0839               	movf	??___flmul+3,w
  9859     0AEB  1103               	clrz
  9860     0AEC  1803               	skipnc
  9861     0AED  3E01               	addlw	1
  9862     0AEE  1903               	skipnz
  9863     0AEF  2AF1               	goto	u4043
  9864     0AF0  07BF               	addwf	___flmul@grs+3,f
  9865     0AF1                     u4043:
  9866     0AF1                     l3060:
  9867     0AF1  082F               	movf	___flmul@b+1,w
  9868     0AF2  00A0               	movwf	__Umul8_16@multiplicand
  9869     0AF3  0834               	movf	___flmul@a+2,w
  9870     0AF4  160A  158A  2269  120A  158A  	fcall	__Umul8_16
  9871     0AF9  1283               	bcf	3,5	;RP0=0, select bank0
  9872     0AFA  1303               	bcf	3,6	;RP1=0, select bank0
  9873     0AFB  0821               	movf	?__Umul8_16+1,w
  9874     0AFC  00C7               	movwf	___flmul@temp+1
  9875     0AFD  0820               	movf	?__Umul8_16,w
  9876     0AFE  00C6               	movwf	___flmul@temp
  9877     0AFF  0846               	movf	___flmul@temp,w
  9878     0B00  00B6               	movwf	??___flmul
  9879     0B01  0847               	movf	___flmul@temp+1,w
  9880     0B02  00B7               	movwf	??___flmul+1
  9881     0B03  01B8               	clrf	??___flmul+2
  9882     0B04  01B9               	clrf	??___flmul+3
  9883     0B05  0836               	movf	??___flmul,w
  9884     0B06  07C2               	addwf	___flmul@prod,f
  9885     0B07  0837               	movf	??___flmul+1,w
  9886     0B08  1103               	clrz
  9887     0B09  1803               	skipnc
  9888     0B0A  3E01               	addlw	1
  9889     0B0B  1903               	skipnz
  9890     0B0C  2B0E               	goto	u4051
  9891     0B0D  07C3               	addwf	___flmul@prod+1,f
  9892     0B0E                     u4051:
  9893     0B0E  0838               	movf	??___flmul+2,w
  9894     0B0F  1103               	clrz
  9895     0B10  1803               	skipnc
  9896     0B11  3E01               	addlw	1
  9897     0B12  1903               	skipnz
  9898     0B13  2B15               	goto	u4052
  9899     0B14  07C4               	addwf	___flmul@prod+2,f
  9900     0B15                     u4052:
  9901     0B15  0839               	movf	??___flmul+3,w
  9902     0B16  1103               	clrz
  9903     0B17  1803               	skipnc
  9904     0B18  3E01               	addlw	1
  9905     0B19  1903               	skipnz
  9906     0B1A  2B1C               	goto	u4053
  9907     0B1B  07C5               	addwf	___flmul@prod+3,f
  9908     0B1C                     u4053:
  9909     0B1C                     l3062:
  9910     0B1C  0830               	movf	___flmul@b+2,w
  9911     0B1D  00A0               	movwf	__Umul8_16@multiplicand
  9912     0B1E  0833               	movf	___flmul@a+1,w
  9913     0B1F  160A  158A  2269  120A  158A  	fcall	__Umul8_16
  9914     0B24  1283               	bcf	3,5	;RP0=0, select bank0
  9915     0B25  1303               	bcf	3,6	;RP1=0, select bank0
  9916     0B26  0821               	movf	?__Umul8_16+1,w
  9917     0B27  00C7               	movwf	___flmul@temp+1
  9918     0B28  0820               	movf	?__Umul8_16,w
  9919     0B29  00C6               	movwf	___flmul@temp
  9920     0B2A                     l3064:
  9921     0B2A  0846               	movf	___flmul@temp,w
  9922     0B2B  00B6               	movwf	??___flmul
  9923     0B2C  0847               	movf	___flmul@temp+1,w
  9924     0B2D  00B7               	movwf	??___flmul+1
  9925     0B2E  01B8               	clrf	??___flmul+2
  9926     0B2F  01B9               	clrf	??___flmul+3
  9927     0B30  0836               	movf	??___flmul,w
  9928     0B31  07C2               	addwf	___flmul@prod,f
  9929     0B32  0837               	movf	??___flmul+1,w
  9930     0B33  1103               	clrz
  9931     0B34  1803               	skipnc
  9932     0B35  3E01               	addlw	1
  9933     0B36  1903               	skipnz
  9934     0B37  2B39               	goto	u4061
  9935     0B38  07C3               	addwf	___flmul@prod+1,f
  9936     0B39                     u4061:
  9937     0B39  0838               	movf	??___flmul+2,w
  9938     0B3A  1103               	clrz
  9939     0B3B  1803               	skipnc
  9940     0B3C  3E01               	addlw	1
  9941     0B3D  1903               	skipnz
  9942     0B3E  2B40               	goto	u4062
  9943     0B3F  07C4               	addwf	___flmul@prod+2,f
  9944     0B40                     u4062:
  9945     0B40  0839               	movf	??___flmul+3,w
  9946     0B41  1103               	clrz
  9947     0B42  1803               	skipnc
  9948     0B43  3E01               	addlw	1
  9949     0B44  1903               	skipnz
  9950     0B45  2B47               	goto	u4063
  9951     0B46  07C5               	addwf	___flmul@prod+3,f
  9952     0B47                     u4063:
  9953     0B47  0830               	movf	___flmul@b+2,w
  9954     0B48  00A0               	movwf	__Umul8_16@multiplicand
  9955     0B49  0834               	movf	___flmul@a+2,w
  9956     0B4A  160A  158A  2269  120A  158A  	fcall	__Umul8_16
  9957     0B4F  1283               	bcf	3,5	;RP0=0, select bank0
  9958     0B50  1303               	bcf	3,6	;RP1=0, select bank0
  9959     0B51  0821               	movf	?__Umul8_16+1,w
  9960     0B52  00C7               	movwf	___flmul@temp+1
  9961     0B53  0820               	movf	?__Umul8_16,w
  9962     0B54  00C6               	movwf	___flmul@temp
  9963     0B55                     l3066:
  9964     0B55  0846               	movf	___flmul@temp,w
  9965     0B56  00B6               	movwf	??___flmul
  9966     0B57  0847               	movf	___flmul@temp+1,w
  9967     0B58  00B7               	movwf	??___flmul+1
  9968     0B59  01B8               	clrf	??___flmul+2
  9969     0B5A  01B9               	clrf	??___flmul+3
  9970     0B5B  3008               	movlw	8
  9971     0B5C                     u4075:
  9972     0B5C  1003               	clrc
  9973     0B5D  0DB6               	rlf	??___flmul,f
  9974     0B5E  0DB7               	rlf	??___flmul+1,f
  9975     0B5F  0DB8               	rlf	??___flmul+2,f
  9976     0B60  0DB9               	rlf	??___flmul+3,f
  9977     0B61                     u4070:
  9978     0B61  3EFF               	addlw	-1
  9979     0B62  1D03               	skipz
  9980     0B63  2B5C               	goto	u4075
  9981     0B64  0836               	movf	??___flmul,w
  9982     0B65  07C2               	addwf	___flmul@prod,f
  9983     0B66  0837               	movf	??___flmul+1,w
  9984     0B67  1103               	clrz
  9985     0B68  1803               	skipnc
  9986     0B69  3E01               	addlw	1
  9987     0B6A  1903               	skipnz
  9988     0B6B  2B6D               	goto	u4081
  9989     0B6C  07C3               	addwf	___flmul@prod+1,f
  9990     0B6D                     u4081:
  9991     0B6D  0838               	movf	??___flmul+2,w
  9992     0B6E  1103               	clrz
  9993     0B6F  1803               	skipnc
  9994     0B70  3E01               	addlw	1
  9995     0B71  1903               	skipnz
  9996     0B72  2B74               	goto	u4082
  9997     0B73  07C4               	addwf	___flmul@prod+2,f
  9998     0B74                     u4082:
  9999     0B74  0839               	movf	??___flmul+3,w
 10000     0B75  1103               	clrz
 10001     0B76  1803               	skipnc
 10002     0B77  3E01               	addlw	1
 10003     0B78  1903               	skipnz
 10004     0B79  2B7B               	goto	u4083
 10005     0B7A  07C5               	addwf	___flmul@prod+3,f
 10006     0B7B                     u4083:
 10007     0B7B                     l3068:
 10008     0B7B  083C               	movf	___flmul@grs,w
 10009     0B7C  00B6               	movwf	??___flmul
 10010     0B7D  083D               	movf	___flmul@grs+1,w
 10011     0B7E  00B7               	movwf	??___flmul+1
 10012     0B7F  083E               	movf	___flmul@grs+2,w
 10013     0B80  00B8               	movwf	??___flmul+2
 10014     0B81  083F               	movf	___flmul@grs+3,w
 10015     0B82  00B9               	movwf	??___flmul+3
 10016     0B83  3018               	movlw	24
 10017     0B84                     u4095:
 10018     0B84  1003               	clrc
 10019     0B85  0CB9               	rrf	??___flmul+3,f
 10020     0B86  0CB8               	rrf	??___flmul+2,f
 10021     0B87  0CB7               	rrf	??___flmul+1,f
 10022     0B88  0CB6               	rrf	??___flmul,f
 10023     0B89                     u4090:
 10024     0B89  3EFF               	addlw	-1
 10025     0B8A  1D03               	skipz
 10026     0B8B  2B84               	goto	u4095
 10027     0B8C  0836               	movf	??___flmul,w
 10028     0B8D  07C2               	addwf	___flmul@prod,f
 10029     0B8E  0837               	movf	??___flmul+1,w
 10030     0B8F  1103               	clrz
 10031     0B90  1803               	skipnc
 10032     0B91  3E01               	addlw	1
 10033     0B92  1903               	skipnz
 10034     0B93  2B95               	goto	u4101
 10035     0B94  07C3               	addwf	___flmul@prod+1,f
 10036     0B95                     u4101:
 10037     0B95  0838               	movf	??___flmul+2,w
 10038     0B96  1103               	clrz
 10039     0B97  1803               	skipnc
 10040     0B98  3E01               	addlw	1
 10041     0B99  1903               	skipnz
 10042     0B9A  2B9C               	goto	u4102
 10043     0B9B  07C4               	addwf	___flmul@prod+2,f
 10044     0B9C                     u4102:
 10045     0B9C  0839               	movf	??___flmul+3,w
 10046     0B9D  1103               	clrz
 10047     0B9E  1803               	skipnc
 10048     0B9F  3E01               	addlw	1
 10049     0BA0  1903               	skipnz
 10050     0BA1  2BA3               	goto	u4103
 10051     0BA2  07C5               	addwf	___flmul@prod+3,f
 10052     0BA3                     u4103:
 10053     0BA3                     l3070:
 10054     0BA3  3008               	movlw	8
 10055     0BA4  00B6               	movwf	??___flmul
 10056     0BA5                     u4115:
 10057     0BA5  1003               	clrc
 10058     0BA6  0DBC               	rlf	___flmul@grs,f
 10059     0BA7  0DBD               	rlf	___flmul@grs+1,f
 10060     0BA8  0DBE               	rlf	___flmul@grs+2,f
 10061     0BA9  0DBF               	rlf	___flmul@grs+3,f
 10062     0BAA  0BB6               	decfsz	??___flmul,f
 10063     0BAB  2BA5               	goto	u4115
 10064     0BAC                     l3072:
 10065     0BAC  0841               	movf	___flmul@bexp,w
 10066     0BAD  0740               	addwf	___flmul@aexp,w
 10067     0BAE  00B6               	movwf	??___flmul
 10068     0BAF  01B7               	clrf	??___flmul+1
 10069     0BB0  0DB7               	rlf	??___flmul+1,f
 10070     0BB1  0836               	movf	??___flmul,w
 10071     0BB2  3E82               	addlw	130
 10072     0BB3  00C6               	movwf	___flmul@temp
 10073     0BB4  0837               	movf	??___flmul+1,w
 10074     0BB5  1803               	skipnc
 10075     0BB6  3E01               	addlw	1
 10076     0BB7  3EFF               	addlw	255
 10077     0BB8  00C7               	movwf	___flmul@temp+1
 10078     0BB9  2BD7               	goto	l3084
 10079     0BBA                     l3074:
 10080     0BBA  3001               	movlw	1
 10081     0BBB  00B6               	movwf	??___flmul
 10082     0BBC                     u4125:
 10083     0BBC  1003               	clrc
 10084     0BBD  0DC2               	rlf	___flmul@prod,f
 10085     0BBE  0DC3               	rlf	___flmul@prod+1,f
 10086     0BBF  0DC4               	rlf	___flmul@prod+2,f
 10087     0BC0  0DC5               	rlf	___flmul@prod+3,f
 10088     0BC1  0BB6               	decfsz	??___flmul,f
 10089     0BC2  2BBC               	goto	u4125
 10090     0BC3                     l3076:
 10091     0BC3  1FBF               	btfss	___flmul@grs+3,7
 10092     0BC4  2BC6               	goto	u4131
 10093     0BC5  2BC7               	goto	u4130
 10094     0BC6                     u4131:
 10095     0BC6  2BC8               	goto	l3080
 10096     0BC7                     u4130:
 10097     0BC7                     l3078:
 10098     0BC7  1442               	bsf	___flmul@prod,0
 10099     0BC8                     l3080:
 10100     0BC8  3001               	movlw	1
 10101     0BC9  00B6               	movwf	??___flmul
 10102     0BCA                     u4145:
 10103     0BCA  1003               	clrc
 10104     0BCB  0DBC               	rlf	___flmul@grs,f
 10105     0BCC  0DBD               	rlf	___flmul@grs+1,f
 10106     0BCD  0DBE               	rlf	___flmul@grs+2,f
 10107     0BCE  0DBF               	rlf	___flmul@grs+3,f
 10108     0BCF  0BB6               	decfsz	??___flmul,f
 10109     0BD0  2BCA               	goto	u4145
 10110     0BD1                     l3082:
 10111     0BD1  30FF               	movlw	255
 10112     0BD2  07C6               	addwf	___flmul@temp,f
 10113     0BD3  1803               	skipnc
 10114     0BD4  0AC7               	incf	___flmul@temp+1,f
 10115     0BD5  30FF               	movlw	255
 10116     0BD6  07C7               	addwf	___flmul@temp+1,f
 10117     0BD7                     l3084:
 10118     0BD7  1FC4               	btfss	___flmul@prod+2,7
 10119     0BD8  2BDA               	goto	u4151
 10120     0BD9  2BDB               	goto	u4150
 10121     0BDA                     u4151:
 10122     0BDA  2BBA               	goto	l3074
 10123     0BDB                     u4150:
 10124     0BDB                     l3086:
 10125     0BDB  01C0               	clrf	___flmul@aexp
 10126     0BDC                     l3088:
 10127     0BDC  1FBF               	btfss	___flmul@grs+3,7
 10128     0BDD  2BDF               	goto	u4161
 10129     0BDE  2BE0               	goto	u4160
 10130     0BDF                     u4161:
 10131     0BDF  2BFC               	goto	l3096
 10132     0BE0                     u4160:
 10133     0BE0                     l3090:
 10134     0BE0  30FF               	movlw	255
 10135     0BE1  053C               	andwf	___flmul@grs,w
 10136     0BE2  00B6               	movwf	??___flmul
 10137     0BE3  30FF               	movlw	255
 10138     0BE4  053D               	andwf	___flmul@grs+1,w
 10139     0BE5  00B7               	movwf	??___flmul+1
 10140     0BE6  30FF               	movlw	255
 10141     0BE7  053E               	andwf	___flmul@grs+2,w
 10142     0BE8  00B8               	movwf	??___flmul+2
 10143     0BE9  307F               	movlw	127
 10144     0BEA  053F               	andwf	___flmul@grs+3,w
 10145     0BEB  00B9               	movwf	??___flmul+3
 10146     0BEC  0839               	movf	??___flmul+3,w
 10147     0BED  0438               	iorwf	??___flmul+2,w
 10148     0BEE  0437               	iorwf	??___flmul+1,w
 10149     0BEF  0436               	iorwf	??___flmul,w
 10150     0BF0  1903               	skipnz
 10151     0BF1  2BF3               	goto	u4171
 10152     0BF2  2BF4               	goto	u4170
 10153     0BF3                     u4171:
 10154     0BF3  2BF7               	goto	l724
 10155     0BF4                     u4170:
 10156     0BF4                     l3092:
 10157     0BF4  3001               	movlw	1
 10158     0BF5  00C0               	movwf	___flmul@aexp
 10159     0BF6  2BFC               	goto	l3096
 10160     0BF7                     l724:
 10161     0BF7  1C42               	btfss	___flmul@prod,0
 10162     0BF8  2BFA               	goto	u4181
 10163     0BF9  2BFB               	goto	u4180
 10164     0BFA                     u4181:
 10165     0BFA  2BFC               	goto	l3096
 10166     0BFB                     u4180:
 10167     0BFB  2BF4               	goto	l3092
 10168     0BFC                     l3096:
 10169     0BFC  0840               	movf	___flmul@aexp,w
 10170     0BFD  1903               	btfsc	3,2
 10171     0BFE  2C00               	goto	u4191
 10172     0BFF  2C01               	goto	u4190
 10173     0C00                     u4191:
 10174     0C00  2C32               	goto	l3106
 10175     0C01                     u4190:
 10176     0C01                     l3098:
 10177     0C01  3001               	movlw	1
 10178     0C02  07C2               	addwf	___flmul@prod,f
 10179     0C03  3000               	movlw	0
 10180     0C04  1803               	skipnc
 10181     0C05  3001               	movlw	1
 10182     0C06  07C3               	addwf	___flmul@prod+1,f
 10183     0C07  3000               	movlw	0
 10184     0C08  1803               	skipnc
 10185     0C09  3001               	movlw	1
 10186     0C0A  07C4               	addwf	___flmul@prod+2,f
 10187     0C0B  3000               	movlw	0
 10188     0C0C  1803               	skipnc
 10189     0C0D  3001               	movlw	1
 10190     0C0E  07C5               	addwf	___flmul@prod+3,f
 10191     0C0F                     l3100:
 10192     0C0F  1C45               	btfss	___flmul@prod+3,0
 10193     0C10  2C12               	goto	u4201
 10194     0C11  2C13               	goto	u4200
 10195     0C12                     u4201:
 10196     0C12  2C32               	goto	l3106
 10197     0C13                     u4200:
 10198     0C13                     l3102:
 10199     0C13  0842               	movf	___flmul@prod,w
 10200     0C14  00B6               	movwf	??___flmul
 10201     0C15  0843               	movf	___flmul@prod+1,w
 10202     0C16  00B7               	movwf	??___flmul+1
 10203     0C17  0844               	movf	___flmul@prod+2,w
 10204     0C18  00B8               	movwf	??___flmul+2
 10205     0C19  0845               	movf	___flmul@prod+3,w
 10206     0C1A  00B9               	movwf	??___flmul+3
 10207     0C1B  3001               	movlw	1
 10208     0C1C  00BA               	movwf	??___flmul+4
 10209     0C1D                     u4215:
 10210     0C1D  0D39               	rlf	??___flmul+3,w
 10211     0C1E  0CB9               	rrf	??___flmul+3,f
 10212     0C1F  0CB8               	rrf	??___flmul+2,f
 10213     0C20  0CB7               	rrf	??___flmul+1,f
 10214     0C21  0CB6               	rrf	??___flmul,f
 10215     0C22                     u4210:
 10216     0C22  0BBA               	decfsz	??___flmul+4,f
 10217     0C23  2C1D               	goto	u4215
 10218     0C24  0839               	movf	??___flmul+3,w
 10219     0C25  00C5               	movwf	___flmul@prod+3
 10220     0C26  0838               	movf	??___flmul+2,w
 10221     0C27  00C4               	movwf	___flmul@prod+2
 10222     0C28  0837               	movf	??___flmul+1,w
 10223     0C29  00C3               	movwf	___flmul@prod+1
 10224     0C2A  0836               	movf	??___flmul,w
 10225     0C2B  00C2               	movwf	___flmul@prod
 10226     0C2C                     l3104:
 10227     0C2C  3001               	movlw	1
 10228     0C2D  07C6               	addwf	___flmul@temp,f
 10229     0C2E  1803               	skipnc
 10230     0C2F  0AC7               	incf	___flmul@temp+1,f
 10231     0C30  3000               	movlw	0
 10232     0C31  07C7               	addwf	___flmul@temp+1,f
 10233     0C32                     l3106:
 10234     0C32  0847               	movf	___flmul@temp+1,w
 10235     0C33  3A80               	xorlw	128
 10236     0C34  00FF               	movwf	btemp1
 10237     0C35  3080               	movlw	128
 10238     0C36  027F               	subwf	btemp1,w
 10239     0C37  1D03               	skipz
 10240     0C38  2C3B               	goto	u4225
 10241     0C39  30FF               	movlw	255
 10242     0C3A  0246               	subwf	___flmul@temp,w
 10243     0C3B                     u4225:
 10244     0C3B  1C03               	skipc
 10245     0C3C  2C3E               	goto	u4221
 10246     0C3D  2C3F               	goto	u4220
 10247     0C3E                     u4221:
 10248     0C3E  2C4A               	goto	l3110
 10249     0C3F                     u4220:
 10250     0C3F                     l3108:
 10251     0C3F  307F               	movlw	127
 10252     0C40  1283               	bcf	3,5	;RP0=0, select bank0
 10253     0C41  1303               	bcf	3,6	;RP1=0, select bank0
 10254     0C42  00C5               	movwf	___flmul@prod+3
 10255     0C43  3080               	movlw	128
 10256     0C44  00C4               	movwf	___flmul@prod+2
 10257     0C45  3000               	movlw	0
 10258     0C46  00C3               	movwf	___flmul@prod+1
 10259     0C47  3000               	movlw	0
 10260     0C48  00C2               	movwf	___flmul@prod
 10261     0C49  2C7B               	goto	l730
 10262     0C4A                     l3110:
 10263     0C4A  1283               	bcf	3,5	;RP0=0, select bank0
 10264     0C4B  1303               	bcf	3,6	;RP1=0, select bank0
 10265     0C4C  0847               	movf	___flmul@temp+1,w
 10266     0C4D  3A80               	xorlw	128
 10267     0C4E  00FF               	movwf	btemp1
 10268     0C4F  3080               	movlw	128
 10269     0C50  027F               	subwf	btemp1,w
 10270     0C51  1D03               	skipz
 10271     0C52  2C55               	goto	u4235
 10272     0C53  3001               	movlw	1
 10273     0C54  0246               	subwf	___flmul@temp,w
 10274     0C55                     u4235:
 10275     0C55  1803               	skipnc
 10276     0C56  2C58               	goto	u4231
 10277     0C57  2C59               	goto	u4230
 10278     0C58                     u4231:
 10279     0C58  2C65               	goto	l3116
 10280     0C59                     u4230:
 10281     0C59                     l3112:
 10282     0C59  3000               	movlw	0
 10283     0C5A  1283               	bcf	3,5	;RP0=0, select bank0
 10284     0C5B  1303               	bcf	3,6	;RP1=0, select bank0
 10285     0C5C  00C5               	movwf	___flmul@prod+3
 10286     0C5D  3000               	movlw	0
 10287     0C5E  00C4               	movwf	___flmul@prod+2
 10288     0C5F  3000               	movlw	0
 10289     0C60  00C3               	movwf	___flmul@prod+1
 10290     0C61  3000               	movlw	0
 10291     0C62  00C2               	movwf	___flmul@prod
 10292     0C63                     l3114:
 10293     0C63  01BB               	clrf	___flmul@sign
 10294     0C64  2C7B               	goto	l730
 10295     0C65                     l3116:
 10296     0C65  1283               	bcf	3,5	;RP0=0, select bank0
 10297     0C66  1303               	bcf	3,6	;RP1=0, select bank0
 10298     0C67  0846               	movf	___flmul@temp,w
 10299     0C68  00C1               	movwf	___flmul@bexp
 10300     0C69  30FF               	movlw	255
 10301     0C6A  05C2               	andwf	___flmul@prod,f
 10302     0C6B  30FF               	movlw	255
 10303     0C6C  05C3               	andwf	___flmul@prod+1,f
 10304     0C6D  307F               	movlw	127
 10305     0C6E  05C4               	andwf	___flmul@prod+2,f
 10306     0C6F  3000               	movlw	0
 10307     0C70  05C5               	andwf	___flmul@prod+3,f
 10308     0C71                     l3118:
 10309     0C71  1C41               	btfss	___flmul@bexp,0
 10310     0C72  2C74               	goto	u4241
 10311     0C73  2C75               	goto	u4240
 10312     0C74                     u4241:
 10313     0C74  2C76               	goto	l3122
 10314     0C75                     u4240:
 10315     0C75                     l3120:
 10316     0C75  17C4               	bsf	___flmul@prod+2,7
 10317     0C76                     l3122:
 10318     0C76  0841               	movf	___flmul@bexp,w
 10319     0C77  00B6               	movwf	??___flmul
 10320     0C78  1003               	clrc
 10321     0C79  0C36               	rrf	??___flmul,w
 10322     0C7A  00C5               	movwf	___flmul@prod+3
 10323     0C7B                     l730:
 10324     0C7B  083B               	movf	___flmul@sign,w
 10325     0C7C  04C5               	iorwf	___flmul@prod+3,f
 10326     0C7D                     l3124:
 10327     0C7D  0845               	movf	___flmul@prod+3,w
 10328     0C7E  00B1               	movwf	?___flmul+3
 10329     0C7F  0844               	movf	___flmul@prod+2,w
 10330     0C80  00B0               	movwf	?___flmul+2
 10331     0C81  0843               	movf	___flmul@prod+1,w
 10332     0C82  00AF               	movwf	?___flmul+1
 10333     0C83  0842               	movf	___flmul@prod,w
 10334     0C84  00AE               	movwf	?___flmul
 10335     0C85                     l718:
 10336     0C85  0008               	return
 10337     0C86                     __end_of___flmul:
 10338                           
 10339                           	psect	text34
 10340     1A69                     __ptext34:	
 10341 ;; *************** function __Umul8_16 *****************
 10342 ;; Defined at:
 10343 ;;		line 4 in file "/opt/microchip/xc8/v3.10/pic/sources/c99/common/Umul8_16.c"
 10344 ;; Parameters:    Size  Location     Type
 10345 ;;  multiplier      1    wreg     unsigned char 
 10346 ;;  multiplicand    1    0[BANK0 ] unsigned char 
 10347 ;; Auto vars:     Size  Location     Type
 10348 ;;  multiplier      1    8[BANK0 ] unsigned char 
 10349 ;;  word_mpld       2    6[BANK0 ] unsigned short 
 10350 ;;  product         2    4[BANK0 ] unsigned short 
 10351 ;; Return value:  Size  Location     Type
 10352 ;;                  2    0[BANK0 ] unsigned int 
 10353 ;; Registers used:
 10354 ;;		wreg, status,2, status,0
 10355 ;; Tracked objects:
 10356 ;;		On entry : 0/0
 10357 ;;		On exit  : 0/0
 10358 ;;		Unchanged: 0/0
 10359 ;; Data sizes:     COMMON   BANK0   BANK1   BANK3   BANK2
 10360 ;;      Params:         0       2       0       0       0
 10361 ;;      Locals:         0       5       0       0       0
 10362 ;;      Temps:          0       2       0       0       0
 10363 ;;      Totals:         0       9       0       0       0
 10364 ;;Total ram usage:        9 bytes
 10365 ;; Hardware stack levels used: 1
 10366 ;; Hardware stack levels required when called: 1
 10367 ;; This function calls:
 10368 ;;		Nothing
 10369 ;; This function is called by:
 10370 ;;		___flmul
 10371 ;; This function uses a non-reentrant model
 10372 ;;
 10373                           
 10374     1A69                     __Umul8_16:	
 10375                           ;psect for function __Umul8_16
 10376                           
 10377                           
 10378                           ;incstack = 0
 10379                           ; Regs used in __Umul8_16: [wreg+status,2+status,0]
 10380                           ;__Umul8_16@multiplier stored from wreg
 10381     1A69  1283               	bcf	3,5	;RP0=0, select bank0
 10382     1A6A  1303               	bcf	3,6	;RP1=0, select bank0
 10383     1A6B  00A8               	movwf	__Umul8_16@multiplier
 10384     1A6C                     l2738:
 10385     1A6C  01A4               	clrf	__Umul8_16@product
 10386     1A6D  01A5               	clrf	__Umul8_16@product+1
 10387     1A6E                     l2740:
 10388     1A6E  0820               	movf	__Umul8_16@multiplicand,w
 10389     1A6F  00A2               	movwf	??__Umul8_16
 10390     1A70  01A3               	clrf	??__Umul8_16+1
 10391     1A71  0822               	movf	??__Umul8_16,w
 10392     1A72  00A6               	movwf	__Umul8_16@word_mpld
 10393     1A73  0823               	movf	??__Umul8_16+1,w
 10394     1A74  00A7               	movwf	__Umul8_16@word_mpld+1
 10395     1A75                     l2742:
 10396     1A75  1C28               	btfss	__Umul8_16@multiplier,0
 10397     1A76  2A78               	goto	u3341
 10398     1A77  2A79               	goto	u3340
 10399     1A78                     u3341:
 10400     1A78  2A7F               	goto	l737
 10401     1A79                     u3340:
 10402     1A79                     l2744:
 10403     1A79  0826               	movf	__Umul8_16@word_mpld,w
 10404     1A7A  07A4               	addwf	__Umul8_16@product,f
 10405     1A7B  1803               	skipnc
 10406     1A7C  0AA5               	incf	__Umul8_16@product+1,f
 10407     1A7D  0827               	movf	__Umul8_16@word_mpld+1,w
 10408     1A7E  07A5               	addwf	__Umul8_16@product+1,f
 10409     1A7F                     l737:
 10410     1A7F  3001               	movlw	1
 10411     1A80                     u3355:
 10412     1A80  1003               	clrc
 10413     1A81  0DA6               	rlf	__Umul8_16@word_mpld,f
 10414     1A82  0DA7               	rlf	__Umul8_16@word_mpld+1,f
 10415     1A83  3EFF               	addlw	-1
 10416     1A84  1D03               	skipz
 10417     1A85  2A80               	goto	u3355
 10418     1A86  1003               	clrc
 10419     1A87  0CA8               	rrf	__Umul8_16@multiplier,f
 10420     1A88                     l2746:
 10421     1A88  0828               	movf	__Umul8_16@multiplier,w
 10422     1A89  1D03               	btfss	3,2
 10423     1A8A  2A8C               	goto	u3361
 10424     1A8B  2A8D               	goto	u3360
 10425     1A8C                     u3361:
 10426     1A8C  2A75               	goto	l2742
 10427     1A8D                     u3360:
 10428     1A8D                     l2748:
 10429     1A8D  0825               	movf	__Umul8_16@product+1,w
 10430     1A8E  00A1               	movwf	?__Umul8_16+1
 10431     1A8F  0824               	movf	__Umul8_16@product,w
 10432     1A90  00A0               	movwf	?__Umul8_16
 10433     1A91                     l739:
 10434     1A91  0008               	return
 10435     1A92                     __end_of__Umul8_16:
 10436                           
 10437                           	psect	text35
 10438     1F67                     __ptext35:	
 10439 ;; *************** function ___aldiv *****************
 10440 ;; Defined at:
 10441 ;;		line 5 in file "/opt/microchip/xc8/v3.10/pic/sources/c99/common/aldiv.c"
 10442 ;; Parameters:    Size  Location     Type
 10443 ;;  divisor         4    0[BANK0 ] long 
 10444 ;;  dividend        4    4[BANK0 ] long 
 10445 ;; Auto vars:     Size  Location     Type
 10446 ;;  quotient        4   11[BANK0 ] long 
 10447 ;;  sign            1   10[BANK0 ] unsigned char 
 10448 ;;  counter         1    9[BANK0 ] unsigned char 
 10449 ;; Return value:  Size  Location     Type
 10450 ;;                  4    0[BANK0 ] long 
 10451 ;; Registers used:
 10452 ;;		wreg, status,2, status,0
 10453 ;; Tracked objects:
 10454 ;;		On entry : 0/0
 10455 ;;		On exit  : 0/0
 10456 ;;		Unchanged: 0/0
 10457 ;; Data sizes:     COMMON   BANK0   BANK1   BANK3   BANK2
 10458 ;;      Params:         0       8       0       0       0
 10459 ;;      Locals:         0       6       0       0       0
 10460 ;;      Temps:          0       1       0       0       0
 10461 ;;      Totals:         0      15       0       0       0
 10462 ;;Total ram usage:       15 bytes
 10463 ;; Hardware stack levels used: 1
 10464 ;; Hardware stack levels required when called: 1
 10465 ;; This function calls:
 10466 ;;		Nothing
 10467 ;; This function is called by:
 10468 ;;		_init_PWM
 10469 ;;		_set_PWM
 10470 ;; This function uses a non-reentrant model
 10471 ;;
 10472                           
 10473     1F67                     ___aldiv:	
 10474                           ;psect for function ___aldiv
 10475                           
 10476     1F67                     l3624:	
 10477                           ;incstack = 0
 10478                           ; Regs used in ___aldiv: [wreg+status,2+status,0]
 10479                           
 10480     1F67  1283               	bcf	3,5	;RP0=0, select bank0
 10481     1F68  1303               	bcf	3,6	;RP1=0, select bank0
 10482     1F69  01AA               	clrf	___aldiv@sign
 10483     1F6A                     l3626:
 10484     1F6A  1FA3               	btfss	___aldiv@divisor+3,7
 10485     1F6B  2F6D               	goto	u5221
 10486     1F6C  2F6E               	goto	u5220
 10487     1F6D                     u5221:
 10488     1F6D  2F7B               	goto	l386
 10489     1F6E                     u5220:
 10490     1F6E                     l3628:
 10491     1F6E  09A0               	comf	___aldiv@divisor,f
 10492     1F6F  09A1               	comf	___aldiv@divisor+1,f
 10493     1F70  09A2               	comf	___aldiv@divisor+2,f
 10494     1F71  09A3               	comf	___aldiv@divisor+3,f
 10495     1F72  0AA0               	incf	___aldiv@divisor,f
 10496     1F73  1903               	skipnz
 10497     1F74  0AA1               	incf	___aldiv@divisor+1,f
 10498     1F75  1903               	skipnz
 10499     1F76  0AA2               	incf	___aldiv@divisor+2,f
 10500     1F77  1903               	skipnz
 10501     1F78  0AA3               	incf	___aldiv@divisor+3,f
 10502     1F79  3001               	movlw	1
 10503     1F7A  00AA               	movwf	___aldiv@sign
 10504     1F7B                     l386:
 10505     1F7B  1FA7               	btfss	___aldiv@dividend+3,7
 10506     1F7C  2F7E               	goto	u5231
 10507     1F7D  2F7F               	goto	u5230
 10508     1F7E                     u5231:
 10509     1F7E  2F8C               	goto	l3634
 10510     1F7F                     u5230:
 10511     1F7F                     l3630:
 10512     1F7F  09A4               	comf	___aldiv@dividend,f
 10513     1F80  09A5               	comf	___aldiv@dividend+1,f
 10514     1F81  09A6               	comf	___aldiv@dividend+2,f
 10515     1F82  09A7               	comf	___aldiv@dividend+3,f
 10516     1F83  0AA4               	incf	___aldiv@dividend,f
 10517     1F84  1903               	skipnz
 10518     1F85  0AA5               	incf	___aldiv@dividend+1,f
 10519     1F86  1903               	skipnz
 10520     1F87  0AA6               	incf	___aldiv@dividend+2,f
 10521     1F88  1903               	skipnz
 10522     1F89  0AA7               	incf	___aldiv@dividend+3,f
 10523     1F8A                     l3632:
 10524     1F8A  3001               	movlw	1
 10525     1F8B  06AA               	xorwf	___aldiv@sign,f
 10526     1F8C                     l3634:
 10527     1F8C  3000               	movlw	0
 10528     1F8D  00AE               	movwf	___aldiv@quotient+3
 10529     1F8E  3000               	movlw	0
 10530     1F8F  00AD               	movwf	___aldiv@quotient+2
 10531     1F90  3000               	movlw	0
 10532     1F91  00AC               	movwf	___aldiv@quotient+1
 10533     1F92  3000               	movlw	0
 10534     1F93  00AB               	movwf	___aldiv@quotient
 10535     1F94                     l3636:
 10536     1F94  0823               	movf	___aldiv@divisor+3,w
 10537     1F95  0422               	iorwf	___aldiv@divisor+2,w
 10538     1F96  0421               	iorwf	___aldiv@divisor+1,w
 10539     1F97  0420               	iorwf	___aldiv@divisor,w
 10540     1F98  1903               	skipnz
 10541     1F99  2F9B               	goto	u5241
 10542     1F9A  2F9C               	goto	u5240
 10543     1F9B                     u5241:
 10544     1F9B  2FE7               	goto	l3656
 10545     1F9C                     u5240:
 10546     1F9C                     l3638:
 10547     1F9C  3001               	movlw	1
 10548     1F9D  00A9               	movwf	___aldiv@counter
 10549     1F9E  2FAA               	goto	l3642
 10550     1F9F                     l3640:
 10551     1F9F  3001               	movlw	1
 10552     1FA0  00A8               	movwf	??___aldiv
 10553     1FA1                     u5255:
 10554     1FA1  1003               	clrc
 10555     1FA2  0DA0               	rlf	___aldiv@divisor,f
 10556     1FA3  0DA1               	rlf	___aldiv@divisor+1,f
 10557     1FA4  0DA2               	rlf	___aldiv@divisor+2,f
 10558     1FA5  0DA3               	rlf	___aldiv@divisor+3,f
 10559     1FA6  0BA8               	decfsz	??___aldiv,f
 10560     1FA7  2FA1               	goto	u5255
 10561     1FA8  3001               	movlw	1
 10562     1FA9  07A9               	addwf	___aldiv@counter,f
 10563     1FAA                     l3642:
 10564     1FAA  1FA3               	btfss	___aldiv@divisor+3,7
 10565     1FAB  2FAD               	goto	u5261
 10566     1FAC  2FAE               	goto	u5260
 10567     1FAD                     u5261:
 10568     1FAD  2F9F               	goto	l3640
 10569     1FAE                     u5260:
 10570     1FAE                     l3644:
 10571     1FAE  3001               	movlw	1
 10572     1FAF  00A8               	movwf	??___aldiv
 10573     1FB0                     u5275:
 10574     1FB0  1003               	clrc
 10575     1FB1  0DAB               	rlf	___aldiv@quotient,f
 10576     1FB2  0DAC               	rlf	___aldiv@quotient+1,f
 10577     1FB3  0DAD               	rlf	___aldiv@quotient+2,f
 10578     1FB4  0DAE               	rlf	___aldiv@quotient+3,f
 10579     1FB5  0BA8               	decfsz	??___aldiv,f
 10580     1FB6  2FB0               	goto	u5275
 10581     1FB7                     l3646:
 10582     1FB7  0823               	movf	___aldiv@divisor+3,w
 10583     1FB8  0227               	subwf	___aldiv@dividend+3,w
 10584     1FB9  1D03               	skipz
 10585     1FBA  2FC5               	goto	u5285
 10586     1FBB  0822               	movf	___aldiv@divisor+2,w
 10587     1FBC  0226               	subwf	___aldiv@dividend+2,w
 10588     1FBD  1D03               	skipz
 10589     1FBE  2FC5               	goto	u5285
 10590     1FBF  0821               	movf	___aldiv@divisor+1,w
 10591     1FC0  0225               	subwf	___aldiv@dividend+1,w
 10592     1FC1  1D03               	skipz
 10593     1FC2  2FC5               	goto	u5285
 10594     1FC3  0820               	movf	___aldiv@divisor,w
 10595     1FC4  0224               	subwf	___aldiv@dividend,w
 10596     1FC5                     u5285:
 10597     1FC5  1C03               	skipc
 10598     1FC6  2FC8               	goto	u5281
 10599     1FC7  2FC9               	goto	u5280
 10600     1FC8                     u5281:
 10601     1FC8  2FD8               	goto	l3652
 10602     1FC9                     u5280:
 10603     1FC9                     l3648:
 10604     1FC9  0820               	movf	___aldiv@divisor,w
 10605     1FCA  02A4               	subwf	___aldiv@dividend,f
 10606     1FCB  0821               	movf	___aldiv@divisor+1,w
 10607     1FCC  1C03               	skipc
 10608     1FCD  0F21               	incfsz	___aldiv@divisor+1,w
 10609     1FCE  02A5               	subwf	___aldiv@dividend+1,f
 10610     1FCF  0822               	movf	___aldiv@divisor+2,w
 10611     1FD0  1C03               	skipc
 10612     1FD1  0F22               	incfsz	___aldiv@divisor+2,w
 10613     1FD2  02A6               	subwf	___aldiv@dividend+2,f
 10614     1FD3  0823               	movf	___aldiv@divisor+3,w
 10615     1FD4  1C03               	skipc
 10616     1FD5  0F23               	incfsz	___aldiv@divisor+3,w
 10617     1FD6  02A7               	subwf	___aldiv@dividend+3,f
 10618     1FD7                     l3650:
 10619     1FD7  142B               	bsf	___aldiv@quotient,0
 10620     1FD8                     l3652:
 10621     1FD8  3001               	movlw	1
 10622     1FD9                     u5295:
 10623     1FD9  1003               	clrc
 10624     1FDA  0CA3               	rrf	___aldiv@divisor+3,f
 10625     1FDB  0CA2               	rrf	___aldiv@divisor+2,f
 10626     1FDC  0CA1               	rrf	___aldiv@divisor+1,f
 10627     1FDD  0CA0               	rrf	___aldiv@divisor,f
 10628     1FDE  3EFF               	addlw	-1
 10629     1FDF  1D03               	skipz
 10630     1FE0  2FD9               	goto	u5295
 10631     1FE1                     l3654:
 10632     1FE1  3001               	movlw	1
 10633     1FE2  02A9               	subwf	___aldiv@counter,f
 10634     1FE3  1D03               	btfss	3,2
 10635     1FE4  2FE6               	goto	u5301
 10636     1FE5  2FE7               	goto	u5300
 10637     1FE6                     u5301:
 10638     1FE6  2FAE               	goto	l3644
 10639     1FE7                     u5300:
 10640     1FE7                     l3656:
 10641     1FE7  082A               	movf	___aldiv@sign,w
 10642     1FE8  1903               	btfsc	3,2
 10643     1FE9  2FEB               	goto	u5311
 10644     1FEA  2FEC               	goto	u5310
 10645     1FEB                     u5311:
 10646     1FEB  2FF7               	goto	l3660
 10647     1FEC                     u5310:
 10648     1FEC                     l3658:
 10649     1FEC  09AB               	comf	___aldiv@quotient,f
 10650     1FED  09AC               	comf	___aldiv@quotient+1,f
 10651     1FEE  09AD               	comf	___aldiv@quotient+2,f
 10652     1FEF  09AE               	comf	___aldiv@quotient+3,f
 10653     1FF0  0AAB               	incf	___aldiv@quotient,f
 10654     1FF1  1903               	skipnz
 10655     1FF2  0AAC               	incf	___aldiv@quotient+1,f
 10656     1FF3  1903               	skipnz
 10657     1FF4  0AAD               	incf	___aldiv@quotient+2,f
 10658     1FF5  1903               	skipnz
 10659     1FF6  0AAE               	incf	___aldiv@quotient+3,f
 10660     1FF7                     l3660:
 10661     1FF7  082E               	movf	___aldiv@quotient+3,w
 10662     1FF8  00A3               	movwf	?___aldiv+3
 10663     1FF9  082D               	movf	___aldiv@quotient+2,w
 10664     1FFA  00A2               	movwf	?___aldiv+2
 10665     1FFB  082C               	movf	___aldiv@quotient+1,w
 10666     1FFC  00A1               	movwf	?___aldiv+1
 10667     1FFD  082B               	movf	___aldiv@quotient,w
 10668     1FFE  00A0               	movwf	?___aldiv
 10669     1FFF                     l396:
 10670     1FFF  0008               	return
 10671     2000                     __end_of___aldiv:
 10672                           
 10673                           	psect	text36
 10674     07E1                     __ptext36:	
 10675 ;; *************** function _init_ADC *****************
 10676 ;; Defined at:
 10677 ;;		line 14 in file "../../Functions/adc-v1.c"
 10678 ;; Parameters:    Size  Location     Type
 10679 ;;		None
 10680 ;; Auto vars:     Size  Location     Type
 10681 ;;		None
 10682 ;; Return value:  Size  Location     Type
 10683 ;;                  1    wreg      void 
 10684 ;; Registers used:
 10685 ;;		wreg, status,2, status,0
 10686 ;; Tracked objects:
 10687 ;;		On entry : 0/0
 10688 ;;		On exit  : 0/0
 10689 ;;		Unchanged: 0/0
 10690 ;; Data sizes:     COMMON   BANK0   BANK1   BANK3   BANK2
 10691 ;;      Params:         0       0       0       0       0
 10692 ;;      Locals:         0       0       0       0       0
 10693 ;;      Temps:          0       0       0       0       0
 10694 ;;      Totals:         0       0       0       0       0
 10695 ;;Total ram usage:        0 bytes
 10696 ;; Hardware stack levels used: 1
 10697 ;; Hardware stack levels required when called: 1
 10698 ;; This function calls:
 10699 ;;		Nothing
 10700 ;; This function is called by:
 10701 ;;		_main
 10702 ;; This function uses a non-reentrant model
 10703 ;;
 10704                           
 10705     07E1                     _init_ADC:	
 10706                           ;psect for function _init_ADC
 10707                           
 10708     07E1                     l3768:	
 10709                           ;incstack = 0
 10710                           ; Regs used in _init_ADC: [wreg+status,2+status,0]
 10711                           
 10712                           
 10713                           ;../../Functions/adc-v1.c: 15:     ANSEL = 0b00000111;
 10714     07E1  3007               	movlw	7
 10715     07E2  1683               	bsf	3,5	;RP0=1, select bank3
 10716     07E3  1703               	bsf	3,6	;RP1=1, select bank3
 10717     07E4  0088               	movwf	8	;volatile
 10718     07E5                     l3770:
 10719                           
 10720                           ;../../Functions/adc-v1.c: 16:     ANSELH = 0;
 10721     07E5  0189               	clrf	9	;volatile
 10722     07E6                     l3772:
 10723                           
 10724                           ;../../Functions/adc-v1.c: 18:     TRISAbits.TRISA0 = 1;
 10725     07E6  1683               	bsf	3,5	;RP0=1, select bank1
 10726     07E7  1303               	bcf	3,6	;RP1=0, select bank1
 10727     07E8  1405               	bsf	5,0	;volatile
 10728     07E9                     l3774:
 10729                           
 10730                           ;../../Functions/adc-v1.c: 19:     TRISAbits.TRISA1 = 1;
 10731     07E9  1485               	bsf	5,1	;volatile
 10732     07EA                     l3776:
 10733                           
 10734                           ;../../Functions/adc-v1.c: 20:     TRISAbits.TRISA2 = 1;
 10735     07EA  1505               	bsf	5,2	;volatile
 10736     07EB                     l3778:
 10737                           
 10738                           ;../../Functions/adc-v1.c: 22:     ADCON0bits.CHS = 0b00;
 10739     07EB  30C3               	movlw	-61
 10740     07EC  1283               	bcf	3,5	;RP0=0, select bank0
 10741     07ED  1303               	bcf	3,6	;RP1=0, select bank0
 10742     07EE  059F               	andwf	31,f	;volatile
 10743     07EF                     l3780:
 10744                           
 10745                           ;../../Functions/adc-v1.c: 23:     ADCON0bits.ADCS = 0b10;
 10746     07EF  081F               	movf	31,w	;volatile
 10747     07F0  393F               	andlw	-193
 10748     07F1  3880               	iorlw	128
 10749     07F2  009F               	movwf	31	;volatile
 10750     07F3                     l3782:
 10751                           
 10752                           ;../../Functions/adc-v1.c: 25:     ADCON0bits.ADON = 1;
 10753     07F3  141F               	bsf	31,0	;volatile
 10754     07F4                     l3784:
 10755                           
 10756                           ;../../Functions/adc-v1.c: 27:     ADCON1bits.ADFM = 1;
 10757     07F4  1683               	bsf	3,5	;RP0=1, select bank1
 10758     07F5  1303               	bcf	3,6	;RP1=0, select bank1
 10759     07F6  179F               	bsf	31,7	;volatile
 10760     07F7                     l3786:
 10761                           
 10762                           ;../../Functions/adc-v1.c: 28:     ADCON1bits.VCFG0 = 0;
 10763     07F7  121F               	bcf	31,4	;volatile
 10764     07F8                     l3788:
 10765                           
 10766                           ;../../Functions/adc-v1.c: 29:     ADCON1bits.VCFG1 = 0;
 10767     07F8  129F               	bcf	31,5	;volatile
 10768     07F9                     l3790:
 10769                           
 10770                           ;../../Functions/adc-v1.c: 31:     PIR1bits.ADIF = 0;
 10771     07F9  1283               	bcf	3,5	;RP0=0, select bank0
 10772     07FA  1303               	bcf	3,6	;RP1=0, select bank0
 10773     07FB  130C               	bcf	12,6	;volatile
 10774     07FC                     l3792:
 10775                           
 10776                           ;../../Functions/adc-v1.c: 32:     PIE1bits.ADIE = 1;
 10777     07FC  1683               	bsf	3,5	;RP0=1, select bank1
 10778     07FD  1303               	bcf	3,6	;RP1=0, select bank1
 10779     07FE  170C               	bsf	12,6	;volatile
 10780     07FF                     l81:
 10781     07FF  0008               	return
 10782     0800                     __end_of_init_ADC:
 10783                           
 10784                           	psect	text37
 10785     1B45                     __ptext37:	
 10786 ;; *************** function _interrupt_manager *****************
 10787 ;; Defined at:
 10788 ;;		line 178 in file "../../Code/main.c"
 10789 ;; Parameters:    Size  Location     Type
 10790 ;;		None
 10791 ;; Auto vars:     Size  Location     Type
 10792 ;;  valor           2    5[COMMON] int 
 10793 ;; Return value:  Size  Location     Type
 10794 ;;                  1    wreg      void 
 10795 ;; Registers used:
 10796 ;;		wreg, fsr0l, fsr0h, status,2, status,0, btemp1
 10797 ;; Tracked objects:
 10798 ;;		On entry : 0/0
 10799 ;;		On exit  : 0/0
 10800 ;;		Unchanged: 0/0
 10801 ;; Data sizes:     COMMON   BANK0   BANK1   BANK3   BANK2
 10802 ;;      Params:         0       0       0       0       0
 10803 ;;      Locals:         2       0       0       0       0
 10804 ;;      Temps:          5       0       0       0       0
 10805 ;;      Totals:         7       0       0       0       0
 10806 ;;Total ram usage:        7 bytes
 10807 ;; Hardware stack levels used: 1
 10808 ;; This function calls:
 10809 ;;		Nothing
 10810 ;; This function is called by:
 10811 ;;		Interrupt level 1
 10812 ;; This function uses a non-reentrant model
 10813 ;;
 10814                           
 10815     1B45                     _interrupt_manager:	
 10816                           ;psect for function _interrupt_manager
 10817                           
 10818     1B45                     i1l3932:
 10819                           
 10820                           ;../../Code/main.c: 180:     if(INTCONbits.T0IF) {
 10821     1B45  1D0B               	btfss	11,2	;volatile
 10822     1B46  2B48               	goto	u555_21
 10823     1B47  2B49               	goto	u555_20
 10824     1B48                     u555_21:
 10825     1B48  2B4F               	goto	i1l213
 10826     1B49                     u555_20:
 10827     1B49                     i1l3934:
 10828                           
 10829                           ;../../Code/main.c: 181:         TMR0 = 236;
 10830     1B49  30EC               	movlw	236
 10831     1B4A  1283               	bcf	3,5	;RP0=0, select bank0
 10832     1B4B  1303               	bcf	3,6	;RP1=0, select bank0
 10833     1B4C  0081               	movwf	1	;volatile
 10834                           
 10835                           ;../../Code/main.c: 183:         ADCON0bits.GO_DONE = 1;
 10836     1B4D  149F               	bsf	31,1	;volatile
 10837                           
 10838                           ;../../Code/main.c: 185:         INTCONbits.T0IF = 0;
 10839     1B4E  110B               	bcf	11,2	;volatile
 10840     1B4F                     i1l213:	
 10841                           ;../../Code/main.c: 186:     }
 10842                           
 10843                           
 10844                           ;../../Code/main.c: 188:     if(PIR1bits.ADIF) {
 10845     1B4F  1283               	bcf	3,5	;RP0=0, select bank0
 10846     1B50  1303               	bcf	3,6	;RP1=0, select bank0
 10847     1B51  1F0C               	btfss	12,6	;volatile
 10848     1B52  2B54               	goto	u556_21
 10849     1B53  2B55               	goto	u556_20
 10850     1B54                     u556_21:
 10851     1B54  2B8B               	goto	i1l216
 10852     1B55                     u556_20:
 10853     1B55                     i1l3936:
 10854                           
 10855                           ;../../Code/main.c: 189:         int valor = (ADRESH << 8) | ADRESL;
 10856     1B55  081E               	movf	30,w	;volatile
 10857     1B56  00FD               	movwf	interrupt_manager@valor+1
 10858     1B57  1683               	bsf	3,5	;RP0=1, select bank1
 10859     1B58  1303               	bcf	3,6	;RP1=0, select bank1
 10860     1B59  081E               	movf	30,w	;volatile
 10861     1B5A  00FC               	movwf	interrupt_manager@valor
 10862     1B5B                     i1l3938:
 10863                           
 10864                           ;../../Code/main.c: 191:         lecturas[canal_actual] = valor;
 10865     1B5B  0872               	movf	_canal_actual,w
 10866     1B5C  00F7               	movwf	??_interrupt_manager
 10867     1B5D  0777               	addwf	??_interrupt_manager,w
 10868     1B5E  3EAE               	addlw	(low (_lecturas| (0+256)))& (0+255)
 10869     1B5F  0084               	movwf	4
 10870     1B60  087C               	movf	interrupt_manager@valor,w
 10871     1B61  1783               	bsf	3,7	;select IRP bank3
 10872     1B62  0080               	movwf	0
 10873     1B63  0A84               	incf	4,f
 10874     1B64  087D               	movf	interrupt_manager@valor+1,w
 10875     1B65  0080               	movwf	0
 10876     1B66                     i1l3940:
 10877                           
 10878                           ;../../Code/main.c: 193:         canal_actual++;
 10879     1B66  3001               	movlw	1
 10880     1B67  07F2               	addwf	_canal_actual,f
 10881     1B68  1803               	skipnc
 10882     1B69  0AF3               	incf	_canal_actual+1,f
 10883     1B6A  3000               	movlw	0
 10884     1B6B  07F3               	addwf	_canal_actual+1,f
 10885     1B6C                     i1l3942:
 10886                           
 10887                           ;../../Code/main.c: 195:         if (canal_actual > 2) {
 10888     1B6C  0873               	movf	_canal_actual+1,w
 10889     1B6D  3A80               	xorlw	128
 10890     1B6E  00FF               	movwf	btemp1
 10891     1B6F  3080               	movlw	128
 10892     1B70  027F               	subwf	btemp1,w
 10893     1B71  1D03               	skipz
 10894     1B72  2B75               	goto	u557_25
 10895     1B73  3003               	movlw	3
 10896     1B74  0272               	subwf	_canal_actual,w
 10897     1B75                     u557_25:
 10898     1B75  1C03               	skipc
 10899     1B76  2B78               	goto	u557_21
 10900     1B77  2B79               	goto	u557_20
 10901     1B78                     u557_21:
 10902     1B78  2B7F               	goto	i1l3948
 10903     1B79                     u557_20:
 10904     1B79                     i1l3944:
 10905                           
 10906                           ;../../Code/main.c: 196:             canal_actual = 0;
 10907     1B79  01F2               	clrf	_canal_actual
 10908     1B7A  01F3               	clrf	_canal_actual+1
 10909     1B7B                     i1l3946:
 10910                           
 10911                           ;../../Code/main.c: 197:             conversion_lista = 1;
 10912     1B7B  3001               	movlw	1
 10913     1B7C  00F0               	movwf	_conversion_lista
 10914     1B7D  3000               	movlw	0
 10915     1B7E  00F1               	movwf	_conversion_lista+1
 10916     1B7F                     i1l3948:
 10917                           
 10918                           ;../../Code/main.c: 200:         ADCON0bits.CHS = canal_actual;
 10919     1B7F  0872               	movf	_canal_actual,w
 10920     1B80  00F7               	movwf	??_interrupt_manager
 10921     1B81  0DF7               	rlf	??_interrupt_manager,f
 10922     1B82  0DF7               	rlf	??_interrupt_manager,f
 10923     1B83  1283               	bcf	3,5	;RP0=0, select bank0
 10924     1B84  1303               	bcf	3,6	;RP1=0, select bank0
 10925     1B85  081F               	movf	31,w	;volatile
 10926     1B86  0677               	xorwf	??_interrupt_manager,w
 10927     1B87  39C3               	andlw	-61
 10928     1B88  0677               	xorwf	??_interrupt_manager,w
 10929     1B89  009F               	movwf	31	;volatile
 10930     1B8A                     i1l3950:
 10931                           
 10932                           ;../../Code/main.c: 202:         PIR1bits.ADIF = 0;
 10933     1B8A  130C               	bcf	12,6	;volatile
 10934     1B8B                     i1l216:
 10935     1B8B  087B               	movf	??_interrupt_manager+4,w
 10936     1B8C  00FF               	movwf	btemp1
 10937     1B8D  087A               	movf	??_interrupt_manager+3,w
 10938     1B8E  008A               	movwf	10
 10939     1B8F  0879               	movf	??_interrupt_manager+2,w
 10940     1B90  0084               	movwf	4
 10941     1B91  0E78               	swapf	??_interrupt_manager+1,w
 10942     1B92  0083               	movwf	3
 10943     1B93  0EFE               	swapf	btemp,f
 10944     1B94  0E7E               	swapf	btemp,w
 10945     1B95  0009               	retfie
 10946     1B96                     __end_of_interrupt_manager:
 10947     0002                     ___latbits      equ	2
 10948     007E                     btemp           set	126	;btemp
 10949     007E                     btemp0          set	126
 10950     007F                     btemp1          set	127
 10951     007E                     wtemp0          set	126
 10952     007F                     wtemp0a         set	127
 10953     007F                     ttemp0a         set	127
 10954     0080                     ltemp0a         set	128
 10955                           
 10956                           	psect	intentry
 10957     0004                     __pintentry:	
 10958                           ;incstack = 0
 10959 ;; hardware stack exceeded
 10960                           ; Regs used in _interrupt_manager: [wreg-fsr0h+status,2+status,0+btemp1]
 10961                           
 10962     0004                     interrupt_function:
 10963     007E                     saved_w         set	btemp
 10964     0004  00FE               	movwf	btemp
 10965     0005  0E03               	swapf	3,w
 10966     0006  00F8               	movwf	??_interrupt_manager+1
 10967     0007  0804               	movf	4,w
 10968     0008  00F9               	movwf	??_interrupt_manager+2
 10969     0009  080A               	movf	10,w
 10970     000A  00FA               	movwf	??_interrupt_manager+3
 10971     000B  087F               	movf	btemp1,w
 10972     000C  00FB               	movwf	??_interrupt_manager+4
 10973     000D  160A  158A  2B45   	ljmp	_interrupt_manager
 10974                           
 10975                           	psect	config
 10976                           
 10977                           ;Config register CONFIG1 @ 0x2007
 10978                           ;	Oscillator Selection bits
 10979                           ;	FOSC = HS, HS oscillator: High-speed crystal/resonator on RA6/OSC2/CLKOUT and RA7/OSC1
      +                          /CLKIN
 10980                           ;	Watchdog Timer Enable bit
 10981                           ;	WDTE = OFF, WDT disabled and can be enabled by SWDTEN bit of the WDTCON register
 10982                           ;	Power-up Timer Enable bit
 10983                           ;	PWRTE = ON, PWRT enabled
 10984                           ;	RE3/MCLR pin function select bit
 10985                           ;	MCLRE = ON, RE3/MCLR pin function is MCLR
 10986                           ;	Code Protection bit
 10987                           ;	CP = OFF, Program memory code protection is disabled
 10988                           ;	Data Code Protection bit
 10989                           ;	CPD = OFF, Data memory code protection is disabled
 10990                           ;	Brown Out Reset Selection bits
 10991                           ;	BOREN = OFF, BOR disabled
 10992                           ;	Internal External Switchover bit
 10993                           ;	IESO = OFF, Internal/External Switchover mode is disabled
 10994                           ;	Fail-Safe Clock Monitor Enabled bit
 10995                           ;	FCMEN = OFF, Fail-Safe Clock Monitor is disabled
 10996                           ;	Low Voltage Programming Enable bit
 10997                           ;	LVP = OFF, RB3 pin has digital I/O, HV on MCLR must be used for programming
 10998                           ;	In-Circuit Debugger Mode bit
 10999                           ;	DEBUG = 0x1, unprogrammed default
 11000     2007                     	org	8199
 11001     2007  20E2               	dw	8418
 11002                           
 11003                           ;Config register CONFIG2 @ 0x2008
 11004                           ;	Brown-out Reset Selection bit
 11005                           ;	BOR4V = BOR21V, Brown-out Reset set to 2.1V
 11006                           ;	Flash Program Memory Self Write Enable bits
 11007                           ;	WRT = OFF, Write protection off
 11008     2008                     	org	8200
 11009     2008  3EFF               	dw	16127
 11010                           
 11011                           	psect	text10_split_1
 11012     003A                     l3374:
 11013                           
 11014                           ;/opt/microchip/xc8/v3.10/pic/sources/c99/common/doprnt.c: 668:    while (g.f < u.f) {
 11015     003A  1683               	bsf	3,5	;RP0=1, select bank1
 11016     003B  1303               	bcf	3,6	;RP1=0, select bank1
 11017     003C  0847               	movf	(efgtoa@g+3)^(0+128),w
 11018     003D  1283               	bcf	3,5	;RP0=0, select bank0
 11019     003E  1303               	bcf	3,6	;RP1=0, select bank0
 11020     003F  00CB               	movwf	___flge@ff1+3
 11021     0040  1683               	bsf	3,5	;RP0=1, select bank1
 11022     0041  1303               	bcf	3,6	;RP1=0, select bank1
 11023     0042  0846               	movf	(efgtoa@g+2)^(0+128),w
 11024     0043  1283               	bcf	3,5	;RP0=0, select bank0
 11025     0044  1303               	bcf	3,6	;RP1=0, select bank0
 11026     0045  00CA               	movwf	___flge@ff1+2
 11027     0046  1683               	bsf	3,5	;RP0=1, select bank1
 11028     0047  1303               	bcf	3,6	;RP1=0, select bank1
 11029     0048  0845               	movf	(efgtoa@g+1)^(0+128),w
 11030     0049  1283               	bcf	3,5	;RP0=0, select bank0
 11031     004A  1303               	bcf	3,6	;RP1=0, select bank0
 11032     004B  00C9               	movwf	___flge@ff1+1
 11033     004C  1683               	bsf	3,5	;RP0=1, select bank1
 11034     004D  1303               	bcf	3,6	;RP1=0, select bank1
 11035     004E  0844               	movf	efgtoa@g^(0+128),w
 11036     004F  1283               	bcf	3,5	;RP0=0, select bank0
 11037     0050  1303               	bcf	3,6	;RP1=0, select bank0
 11038     0051  00C8               	movwf	___flge@ff1
 11039     0052  1683               	bsf	3,5	;RP0=1, select bank1
 11040     0053  1303               	bcf	3,6	;RP1=0, select bank1
 11041     0054  084B               	movf	(efgtoa@u+3)^(0+128),w
 11042     0055  1283               	bcf	3,5	;RP0=0, select bank0
 11043     0056  1303               	bcf	3,6	;RP1=0, select bank0
 11044     0057  00CF               	movwf	___flge@ff2+3
 11045     0058  1683               	bsf	3,5	;RP0=1, select bank1
 11046     0059  1303               	bcf	3,6	;RP1=0, select bank1
 11047     005A  084A               	movf	(efgtoa@u+2)^(0+128),w
 11048     005B  1283               	bcf	3,5	;RP0=0, select bank0
 11049     005C  1303               	bcf	3,6	;RP1=0, select bank0
 11050     005D  00CE               	movwf	___flge@ff2+2
 11051     005E  1683               	bsf	3,5	;RP0=1, select bank1
 11052     005F  1303               	bcf	3,6	;RP1=0, select bank1
 11053     0060  0849               	movf	(efgtoa@u+1)^(0+128),w
 11054     0061  1283               	bcf	3,5	;RP0=0, select bank0
 11055     0062  1303               	bcf	3,6	;RP1=0, select bank0
 11056     0063  00CD               	movwf	___flge@ff2+1
 11057     0064  1683               	bsf	3,5	;RP0=1, select bank1
 11058     0065  1303               	bcf	3,6	;RP1=0, select bank1
 11059     0066  0848               	movf	efgtoa@u^(0+128),w
 11060     0067  1283               	bcf	3,5	;RP0=0, select bank0
 11061     0068  1303               	bcf	3,6	;RP1=0, select bank0
 11062     0069  00CC               	movwf	___flge@ff2
 11063     006A  160A  118A  2006  120A  118A  	fcall	___flge
 11064     006F  1C03               	btfss	3,0
 11065     0070  2872               	goto	u4841
 11066     0071  2875               	goto	u4840
 11067     0072                     u4841:
 11068     0072  120A  158A  2F5A   	goto	l3366
 11069     0075                     u4840:
 11070     0075                     l3376:
 11071                           
 11072                           ;/opt/microchip/xc8/v3.10/pic/sources/c99/common/doprnt.c: 683:  mode = c;
 11073     0075  1283               	bcf	3,5	;RP0=0, select bank0
 11074     0076  1303               	bcf	3,6	;RP1=0, select bank0
 11075     0077  0859               	movf	efgtoa@c,w
 11076     0078  1683               	bsf	3,5	;RP0=1, select bank1
 11077     0079  1303               	bcf	3,6	;RP1=0, select bank1
 11078     007A  00A9               	movwf	efgtoa@mode^(0+128)
 11079                           
 11080                           ;/opt/microchip/xc8/v3.10/pic/sources/c99/common/doprnt.c: 685:     nmode = mode;
 11081     007B  0829               	movf	efgtoa@mode^(0+128),w
 11082     007C  00AA               	movwf	efgtoa@nmode^(0+128)
 11083     007D                     l3378:
 11084                           
 11085                           ;/opt/microchip/xc8/v3.10/pic/sources/c99/common/doprnt.c: 695:  {;/opt/microchip/xc8/v3
      +                          .10/pic/sources/c99/common/doprnt.c: 696:         p = (prec < 0) ? 6 : prec;
 11086     007D  1BEC               	btfsc	(_prec+1)^(0+128),7
 11087     007E  2880               	goto	u4851
 11088     007F  2881               	goto	u4850
 11089     0080                     u4851:
 11090     0080  2886               	goto	l3382
 11091     0081                     u4850:
 11092     0081                     l3380:
 11093     0081  086C               	movf	(_prec+1)^(0+128),w
 11094     0082  00A3               	movwf	(efgtoa@p+1)^(0+128)
 11095     0083  086B               	movf	_prec^(0+128),w
 11096     0084  00A2               	movwf	efgtoa@p^(0+128)
 11097     0085  288A               	goto	l844
 11098     0086                     l3382:
 11099     0086  3006               	movlw	6
 11100     0087  00A2               	movwf	efgtoa@p^(0+128)
 11101     0088  3000               	movlw	0
 11102     0089  00A3               	movwf	(efgtoa@p^(0+128)+1)
 11103     008A                     l844:
 11104                           
 11105                           ;/opt/microchip/xc8/v3.10/pic/sources/c99/common/doprnt.c: 697:     };/opt/microchip/xc8
      +                          /v3.10/pic/sources/c99/common/doprnt.c: 711:     m = p;
 11106     008A  0823               	movf	(efgtoa@p+1)^(0+128),w
 11107     008B  00AE               	movwf	(efgtoa@m+1)^(0+128)
 11108     008C  0822               	movf	efgtoa@p^(0+128),w
 11109     008D  00AD               	movwf	efgtoa@m^(0+128)
 11110                           
 11111                           ;/opt/microchip/xc8/v3.10/pic/sources/c99/common/doprnt.c: 715:  {;/opt/microchip/xc8/v3
      +                          .10/pic/sources/c99/common/doprnt.c: 716:         ++m;
 11112     008E  3001               	movlw	1
 11113     008F  07AD               	addwf	efgtoa@m^(0+128),f
 11114     0090  1803               	skipnc
 11115     0091  0AAE               	incf	(efgtoa@m+1)^(0+128),f
 11116     0092  3000               	movlw	0
 11117     0093  07AE               	addwf	(efgtoa@m+1)^(0+128),f
 11118     0094                     l3384:
 11119                           
 11120                           ;/opt/microchip/xc8/v3.10/pic/sources/c99/common/doprnt.c: 717:     };/opt/microchip/xc8
      +                          /v3.10/pic/sources/c99/common/doprnt.c: 721:     if (nmode == 'f') {
 11121     0094  3066               	movlw	102
 11122     0095  062A               	xorwf	efgtoa@nmode^(0+128),w
 11123     0096  1D03               	btfss	3,2
 11124     0097  2899               	goto	u4861
 11125     0098  289A               	goto	u4860
 11126     0099                     u4861:
 11127     0099  28B4               	goto	l3396
 11128     009A                     u4860:
 11129     009A                     l3386:
 11130                           
 11131                           ;/opt/microchip/xc8/v3.10/pic/sources/c99/common/doprnt.c: 722:         if (e < 0) {
 11132     009A  1FB0               	btfss	(efgtoa@e+1)^(0+128),7
 11133     009B  289D               	goto	u4871
 11134     009C  289E               	goto	u4870
 11135     009D                     u4871:
 11136     009D  28A8               	goto	l3392
 11137     009E                     u4870:
 11138     009E                     l3388:
 11139                           
 11140                           ;/opt/microchip/xc8/v3.10/pic/sources/c99/common/doprnt.c: 723:             u.f = 1.0;
 11141     009E  303F               	movlw	63
 11142     009F  00CB               	movwf	(efgtoa@u+3)^(0+128)
 11143     00A0  3080               	movlw	128
 11144     00A1  00CA               	movwf	(efgtoa@u+2)^(0+128)
 11145     00A2  3000               	movlw	0
 11146     00A3  00C9               	movwf	(efgtoa@u+1)^(0+128)
 11147     00A4  3000               	movlw	0
 11148     00A5  00C8               	movwf	efgtoa@u^(0+128)
 11149     00A6                     l3390:
 11150                           
 11151                           ;/opt/microchip/xc8/v3.10/pic/sources/c99/common/doprnt.c: 724:             e = 0;
 11152     00A6  01AF               	clrf	efgtoa@e^(0+128)
 11153     00A7  01B0               	clrf	(efgtoa@e+1)^(0+128)
 11154     00A8                     l3392:
 11155                           
 11156                           ;/opt/microchip/xc8/v3.10/pic/sources/c99/common/doprnt.c: 726:         if (!(mode == 'g
      +                          ')) {
 11157     00A8  3067               	movlw	103
 11158     00A9  0629               	xorwf	efgtoa@mode^(0+128),w
 11159     00AA  1903               	btfsc	3,2
 11160     00AB  28AD               	goto	u4881
 11161     00AC  28AE               	goto	u4880
 11162     00AD                     u4881:
 11163     00AD  28B4               	goto	l3396
 11164     00AE                     u4880:
 11165     00AE                     l3394:
 11166                           
 11167                           ;/opt/microchip/xc8/v3.10/pic/sources/c99/common/doprnt.c: 727:             m += e;
 11168     00AE  082F               	movf	efgtoa@e^(0+128),w
 11169     00AF  07AD               	addwf	efgtoa@m^(0+128),f
 11170     00B0  1803               	skipnc
 11171     00B1  0AAE               	incf	(efgtoa@m+1)^(0+128),f
 11172     00B2  0830               	movf	(efgtoa@e+1)^(0+128),w
 11173     00B3  07AE               	addwf	(efgtoa@m+1)^(0+128),f
 11174     00B4                     l3396:
 11175                           
 11176                           ;/opt/microchip/xc8/v3.10/pic/sources/c99/common/doprnt.c: 733:     i = 0;
 11177     00B4  01B7               	clrf	efgtoa@i^(0+128)
 11178     00B5  01B8               	clrf	(efgtoa@i+1)^(0+128)
 11179     00B6                     l3398:
 11180                           
 11181                           ;/opt/microchip/xc8/v3.10/pic/sources/c99/common/doprnt.c: 734:     h = g.f;
 11182     00B6  0847               	movf	(efgtoa@g+3)^(0+128),w
 11183     00B7  00BC               	movwf	(efgtoa@h+3)^(0+128)
 11184     00B8  0846               	movf	(efgtoa@g+2)^(0+128),w
 11185     00B9  00BB               	movwf	(efgtoa@h+2)^(0+128)
 11186     00BA  0845               	movf	(efgtoa@g+1)^(0+128),w
 11187     00BB  00BA               	movwf	(efgtoa@h+1)^(0+128)
 11188     00BC  0844               	movf	efgtoa@g^(0+128),w
 11189     00BD  00B9               	movwf	efgtoa@h^(0+128)
 11190     00BE                     l3400:
 11191                           
 11192                           ;/opt/microchip/xc8/v3.10/pic/sources/c99/common/doprnt.c: 735:     ou = u;
 11193     00BE  084B               	movf	(efgtoa@u+3)^(0+128),w
 11194     00BF  00B6               	movwf	(efgtoa@ou+3)^(0+128)
 11195     00C0  084A               	movf	(efgtoa@u+2)^(0+128),w
 11196     00C1  00B5               	movwf	(efgtoa@ou+2)^(0+128)
 11197     00C2  0849               	movf	(efgtoa@u+1)^(0+128),w
 11198     00C3  00B4               	movwf	(efgtoa@ou+1)^(0+128)
 11199     00C4  0848               	movf	efgtoa@u^(0+128),w
 11200     00C5  00B3               	movwf	efgtoa@ou^(0+128)
 11201                           
 11202                           ;/opt/microchip/xc8/v3.10/pic/sources/c99/common/doprnt.c: 736:     while (i < m) {
 11203     00C6  2A01               	goto	l3412
 11204     00C7                     l3402:
 11205                           
 11206                           ;/opt/microchip/xc8/v3.10/pic/sources/c99/common/doprnt.c: 737:         l = floorf(h/u.f
      +                          );
 11207     00C7  1683               	bsf	3,5	;RP0=1, select bank1
 11208     00C8  1303               	bcf	3,6	;RP1=0, select bank1
 11209     00C9  084B               	movf	(efgtoa@u+3)^(0+128),w
 11210     00CA  1283               	bcf	3,5	;RP0=0, select bank0
 11211     00CB  1303               	bcf	3,6	;RP1=0, select bank0
 11212     00CC  00A3               	movwf	___fldiv@a+3
 11213     00CD  1683               	bsf	3,5	;RP0=1, select bank1
 11214     00CE  1303               	bcf	3,6	;RP1=0, select bank1
 11215     00CF  084A               	movf	(efgtoa@u+2)^(0+128),w
 11216     00D0  1283               	bcf	3,5	;RP0=0, select bank0
 11217     00D1  1303               	bcf	3,6	;RP1=0, select bank0
 11218     00D2  00A2               	movwf	___fldiv@a+2
 11219     00D3  1683               	bsf	3,5	;RP0=1, select bank1
 11220     00D4  1303               	bcf	3,6	;RP1=0, select bank1
 11221     00D5  0849               	movf	(efgtoa@u+1)^(0+128),w
 11222     00D6  1283               	bcf	3,5	;RP0=0, select bank0
 11223     00D7  1303               	bcf	3,6	;RP1=0, select bank0
 11224     00D8  00A1               	movwf	___fldiv@a+1
 11225     00D9  1683               	bsf	3,5	;RP0=1, select bank1
 11226     00DA  1303               	bcf	3,6	;RP1=0, select bank1
 11227     00DB  0848               	movf	efgtoa@u^(0+128),w
 11228     00DC  1283               	bcf	3,5	;RP0=0, select bank0
 11229     00DD  1303               	bcf	3,6	;RP1=0, select bank0
 11230     00DE  00A0               	movwf	___fldiv@a
 11231     00DF  1683               	bsf	3,5	;RP0=1, select bank1
 11232     00E0  1303               	bcf	3,6	;RP1=0, select bank1
 11233     00E1  083C               	movf	(efgtoa@h+3)^(0+128),w
 11234     00E2  1283               	bcf	3,5	;RP0=0, select bank0
 11235     00E3  1303               	bcf	3,6	;RP1=0, select bank0
 11236     00E4  00A7               	movwf	___fldiv@b+3
 11237     00E5  1683               	bsf	3,5	;RP0=1, select bank1
 11238     00E6  1303               	bcf	3,6	;RP1=0, select bank1
 11239     00E7  083B               	movf	(efgtoa@h+2)^(0+128),w
 11240     00E8  1283               	bcf	3,5	;RP0=0, select bank0
 11241     00E9  1303               	bcf	3,6	;RP1=0, select bank0
 11242     00EA  00A6               	movwf	___fldiv@b+2
 11243     00EB  1683               	bsf	3,5	;RP0=1, select bank1
 11244     00EC  1303               	bcf	3,6	;RP1=0, select bank1
 11245     00ED  083A               	movf	(efgtoa@h+1)^(0+128),w
 11246     00EE  1283               	bcf	3,5	;RP0=0, select bank0
 11247     00EF  1303               	bcf	3,6	;RP1=0, select bank0
 11248     00F0  00A5               	movwf	___fldiv@b+1
 11249     00F1  1683               	bsf	3,5	;RP0=1, select bank1
 11250     00F2  1303               	bcf	3,6	;RP1=0, select bank1
 11251     00F3  0839               	movf	efgtoa@h^(0+128),w
 11252     00F4  1283               	bcf	3,5	;RP0=0, select bank0
 11253     00F5  1303               	bcf	3,6	;RP1=0, select bank0
 11254     00F6  00A4               	movwf	___fldiv@b
 11255     00F7  160A  118A  2160  120A  118A  	fcall	___fldiv
 11256     00FC  1283               	bcf	3,5	;RP0=0, select bank0
 11257     00FD  1303               	bcf	3,6	;RP1=0, select bank0
 11258     00FE  0823               	movf	?___fldiv+3,w
 11259     00FF  00BD               	movwf	floorf@x+3
 11260     0100  0822               	movf	?___fldiv+2,w
 11261     0101  00BC               	movwf	floorf@x+2
 11262     0102  0821               	movf	?___fldiv+1,w
 11263     0103  00BB               	movwf	floorf@x+1
 11264     0104  0820               	movf	?___fldiv,w
 11265     0105  00BA               	movwf	floorf@x
 11266     0106  120A  158A  2035  120A  118A  	fcall	_floorf
 11267     010B  1283               	bcf	3,5	;RP0=0, select bank0
 11268     010C  1303               	bcf	3,6	;RP1=0, select bank0
 11269     010D  083D               	movf	?_floorf+3,w
 11270     010E  1683               	bsf	3,5	;RP0=1, select bank1
 11271     010F  1303               	bcf	3,6	;RP1=0, select bank1
 11272     0110  00C0               	movwf	(efgtoa@l+3)^(0+128)
 11273     0111  1283               	bcf	3,5	;RP0=0, select bank0
 11274     0112  1303               	bcf	3,6	;RP1=0, select bank0
 11275     0113  083C               	movf	?_floorf+2,w
 11276     0114  1683               	bsf	3,5	;RP0=1, select bank1
 11277     0115  1303               	bcf	3,6	;RP1=0, select bank1
 11278     0116  00BF               	movwf	(efgtoa@l+2)^(0+128)
 11279     0117  1283               	bcf	3,5	;RP0=0, select bank0
 11280     0118  1303               	bcf	3,6	;RP1=0, select bank0
 11281     0119  083B               	movf	?_floorf+1,w
 11282     011A  1683               	bsf	3,5	;RP0=1, select bank1
 11283     011B  1303               	bcf	3,6	;RP1=0, select bank1
 11284     011C  00BE               	movwf	(efgtoa@l+1)^(0+128)
 11285     011D  1283               	bcf	3,5	;RP0=0, select bank0
 11286     011E  1303               	bcf	3,6	;RP1=0, select bank0
 11287     011F  083A               	movf	?_floorf,w
 11288     0120  1683               	bsf	3,5	;RP0=1, select bank1
 11289     0121  1303               	bcf	3,6	;RP1=0, select bank1
 11290     0122  00BD               	movwf	efgtoa@l^(0+128)
 11291     0123                     l3404:
 11292                           
 11293                           ;/opt/microchip/xc8/v3.10/pic/sources/c99/common/doprnt.c: 738:         d = (int)l;
 11294     0123  0840               	movf	(efgtoa@l+3)^(0+128),w
 11295     0124  1283               	bcf	3,5	;RP0=0, select bank0
 11296     0125  1303               	bcf	3,6	;RP1=0, select bank0
 11297     0126  00CB               	movwf	___fltol@f1+3
 11298     0127  1683               	bsf	3,5	;RP0=1, select bank1
 11299     0128  1303               	bcf	3,6	;RP1=0, select bank1
 11300     0129  083F               	movf	(efgtoa@l+2)^(0+128),w
 11301     012A  1283               	bcf	3,5	;RP0=0, select bank0
 11302     012B  1303               	bcf	3,6	;RP1=0, select bank0
 11303     012C  00CA               	movwf	___fltol@f1+2
 11304     012D  1683               	bsf	3,5	;RP0=1, select bank1
 11305     012E  1303               	bcf	3,6	;RP1=0, select bank1
 11306     012F  083E               	movf	(efgtoa@l+1)^(0+128),w
 11307     0130  1283               	bcf	3,5	;RP0=0, select bank0
 11308     0131  1303               	bcf	3,6	;RP1=0, select bank0
 11309     0132  00C9               	movwf	___fltol@f1+1
 11310     0133  1683               	bsf	3,5	;RP0=1, select bank1
 11311     0134  1303               	bcf	3,6	;RP1=0, select bank1
 11312     0135  083D               	movf	efgtoa@l^(0+128),w
 11313     0136  1283               	bcf	3,5	;RP0=0, select bank0
 11314     0137  1303               	bcf	3,6	;RP1=0, select bank0
 11315     0138  00C8               	movwf	___fltol@f1
 11316     0139  160A  158A  25EA  120A  118A  	fcall	___fltol
 11317     013E  1283               	bcf	3,5	;RP0=0, select bank0
 11318     013F  1303               	bcf	3,6	;RP1=0, select bank0
 11319     0140  0849               	movf	?___fltol+1,w
 11320     0141  1683               	bsf	3,5	;RP0=1, select bank1
 11321     0142  1303               	bcf	3,6	;RP1=0, select bank1
 11322     0143  00AC               	movwf	(efgtoa@d+1)^(0+128)
 11323     0144  1283               	bcf	3,5	;RP0=0, select bank0
 11324     0145  1303               	bcf	3,6	;RP1=0, select bank0
 11325     0146  0848               	movf	?___fltol,w
 11326     0147  1683               	bsf	3,5	;RP0=1, select bank1
 11327     0148  1303               	bcf	3,6	;RP1=0, select bank1
 11328     0149  00AB               	movwf	efgtoa@d^(0+128)
 11329     014A                     l3406:
 11330                           
 11331                           ;/opt/microchip/xc8/v3.10/pic/sources/c99/common/doprnt.c: 739:         h -= l*u.f;
 11332     014A  084B               	movf	(efgtoa@u+3)^(0+128),w
 11333     014B  1283               	bcf	3,5	;RP0=0, select bank0
 11334     014C  1303               	bcf	3,6	;RP1=0, select bank0
 11335     014D  00B5               	movwf	___flmul@a+3
 11336     014E  1683               	bsf	3,5	;RP0=1, select bank1
 11337     014F  1303               	bcf	3,6	;RP1=0, select bank1
 11338     0150  084A               	movf	(efgtoa@u+2)^(0+128),w
 11339     0151  1283               	bcf	3,5	;RP0=0, select bank0
 11340     0152  1303               	bcf	3,6	;RP1=0, select bank0
 11341     0153  00B4               	movwf	___flmul@a+2
 11342     0154  1683               	bsf	3,5	;RP0=1, select bank1
 11343     0155  1303               	bcf	3,6	;RP1=0, select bank1
 11344     0156  0849               	movf	(efgtoa@u+1)^(0+128),w
 11345     0157  1283               	bcf	3,5	;RP0=0, select bank0
 11346     0158  1303               	bcf	3,6	;RP1=0, select bank0
 11347     0159  00B3               	movwf	___flmul@a+1
 11348     015A  1683               	bsf	3,5	;RP0=1, select bank1
 11349     015B  1303               	bcf	3,6	;RP1=0, select bank1
 11350     015C  0848               	movf	efgtoa@u^(0+128),w
 11351     015D  1283               	bcf	3,5	;RP0=0, select bank0
 11352     015E  1303               	bcf	3,6	;RP1=0, select bank0
 11353     015F  00B2               	movwf	___flmul@a
 11354     0160  1683               	bsf	3,5	;RP0=1, select bank1
 11355     0161  1303               	bcf	3,6	;RP1=0, select bank1
 11356     0162  0840               	movf	(efgtoa@l+3)^(0+128),w
 11357     0163  1283               	bcf	3,5	;RP0=0, select bank0
 11358     0164  1303               	bcf	3,6	;RP1=0, select bank0
 11359     0165  00B1               	movwf	___flmul@b+3
 11360     0166  1683               	bsf	3,5	;RP0=1, select bank1
 11361     0167  1303               	bcf	3,6	;RP1=0, select bank1
 11362     0168  083F               	movf	(efgtoa@l+2)^(0+128),w
 11363     0169  1283               	bcf	3,5	;RP0=0, select bank0
 11364     016A  1303               	bcf	3,6	;RP1=0, select bank0
 11365     016B  00B0               	movwf	___flmul@b+2
 11366     016C  1683               	bsf	3,5	;RP0=1, select bank1
 11367     016D  1303               	bcf	3,6	;RP1=0, select bank1
 11368     016E  083E               	movf	(efgtoa@l+1)^(0+128),w
 11369     016F  1283               	bcf	3,5	;RP0=0, select bank0
 11370     0170  1303               	bcf	3,6	;RP1=0, select bank0
 11371     0171  00AF               	movwf	___flmul@b+1
 11372     0172  1683               	bsf	3,5	;RP0=1, select bank1
 11373     0173  1303               	bcf	3,6	;RP1=0, select bank1
 11374     0174  083D               	movf	efgtoa@l^(0+128),w
 11375     0175  1283               	bcf	3,5	;RP0=0, select bank0
 11376     0176  1303               	bcf	3,6	;RP1=0, select bank0
 11377     0177  00AE               	movwf	___flmul@b
 11378     0178  120A  158A  2144  120A  118A  	fcall	___flmul
 11379     017D  1283               	bcf	3,5	;RP0=0, select bank0
 11380     017E  1303               	bcf	3,6	;RP1=0, select bank0
 11381     017F  0831               	movf	?___flmul+3,w
 11382     0180  00CB               	movwf	___flsub@a+3
 11383     0181  0830               	movf	?___flmul+2,w
 11384     0182  00CA               	movwf	___flsub@a+2
 11385     0183  082F               	movf	?___flmul+1,w
 11386     0184  00C9               	movwf	___flsub@a+1
 11387     0185  082E               	movf	?___flmul,w
 11388     0186  00C8               	movwf	___flsub@a
 11389     0187  1683               	bsf	3,5	;RP0=1, select bank1
 11390     0188  1303               	bcf	3,6	;RP1=0, select bank1
 11391     0189  083C               	movf	(efgtoa@h+3)^(0+128),w
 11392     018A  1283               	bcf	3,5	;RP0=0, select bank0
 11393     018B  1303               	bcf	3,6	;RP1=0, select bank0
 11394     018C  00CF               	movwf	___flsub@b+3
 11395     018D  1683               	bsf	3,5	;RP0=1, select bank1
 11396     018E  1303               	bcf	3,6	;RP1=0, select bank1
 11397     018F  083B               	movf	(efgtoa@h+2)^(0+128),w
 11398     0190  1283               	bcf	3,5	;RP0=0, select bank0
 11399     0191  1303               	bcf	3,6	;RP1=0, select bank0
 11400     0192  00CE               	movwf	___flsub@b+2
 11401     0193  1683               	bsf	3,5	;RP0=1, select bank1
 11402     0194  1303               	bcf	3,6	;RP1=0, select bank1
 11403     0195  083A               	movf	(efgtoa@h+1)^(0+128),w
 11404     0196  1283               	bcf	3,5	;RP0=0, select bank0
 11405     0197  1303               	bcf	3,6	;RP1=0, select bank0
 11406     0198  00CD               	movwf	___flsub@b+1
 11407     0199  1683               	bsf	3,5	;RP0=1, select bank1
 11408     019A  1303               	bcf	3,6	;RP1=0, select bank1
 11409     019B  0839               	movf	efgtoa@h^(0+128),w
 11410     019C  1283               	bcf	3,5	;RP0=0, select bank0
 11411     019D  1303               	bcf	3,6	;RP1=0, select bank0
 11412     019E  00CC               	movwf	___flsub@b
 11413     019F  160A  158A  221E  120A  118A  	fcall	___flsub
 11414     01A4  1283               	bcf	3,5	;RP0=0, select bank0
 11415     01A5  1303               	bcf	3,6	;RP1=0, select bank0
 11416     01A6  084B               	movf	?___flsub+3,w
 11417     01A7  1683               	bsf	3,5	;RP0=1, select bank1
 11418     01A8  1303               	bcf	3,6	;RP1=0, select bank1
 11419     01A9  00BC               	movwf	(efgtoa@h+3)^(0+128)
 11420     01AA  1283               	bcf	3,5	;RP0=0, select bank0
 11421     01AB  1303               	bcf	3,6	;RP1=0, select bank0
 11422     01AC  084A               	movf	?___flsub+2,w
 11423     01AD  1683               	bsf	3,5	;RP0=1, select bank1
 11424     01AE  1303               	bcf	3,6	;RP1=0, select bank1
 11425     01AF  00BB               	movwf	(efgtoa@h+2)^(0+128)
 11426     01B0  1283               	bcf	3,5	;RP0=0, select bank0
 11427     01B1  1303               	bcf	3,6	;RP1=0, select bank0
 11428     01B2  0849               	movf	?___flsub+1,w
 11429     01B3  1683               	bsf	3,5	;RP0=1, select bank1
 11430     01B4  1303               	bcf	3,6	;RP1=0, select bank1
 11431     01B5  00BA               	movwf	(efgtoa@h+1)^(0+128)
 11432     01B6  1283               	bcf	3,5	;RP0=0, select bank0
 11433     01B7  1303               	bcf	3,6	;RP1=0, select bank0
 11434     01B8  0848               	movf	?___flsub,w
 11435     01B9  1683               	bsf	3,5	;RP0=1, select bank1
 11436     01BA  1303               	bcf	3,6	;RP1=0, select bank1
 11437     01BB  00B9               	movwf	efgtoa@h^(0+128)
 11438     01BC                     l3408:
 11439                           
 11440                           ;/opt/microchip/xc8/v3.10/pic/sources/c99/common/doprnt.c: 740:         u.f = u.f/10.0;
 11441     01BC  3041               	movlw	65
 11442     01BD  1283               	bcf	3,5	;RP0=0, select bank0
 11443     01BE  1303               	bcf	3,6	;RP1=0, select bank0
 11444     01BF  00A3               	movwf	___fldiv@a+3
 11445     01C0  3020               	movlw	32
 11446     01C1  00A2               	movwf	___fldiv@a+2
 11447     01C2  3000               	movlw	0
 11448     01C3  00A1               	movwf	___fldiv@a+1
 11449     01C4  3000               	movlw	0
 11450     01C5  00A0               	movwf	___fldiv@a
 11451     01C6  1683               	bsf	3,5	;RP0=1, select bank1
 11452     01C7  1303               	bcf	3,6	;RP1=0, select bank1
 11453     01C8  084B               	movf	(efgtoa@u+3)^(0+128),w
 11454     01C9  1283               	bcf	3,5	;RP0=0, select bank0
 11455     01CA  1303               	bcf	3,6	;RP1=0, select bank0
 11456     01CB  00A7               	movwf	___fldiv@b+3
 11457     01CC  1683               	bsf	3,5	;RP0=1, select bank1
 11458     01CD  1303               	bcf	3,6	;RP1=0, select bank1
 11459     01CE  084A               	movf	(efgtoa@u+2)^(0+128),w
 11460     01CF  1283               	bcf	3,5	;RP0=0, select bank0
 11461     01D0  1303               	bcf	3,6	;RP1=0, select bank0
 11462     01D1  00A6               	movwf	___fldiv@b+2
 11463     01D2  1683               	bsf	3,5	;RP0=1, select bank1
 11464     01D3  1303               	bcf	3,6	;RP1=0, select bank1
 11465     01D4  0849               	movf	(efgtoa@u+1)^(0+128),w
 11466     01D5  1283               	bcf	3,5	;RP0=0, select bank0
 11467     01D6  1303               	bcf	3,6	;RP1=0, select bank0
 11468     01D7  00A5               	movwf	___fldiv@b+1
 11469     01D8  1683               	bsf	3,5	;RP0=1, select bank1
 11470     01D9  1303               	bcf	3,6	;RP1=0, select bank1
 11471     01DA  0848               	movf	efgtoa@u^(0+128),w
 11472     01DB  1283               	bcf	3,5	;RP0=0, select bank0
 11473     01DC  1303               	bcf	3,6	;RP1=0, select bank0
 11474     01DD  00A4               	movwf	___fldiv@b
 11475     01DE  160A  118A  2160  120A  118A  	fcall	___fldiv
 11476     01E3  1283               	bcf	3,5	;RP0=0, select bank0
 11477     01E4  1303               	bcf	3,6	;RP1=0, select bank0
 11478     01E5  0823               	movf	?___fldiv+3,w
 11479     01E6  1683               	bsf	3,5	;RP0=1, select bank1
 11480     01E7  1303               	bcf	3,6	;RP1=0, select bank1
 11481     01E8  00CB               	movwf	(efgtoa@u+3)^(0+128)
 11482     01E9  1283               	bcf	3,5	;RP0=0, select bank0
 11483     01EA  1303               	bcf	3,6	;RP1=0, select bank0
 11484     01EB  0822               	movf	?___fldiv+2,w
 11485     01EC  1683               	bsf	3,5	;RP0=1, select bank1
 11486     01ED  1303               	bcf	3,6	;RP1=0, select bank1
 11487     01EE  00CA               	movwf	(efgtoa@u+2)^(0+128)
 11488     01EF  1283               	bcf	3,5	;RP0=0, select bank0
 11489     01F0  1303               	bcf	3,6	;RP1=0, select bank0
 11490     01F1  0821               	movf	?___fldiv+1,w
 11491     01F2  1683               	bsf	3,5	;RP0=1, select bank1
 11492     01F3  1303               	bcf	3,6	;RP1=0, select bank1
 11493     01F4  00C9               	movwf	(efgtoa@u+1)^(0+128)
 11494     01F5  1283               	bcf	3,5	;RP0=0, select bank0
 11495     01F6  1303               	bcf	3,6	;RP1=0, select bank0
 11496     01F7  0820               	movf	?___fldiv,w
 11497     01F8  1683               	bsf	3,5	;RP0=1, select bank1
 11498     01F9  1303               	bcf	3,6	;RP1=0, select bank1
 11499     01FA  00C8               	movwf	efgtoa@u^(0+128)
 11500     01FB                     l3410:
 11501                           
 11502                           ;/opt/microchip/xc8/v3.10/pic/sources/c99/common/doprnt.c: 741:         ++i;
 11503     01FB  3001               	movlw	1
 11504     01FC  07B7               	addwf	efgtoa@i^(0+128),f
 11505     01FD  1803               	skipnc
 11506     01FE  0AB8               	incf	(efgtoa@i+1)^(0+128),f
 11507     01FF  3000               	movlw	0
 11508     0200  07B8               	addwf	(efgtoa@i+1)^(0+128),f
 11509     0201                     l3412:
 11510                           
 11511                           ;/opt/microchip/xc8/v3.10/pic/sources/c99/common/doprnt.c: 736:     while (i < m) {
 11512     0201  0838               	movf	(efgtoa@i+1)^(0+128),w
 11513     0202  3A80               	xorlw	128
 11514     0203  1283               	bcf	3,5	;RP0=0, select bank0
 11515     0204  1303               	bcf	3,6	;RP1=0, select bank0
 11516     0205  00DA               	movwf	??_efgtoa
 11517     0206  1683               	bsf	3,5	;RP0=1, select bank1
 11518     0207  1303               	bcf	3,6	;RP1=0, select bank1
 11519     0208  082E               	movf	(efgtoa@m+1)^(0+128),w
 11520     0209  3A80               	xorlw	128
 11521     020A  1283               	bcf	3,5	;RP0=0, select bank0
 11522     020B  1303               	bcf	3,6	;RP1=0, select bank0
 11523     020C  025A               	subwf	??_efgtoa,w
 11524     020D  1D03               	skipz
 11525     020E  2A13               	goto	u4895
 11526     020F  1683               	bsf	3,5	;RP0=1, select bank1
 11527     0210  1303               	bcf	3,6	;RP1=0, select bank1
 11528     0211  082D               	movf	efgtoa@m^(0+128),w
 11529     0212  0237               	subwf	efgtoa@i^(0+128),w
 11530     0213                     u4895:
 11531     0213  1C03               	skipc
 11532     0214  2A16               	goto	u4891
 11533     0215  2A17               	goto	u4890
 11534     0216                     u4891:
 11535     0216  28C7               	goto	l3402
 11536     0217                     u4890:
 11537     0217                     l3414:
 11538                           
 11539                           ;/opt/microchip/xc8/v3.10/pic/sources/c99/common/doprnt.c: 745:     l = u.f*5.0;
 11540     0217  3040               	movlw	64
 11541     0218  1283               	bcf	3,5	;RP0=0, select bank0
 11542     0219  1303               	bcf	3,6	;RP1=0, select bank0
 11543     021A  00B1               	movwf	___flmul@b+3
 11544     021B  30A0               	movlw	160
 11545     021C  00B0               	movwf	___flmul@b+2
 11546     021D  3000               	movlw	0
 11547     021E  00AF               	movwf	___flmul@b+1
 11548     021F  3000               	movlw	0
 11549     0220  00AE               	movwf	___flmul@b
 11550     0221  1683               	bsf	3,5	;RP0=1, select bank1
 11551     0222  1303               	bcf	3,6	;RP1=0, select bank1
 11552     0223  084B               	movf	(efgtoa@u+3)^(0+128),w
 11553     0224  1283               	bcf	3,5	;RP0=0, select bank0
 11554     0225  1303               	bcf	3,6	;RP1=0, select bank0
 11555     0226  00B5               	movwf	___flmul@a+3
 11556     0227  1683               	bsf	3,5	;RP0=1, select bank1
 11557     0228  1303               	bcf	3,6	;RP1=0, select bank1
 11558     0229  084A               	movf	(efgtoa@u+2)^(0+128),w
 11559     022A  1283               	bcf	3,5	;RP0=0, select bank0
 11560     022B  1303               	bcf	3,6	;RP1=0, select bank0
 11561     022C  00B4               	movwf	___flmul@a+2
 11562     022D  1683               	bsf	3,5	;RP0=1, select bank1
 11563     022E  1303               	bcf	3,6	;RP1=0, select bank1
 11564     022F  0849               	movf	(efgtoa@u+1)^(0+128),w
 11565     0230  1283               	bcf	3,5	;RP0=0, select bank0
 11566     0231  1303               	bcf	3,6	;RP1=0, select bank0
 11567     0232  00B3               	movwf	___flmul@a+1
 11568     0233  1683               	bsf	3,5	;RP0=1, select bank1
 11569     0234  1303               	bcf	3,6	;RP1=0, select bank1
 11570     0235  0848               	movf	efgtoa@u^(0+128),w
 11571     0236  1283               	bcf	3,5	;RP0=0, select bank0
 11572     0237  1303               	bcf	3,6	;RP1=0, select bank0
 11573     0238  00B2               	movwf	___flmul@a
 11574     0239  120A  158A  2144  120A  118A  	fcall	___flmul
 11575     023E  1283               	bcf	3,5	;RP0=0, select bank0
 11576     023F  1303               	bcf	3,6	;RP1=0, select bank0
 11577     0240  0831               	movf	?___flmul+3,w
 11578     0241  1683               	bsf	3,5	;RP0=1, select bank1
 11579     0242  1303               	bcf	3,6	;RP1=0, select bank1
 11580     0243  00C0               	movwf	(efgtoa@l+3)^(0+128)
 11581     0244  1283               	bcf	3,5	;RP0=0, select bank0
 11582     0245  1303               	bcf	3,6	;RP1=0, select bank0
 11583     0246  0830               	movf	?___flmul+2,w
 11584     0247  1683               	bsf	3,5	;RP0=1, select bank1
 11585     0248  1303               	bcf	3,6	;RP1=0, select bank1
 11586     0249  00BF               	movwf	(efgtoa@l+2)^(0+128)
 11587     024A  1283               	bcf	3,5	;RP0=0, select bank0
 11588     024B  1303               	bcf	3,6	;RP1=0, select bank0
 11589     024C  082F               	movf	?___flmul+1,w
 11590     024D  1683               	bsf	3,5	;RP0=1, select bank1
 11591     024E  1303               	bcf	3,6	;RP1=0, select bank1
 11592     024F  00BE               	movwf	(efgtoa@l+1)^(0+128)
 11593     0250  1283               	bcf	3,5	;RP0=0, select bank0
 11594     0251  1303               	bcf	3,6	;RP1=0, select bank0
 11595     0252  082E               	movf	?___flmul,w
 11596     0253  1683               	bsf	3,5	;RP0=1, select bank1
 11597     0254  1303               	bcf	3,6	;RP1=0, select bank1
 11598     0255  00BD               	movwf	efgtoa@l^(0+128)
 11599     0256                     l3416:
 11600                           
 11601                           ;/opt/microchip/xc8/v3.10/pic/sources/c99/common/doprnt.c: 746:     if (h < l) {
 11602     0256  083C               	movf	(efgtoa@h+3)^(0+128),w
 11603     0257  1283               	bcf	3,5	;RP0=0, select bank0
 11604     0258  1303               	bcf	3,6	;RP1=0, select bank0
 11605     0259  00CB               	movwf	___flge@ff1+3
 11606     025A  1683               	bsf	3,5	;RP0=1, select bank1
 11607     025B  1303               	bcf	3,6	;RP1=0, select bank1
 11608     025C  083B               	movf	(efgtoa@h+2)^(0+128),w
 11609     025D  1283               	bcf	3,5	;RP0=0, select bank0
 11610     025E  1303               	bcf	3,6	;RP1=0, select bank0
 11611     025F  00CA               	movwf	___flge@ff1+2
 11612     0260  1683               	bsf	3,5	;RP0=1, select bank1
 11613     0261  1303               	bcf	3,6	;RP1=0, select bank1
 11614     0262  083A               	movf	(efgtoa@h+1)^(0+128),w
 11615     0263  1283               	bcf	3,5	;RP0=0, select bank0
 11616     0264  1303               	bcf	3,6	;RP1=0, select bank0
 11617     0265  00C9               	movwf	___flge@ff1+1
 11618     0266  1683               	bsf	3,5	;RP0=1, select bank1
 11619     0267  1303               	bcf	3,6	;RP1=0, select bank1
 11620     0268  0839               	movf	efgtoa@h^(0+128),w
 11621     0269  1283               	bcf	3,5	;RP0=0, select bank0
 11622     026A  1303               	bcf	3,6	;RP1=0, select bank0
 11623     026B  00C8               	movwf	___flge@ff1
 11624     026C  1683               	bsf	3,5	;RP0=1, select bank1
 11625     026D  1303               	bcf	3,6	;RP1=0, select bank1
 11626     026E  0840               	movf	(efgtoa@l+3)^(0+128),w
 11627     026F  1283               	bcf	3,5	;RP0=0, select bank0
 11628     0270  1303               	bcf	3,6	;RP1=0, select bank0
 11629     0271  00CF               	movwf	___flge@ff2+3
 11630     0272  1683               	bsf	3,5	;RP0=1, select bank1
 11631     0273  1303               	bcf	3,6	;RP1=0, select bank1
 11632     0274  083F               	movf	(efgtoa@l+2)^(0+128),w
 11633     0275  1283               	bcf	3,5	;RP0=0, select bank0
 11634     0276  1303               	bcf	3,6	;RP1=0, select bank0
 11635     0277  00CE               	movwf	___flge@ff2+2
 11636     0278  1683               	bsf	3,5	;RP0=1, select bank1
 11637     0279  1303               	bcf	3,6	;RP1=0, select bank1
 11638     027A  083E               	movf	(efgtoa@l+1)^(0+128),w
 11639     027B  1283               	bcf	3,5	;RP0=0, select bank0
 11640     027C  1303               	bcf	3,6	;RP1=0, select bank0
 11641     027D  00CD               	movwf	___flge@ff2+1
 11642     027E  1683               	bsf	3,5	;RP0=1, select bank1
 11643     027F  1303               	bcf	3,6	;RP1=0, select bank1
 11644     0280  083D               	movf	efgtoa@l^(0+128),w
 11645     0281  1283               	bcf	3,5	;RP0=0, select bank0
 11646     0282  1303               	bcf	3,6	;RP1=0, select bank0
 11647     0283  00CC               	movwf	___flge@ff2
 11648     0284  160A  118A  2006  120A  118A  	fcall	___flge
 11649     0289  1803               	btfsc	3,0
 11650     028A  2A8C               	goto	u4901
 11651     028B  2A8D               	goto	u4900
 11652     028C                     u4901:
 11653     028C  2A98               	goto	l3420
 11654     028D                     u4900:
 11655     028D                     l3418:
 11656                           
 11657                           ;/opt/microchip/xc8/v3.10/pic/sources/c99/common/doprnt.c: 747:         l = 0.0;
 11658     028D  3000               	movlw	0
 11659     028E  1683               	bsf	3,5	;RP0=1, select bank1
 11660     028F  1303               	bcf	3,6	;RP1=0, select bank1
 11661     0290  00C0               	movwf	(efgtoa@l+3)^(0+128)
 11662     0291  3000               	movlw	0
 11663     0292  00BF               	movwf	(efgtoa@l+2)^(0+128)
 11664     0293  3000               	movlw	0
 11665     0294  00BE               	movwf	(efgtoa@l+1)^(0+128)
 11666     0295  3000               	movlw	0
 11667     0296  00BD               	movwf	efgtoa@l^(0+128)
 11668                           
 11669                           ;/opt/microchip/xc8/v3.10/pic/sources/c99/common/doprnt.c: 748:     } else {
 11670     0297  2ADF               	goto	l3426
 11671     0298                     l3420:
 11672                           
 11673                           ;/opt/microchip/xc8/v3.10/pic/sources/c99/common/doprnt.c: 750:         if ((h == l) && 
      +                          !(d % 2)) {
 11674     0298  1683               	bsf	3,5	;RP0=1, select bank1
 11675     0299  1303               	bcf	3,6	;RP1=0, select bank1
 11676     029A  083C               	movf	(efgtoa@h+3)^(0+128),w
 11677     029B  1283               	bcf	3,5	;RP0=0, select bank0
 11678     029C  1303               	bcf	3,6	;RP1=0, select bank0
 11679     029D  00A3               	movwf	___fleq@ff1+3
 11680     029E  1683               	bsf	3,5	;RP0=1, select bank1
 11681     029F  1303               	bcf	3,6	;RP1=0, select bank1
 11682     02A0  083B               	movf	(efgtoa@h+2)^(0+128),w
 11683     02A1  1283               	bcf	3,5	;RP0=0, select bank0
 11684     02A2  1303               	bcf	3,6	;RP1=0, select bank0
 11685     02A3  00A2               	movwf	___fleq@ff1+2
 11686     02A4  1683               	bsf	3,5	;RP0=1, select bank1
 11687     02A5  1303               	bcf	3,6	;RP1=0, select bank1
 11688     02A6  083A               	movf	(efgtoa@h+1)^(0+128),w
 11689     02A7  1283               	bcf	3,5	;RP0=0, select bank0
 11690     02A8  1303               	bcf	3,6	;RP1=0, select bank0
 11691     02A9  00A1               	movwf	___fleq@ff1+1
 11692     02AA  1683               	bsf	3,5	;RP0=1, select bank1
 11693     02AB  1303               	bcf	3,6	;RP1=0, select bank1
 11694     02AC  0839               	movf	efgtoa@h^(0+128),w
 11695     02AD  1283               	bcf	3,5	;RP0=0, select bank0
 11696     02AE  1303               	bcf	3,6	;RP1=0, select bank0
 11697     02AF  00A0               	movwf	___fleq@ff1
 11698     02B0  1683               	bsf	3,5	;RP0=1, select bank1
 11699     02B1  1303               	bcf	3,6	;RP1=0, select bank1
 11700     02B2  0840               	movf	(efgtoa@l+3)^(0+128),w
 11701     02B3  1283               	bcf	3,5	;RP0=0, select bank0
 11702     02B4  1303               	bcf	3,6	;RP1=0, select bank0
 11703     02B5  00A7               	movwf	___fleq@ff2+3
 11704     02B6  1683               	bsf	3,5	;RP0=1, select bank1
 11705     02B7  1303               	bcf	3,6	;RP1=0, select bank1
 11706     02B8  083F               	movf	(efgtoa@l+2)^(0+128),w
 11707     02B9  1283               	bcf	3,5	;RP0=0, select bank0
 11708     02BA  1303               	bcf	3,6	;RP1=0, select bank0
 11709     02BB  00A6               	movwf	___fleq@ff2+2
 11710     02BC  1683               	bsf	3,5	;RP0=1, select bank1
 11711     02BD  1303               	bcf	3,6	;RP1=0, select bank1
 11712     02BE  083E               	movf	(efgtoa@l+1)^(0+128),w
 11713     02BF  1283               	bcf	3,5	;RP0=0, select bank0
 11714     02C0  1303               	bcf	3,6	;RP1=0, select bank0
 11715     02C1  00A5               	movwf	___fleq@ff2+1
 11716     02C2  1683               	bsf	3,5	;RP0=1, select bank1
 11717     02C3  1303               	bcf	3,6	;RP1=0, select bank1
 11718     02C4  083D               	movf	efgtoa@l^(0+128),w
 11719     02C5  1283               	bcf	3,5	;RP0=0, select bank0
 11720     02C6  1303               	bcf	3,6	;RP1=0, select bank0
 11721     02C7  00A4               	movwf	___fleq@ff2
 11722     02C8  160A  158A  22F5  120A  118A  	fcall	___fleq
 11723     02CD  1C03               	btfss	3,0
 11724     02CE  2AD0               	goto	u4911
 11725     02CF  2AD1               	goto	u4910
 11726     02D0                     u4911:
 11727     02D0  2ADF               	goto	l3426
 11728     02D1                     u4910:
 11729     02D1                     l3422:
 11730     02D1  1683               	bsf	3,5	;RP0=1, select bank1
 11731     02D2  1303               	bcf	3,6	;RP1=0, select bank1
 11732     02D3  182B               	btfsc	efgtoa@d^(0+128),0
 11733     02D4  2AD6               	goto	u4921
 11734     02D5  2AD7               	goto	u4920
 11735     02D6                     u4921:
 11736     02D6  2ADF               	goto	l3426
 11737     02D7                     u4920:
 11738     02D7                     l3424:
 11739                           
 11740                           ;/opt/microchip/xc8/v3.10/pic/sources/c99/common/doprnt.c: 751:             l = 0.0;
 11741     02D7  3000               	movlw	0
 11742     02D8  00C0               	movwf	(efgtoa@l+3)^(0+128)
 11743     02D9  3000               	movlw	0
 11744     02DA  00BF               	movwf	(efgtoa@l+2)^(0+128)
 11745     02DB  3000               	movlw	0
 11746     02DC  00BE               	movwf	(efgtoa@l+1)^(0+128)
 11747     02DD  3000               	movlw	0
 11748     02DE  00BD               	movwf	efgtoa@l^(0+128)
 11749     02DF                     l3426:
 11750                           
 11751                           ;/opt/microchip/xc8/v3.10/pic/sources/c99/common/doprnt.c: 756:     h = g.f + l;
 11752     02DF  1683               	bsf	3,5	;RP0=1, select bank1
 11753     02E0  1303               	bcf	3,6	;RP1=0, select bank1
 11754     02E1  0840               	movf	(efgtoa@l+3)^(0+128),w
 11755     02E2  1283               	bcf	3,5	;RP0=0, select bank0
 11756     02E3  1303               	bcf	3,6	;RP1=0, select bank0
 11757     02E4  00A3               	movwf	___fladd@b+3
 11758     02E5  1683               	bsf	3,5	;RP0=1, select bank1
 11759     02E6  1303               	bcf	3,6	;RP1=0, select bank1
 11760     02E7  083F               	movf	(efgtoa@l+2)^(0+128),w
 11761     02E8  1283               	bcf	3,5	;RP0=0, select bank0
 11762     02E9  1303               	bcf	3,6	;RP1=0, select bank0
 11763     02EA  00A2               	movwf	___fladd@b+2
 11764     02EB  1683               	bsf	3,5	;RP0=1, select bank1
 11765     02EC  1303               	bcf	3,6	;RP1=0, select bank1
 11766     02ED  083E               	movf	(efgtoa@l+1)^(0+128),w
 11767     02EE  1283               	bcf	3,5	;RP0=0, select bank0
 11768     02EF  1303               	bcf	3,6	;RP1=0, select bank0
 11769     02F0  00A1               	movwf	___fladd@b+1
 11770     02F1  1683               	bsf	3,5	;RP0=1, select bank1
 11771     02F2  1303               	bcf	3,6	;RP1=0, select bank1
 11772     02F3  083D               	movf	efgtoa@l^(0+128),w
 11773     02F4  1283               	bcf	3,5	;RP0=0, select bank0
 11774     02F5  1303               	bcf	3,6	;RP1=0, select bank0
 11775     02F6  00A0               	movwf	___fladd@b
 11776     02F7  1683               	bsf	3,5	;RP0=1, select bank1
 11777     02F8  1303               	bcf	3,6	;RP1=0, select bank1
 11778     02F9  0847               	movf	(efgtoa@g+3)^(0+128),w
 11779     02FA  1283               	bcf	3,5	;RP0=0, select bank0
 11780     02FB  1303               	bcf	3,6	;RP1=0, select bank0
 11781     02FC  00A7               	movwf	___fladd@a+3
 11782     02FD  1683               	bsf	3,5	;RP0=1, select bank1
 11783     02FE  1303               	bcf	3,6	;RP1=0, select bank1
 11784     02FF  0846               	movf	(efgtoa@g+2)^(0+128),w
 11785     0300  1283               	bcf	3,5	;RP0=0, select bank0
 11786     0301  1303               	bcf	3,6	;RP1=0, select bank0
 11787     0302  00A6               	movwf	___fladd@a+2
 11788     0303  1683               	bsf	3,5	;RP0=1, select bank1
 11789     0304  1303               	bcf	3,6	;RP1=0, select bank1
 11790     0305  0845               	movf	(efgtoa@g+1)^(0+128),w
 11791     0306  1283               	bcf	3,5	;RP0=0, select bank0
 11792     0307  1303               	bcf	3,6	;RP1=0, select bank0
 11793     0308  00A5               	movwf	___fladd@a+1
 11794     0309  1683               	bsf	3,5	;RP0=1, select bank1
 11795     030A  1303               	bcf	3,6	;RP1=0, select bank1
 11796     030B  0844               	movf	efgtoa@g^(0+128),w
 11797     030C  1283               	bcf	3,5	;RP0=0, select bank0
 11798     030D  1303               	bcf	3,6	;RP1=0, select bank0
 11799     030E  00A4               	movwf	___fladd@a
 11800     030F  160A  118A  232A  120A  118A  	fcall	___fladd
 11801     0314  1283               	bcf	3,5	;RP0=0, select bank0
 11802     0315  1303               	bcf	3,6	;RP1=0, select bank0
 11803     0316  0823               	movf	?___fladd+3,w
 11804     0317  1683               	bsf	3,5	;RP0=1, select bank1
 11805     0318  1303               	bcf	3,6	;RP1=0, select bank1
 11806     0319  00BC               	movwf	(efgtoa@h+3)^(0+128)
 11807     031A  1283               	bcf	3,5	;RP0=0, select bank0
 11808     031B  1303               	bcf	3,6	;RP1=0, select bank0
 11809     031C  0822               	movf	?___fladd+2,w
 11810     031D  1683               	bsf	3,5	;RP0=1, select bank1
 11811     031E  1303               	bcf	3,6	;RP1=0, select bank1
 11812     031F  00BB               	movwf	(efgtoa@h+2)^(0+128)
 11813     0320  1283               	bcf	3,5	;RP0=0, select bank0
 11814     0321  1303               	bcf	3,6	;RP1=0, select bank0
 11815     0322  0821               	movf	?___fladd+1,w
 11816     0323  1683               	bsf	3,5	;RP0=1, select bank1
 11817     0324  1303               	bcf	3,6	;RP1=0, select bank1
 11818     0325  00BA               	movwf	(efgtoa@h+1)^(0+128)
 11819     0326  1283               	bcf	3,5	;RP0=0, select bank0
 11820     0327  1303               	bcf	3,6	;RP1=0, select bank0
 11821     0328  0820               	movf	?___fladd,w
 11822     0329  1683               	bsf	3,5	;RP0=1, select bank1
 11823     032A  1303               	bcf	3,6	;RP1=0, select bank1
 11824     032B  00B9               	movwf	efgtoa@h^(0+128)
 11825     032C                     l3428:
 11826                           
 11827                           ;/opt/microchip/xc8/v3.10/pic/sources/c99/common/doprnt.c: 758:  if (h >= (ou.f*10.0)) {
 11828     032C  083C               	movf	(efgtoa@h+3)^(0+128),w
 11829     032D  1283               	bcf	3,5	;RP0=0, select bank0
 11830     032E  1303               	bcf	3,6	;RP1=0, select bank0
 11831     032F  00CB               	movwf	___flge@ff1+3
 11832     0330  1683               	bsf	3,5	;RP0=1, select bank1
 11833     0331  1303               	bcf	3,6	;RP1=0, select bank1
 11834     0332  083B               	movf	(efgtoa@h+2)^(0+128),w
 11835     0333  1283               	bcf	3,5	;RP0=0, select bank0
 11836     0334  1303               	bcf	3,6	;RP1=0, select bank0
 11837     0335  00CA               	movwf	___flge@ff1+2
 11838     0336  1683               	bsf	3,5	;RP0=1, select bank1
 11839     0337  1303               	bcf	3,6	;RP1=0, select bank1
 11840     0338  083A               	movf	(efgtoa@h+1)^(0+128),w
 11841     0339  1283               	bcf	3,5	;RP0=0, select bank0
 11842     033A  1303               	bcf	3,6	;RP1=0, select bank0
 11843     033B  00C9               	movwf	___flge@ff1+1
 11844     033C  1683               	bsf	3,5	;RP0=1, select bank1
 11845     033D  1303               	bcf	3,6	;RP1=0, select bank1
 11846     033E  0839               	movf	efgtoa@h^(0+128),w
 11847     033F  1283               	bcf	3,5	;RP0=0, select bank0
 11848     0340  1303               	bcf	3,6	;RP1=0, select bank0
 11849     0341  00C8               	movwf	___flge@ff1
 11850     0342  3041               	movlw	65
 11851     0343  00B1               	movwf	___flmul@b+3
 11852     0344  3020               	movlw	32
 11853     0345  00B0               	movwf	___flmul@b+2
 11854     0346  3000               	movlw	0
 11855     0347  00AF               	movwf	___flmul@b+1
 11856     0348  3000               	movlw	0
 11857     0349  00AE               	movwf	___flmul@b
 11858     034A  1683               	bsf	3,5	;RP0=1, select bank1
 11859     034B  1303               	bcf	3,6	;RP1=0, select bank1
 11860     034C  0836               	movf	(efgtoa@ou+3)^(0+128),w
 11861     034D  1283               	bcf	3,5	;RP0=0, select bank0
 11862     034E  1303               	bcf	3,6	;RP1=0, select bank0
 11863     034F  00B5               	movwf	___flmul@a+3
 11864     0350  1683               	bsf	3,5	;RP0=1, select bank1
 11865     0351  1303               	bcf	3,6	;RP1=0, select bank1
 11866     0352  0835               	movf	(efgtoa@ou+2)^(0+128),w
 11867     0353  1283               	bcf	3,5	;RP0=0, select bank0
 11868     0354  1303               	bcf	3,6	;RP1=0, select bank0
 11869     0355  00B4               	movwf	___flmul@a+2
 11870     0356  1683               	bsf	3,5	;RP0=1, select bank1
 11871     0357  1303               	bcf	3,6	;RP1=0, select bank1
 11872     0358  0834               	movf	(efgtoa@ou+1)^(0+128),w
 11873     0359  1283               	bcf	3,5	;RP0=0, select bank0
 11874     035A  1303               	bcf	3,6	;RP1=0, select bank0
 11875     035B  00B3               	movwf	___flmul@a+1
 11876     035C  1683               	bsf	3,5	;RP0=1, select bank1
 11877     035D  1303               	bcf	3,6	;RP1=0, select bank1
 11878     035E  0833               	movf	efgtoa@ou^(0+128),w
 11879     035F  1283               	bcf	3,5	;RP0=0, select bank0
 11880     0360  1303               	bcf	3,6	;RP1=0, select bank0
 11881     0361  00B2               	movwf	___flmul@a
 11882     0362  120A  158A  2144  120A  118A  	fcall	___flmul
 11883     0367  1283               	bcf	3,5	;RP0=0, select bank0
 11884     0368  1303               	bcf	3,6	;RP1=0, select bank0
 11885     0369  0831               	movf	?___flmul+3,w
 11886     036A  00CF               	movwf	___flge@ff2+3
 11887     036B  0830               	movf	?___flmul+2,w
 11888     036C  00CE               	movwf	___flge@ff2+2
 11889     036D  082F               	movf	?___flmul+1,w
 11890     036E  00CD               	movwf	___flge@ff2+1
 11891     036F  082E               	movf	?___flmul,w
 11892     0370  00CC               	movwf	___flge@ff2
 11893     0371  160A  118A  2006  120A  118A  	fcall	___flge
 11894     0376  1C03               	btfss	3,0
 11895     0377  2B79               	goto	u4931
 11896     0378  2B7A               	goto	u4930
 11897     0379                     u4931:
 11898     0379  2BCD               	goto	l854
 11899     037A                     u4930:
 11900     037A                     l3430:
 11901                           
 11902                           ;/opt/microchip/xc8/v3.10/pic/sources/c99/common/doprnt.c: 759:   e++;
 11903     037A  3001               	movlw	1
 11904     037B  1683               	bsf	3,5	;RP0=1, select bank1
 11905     037C  1303               	bcf	3,6	;RP1=0, select bank1
 11906     037D  07AF               	addwf	efgtoa@e^(0+128),f
 11907     037E  1803               	skipnc
 11908     037F  0AB0               	incf	(efgtoa@e+1)^(0+128),f
 11909     0380  3000               	movlw	0
 11910     0381  07B0               	addwf	(efgtoa@e+1)^(0+128),f
 11911     0382                     l3432:
 11912                           
 11913                           ;/opt/microchip/xc8/v3.10/pic/sources/c99/common/doprnt.c: 760:   ou.f *= 10.0;
 11914     0382  3041               	movlw	65
 11915     0383  1283               	bcf	3,5	;RP0=0, select bank0
 11916     0384  1303               	bcf	3,6	;RP1=0, select bank0
 11917     0385  00B1               	movwf	___flmul@b+3
 11918     0386  3020               	movlw	32
 11919     0387  00B0               	movwf	___flmul@b+2
 11920     0388  3000               	movlw	0
 11921     0389  00AF               	movwf	___flmul@b+1
 11922     038A  3000               	movlw	0
 11923     038B  00AE               	movwf	___flmul@b
 11924     038C  1683               	bsf	3,5	;RP0=1, select bank1
 11925     038D  1303               	bcf	3,6	;RP1=0, select bank1
 11926     038E  0836               	movf	(efgtoa@ou+3)^(0+128),w
 11927     038F  1283               	bcf	3,5	;RP0=0, select bank0
 11928     0390  1303               	bcf	3,6	;RP1=0, select bank0
 11929     0391  00B5               	movwf	___flmul@a+3
 11930     0392  1683               	bsf	3,5	;RP0=1, select bank1
 11931     0393  1303               	bcf	3,6	;RP1=0, select bank1
 11932     0394  0835               	movf	(efgtoa@ou+2)^(0+128),w
 11933     0395  1283               	bcf	3,5	;RP0=0, select bank0
 11934     0396  1303               	bcf	3,6	;RP1=0, select bank0
 11935     0397  00B4               	movwf	___flmul@a+2
 11936     0398  1683               	bsf	3,5	;RP0=1, select bank1
 11937     0399  1303               	bcf	3,6	;RP1=0, select bank1
 11938     039A  0834               	movf	(efgtoa@ou+1)^(0+128),w
 11939     039B  1283               	bcf	3,5	;RP0=0, select bank0
 11940     039C  1303               	bcf	3,6	;RP1=0, select bank0
 11941     039D  00B3               	movwf	___flmul@a+1
 11942     039E  1683               	bsf	3,5	;RP0=1, select bank1
 11943     039F  1303               	bcf	3,6	;RP1=0, select bank1
 11944     03A0  0833               	movf	efgtoa@ou^(0+128),w
 11945     03A1  1283               	bcf	3,5	;RP0=0, select bank0
 11946     03A2  1303               	bcf	3,6	;RP1=0, select bank0
 11947     03A3  00B2               	movwf	___flmul@a
 11948     03A4  120A  158A  2144  120A  118A  	fcall	___flmul
 11949     03A9  1283               	bcf	3,5	;RP0=0, select bank0
 11950     03AA  1303               	bcf	3,6	;RP1=0, select bank0
 11951     03AB  0831               	movf	?___flmul+3,w
 11952     03AC  1683               	bsf	3,5	;RP0=1, select bank1
 11953     03AD  1303               	bcf	3,6	;RP1=0, select bank1
 11954     03AE  00B6               	movwf	(efgtoa@ou+3)^(0+128)
 11955     03AF  1283               	bcf	3,5	;RP0=0, select bank0
 11956     03B0  1303               	bcf	3,6	;RP1=0, select bank0
 11957     03B1  0830               	movf	?___flmul+2,w
 11958     03B2  1683               	bsf	3,5	;RP0=1, select bank1
 11959     03B3  1303               	bcf	3,6	;RP1=0, select bank1
 11960     03B4  00B5               	movwf	(efgtoa@ou+2)^(0+128)
 11961     03B5  1283               	bcf	3,5	;RP0=0, select bank0
 11962     03B6  1303               	bcf	3,6	;RP1=0, select bank0
 11963     03B7  082F               	movf	?___flmul+1,w
 11964     03B8  1683               	bsf	3,5	;RP0=1, select bank1
 11965     03B9  1303               	bcf	3,6	;RP1=0, select bank1
 11966     03BA  00B4               	movwf	(efgtoa@ou+1)^(0+128)
 11967     03BB  1283               	bcf	3,5	;RP0=0, select bank0
 11968     03BC  1303               	bcf	3,6	;RP1=0, select bank0
 11969     03BD  082E               	movf	?___flmul,w
 11970     03BE  1683               	bsf	3,5	;RP0=1, select bank1
 11971     03BF  1303               	bcf	3,6	;RP1=0, select bank1
 11972     03C0  00B3               	movwf	efgtoa@ou^(0+128)
 11973     03C1                     l3434:
 11974                           
 11975                           ;/opt/microchip/xc8/v3.10/pic/sources/c99/common/doprnt.c: 762:   if (nmode == 'f') {
 11976     03C1  3066               	movlw	102
 11977     03C2  062A               	xorwf	efgtoa@nmode^(0+128),w
 11978     03C3  1D03               	btfss	3,2
 11979     03C4  2BC6               	goto	u4941
 11980     03C5  2BC7               	goto	u4940
 11981     03C6                     u4941:
 11982     03C6  2BCD               	goto	l854
 11983     03C7                     u4940:
 11984     03C7                     l3436:
 11985                           
 11986                           ;/opt/microchip/xc8/v3.10/pic/sources/c99/common/doprnt.c: 764:    m++;
 11987     03C7  3001               	movlw	1
 11988     03C8  07AD               	addwf	efgtoa@m^(0+128),f
 11989     03C9  1803               	skipnc
 11990     03CA  0AAE               	incf	(efgtoa@m+1)^(0+128),f
 11991     03CB  3000               	movlw	0
 11992     03CC  07AE               	addwf	(efgtoa@m+1)^(0+128),f
 11993     03CD                     l854:	
 11994                           ;/opt/microchip/xc8/v3.10/pic/sources/c99/common/doprnt.c: 767:  }
 11995                           
 11996                           
 11997                           ;/opt/microchip/xc8/v3.10/pic/sources/c99/common/doprnt.c: 770:     u = ou;
 11998     03CD  1683               	bsf	3,5	;RP0=1, select bank1
 11999     03CE  1303               	bcf	3,6	;RP1=0, select bank1
 12000     03CF  0836               	movf	(efgtoa@ou+3)^(0+128),w
 12001     03D0  00CB               	movwf	(efgtoa@u+3)^(0+128)
 12002     03D1  0835               	movf	(efgtoa@ou+2)^(0+128),w
 12003     03D2  00CA               	movwf	(efgtoa@u+2)^(0+128)
 12004     03D3  0834               	movf	(efgtoa@ou+1)^(0+128),w
 12005     03D4  00C9               	movwf	(efgtoa@u+1)^(0+128)
 12006     03D5  0833               	movf	efgtoa@ou^(0+128),w
 12007     03D6  00C8               	movwf	efgtoa@u^(0+128)
 12008                           
 12009                           ;/opt/microchip/xc8/v3.10/pic/sources/c99/common/doprnt.c: 774:  ne = e;
 12010     03D7  0830               	movf	(efgtoa@e+1)^(0+128),w
 12011     03D8  00A1               	movwf	(efgtoa@ne+1)^(0+128)
 12012     03D9  082F               	movf	efgtoa@e^(0+128),w
 12013     03DA  00A0               	movwf	efgtoa@ne^(0+128)
 12014     03DB                     l3438:
 12015                           
 12016                           ;/opt/microchip/xc8/v3.10/pic/sources/c99/common/doprnt.c: 776:     pp = 0;
 12017     03DB  01A8               	clrf	efgtoa@pp^(0+128)
 12018     03DC                     l3440:
 12019                           
 12020                           ;/opt/microchip/xc8/v3.10/pic/sources/c99/common/doprnt.c: 777:     t = 0;
 12021     03DC  01A4               	clrf	efgtoa@t^(0+128)
 12022     03DD  01A5               	clrf	(efgtoa@t+1)^(0+128)
 12023     03DE                     l3442:
 12024                           
 12025                           ;/opt/microchip/xc8/v3.10/pic/sources/c99/common/doprnt.c: 778:     i = 0;
 12026     03DE  01B7               	clrf	efgtoa@i^(0+128)
 12027     03DF  01B8               	clrf	(efgtoa@i+1)^(0+128)
 12028                           
 12029                           ;/opt/microchip/xc8/v3.10/pic/sources/c99/common/doprnt.c: 779:     while ((i < m) && (n
      +                           < (80 - 5))) {
 12030     03E0  2DA3               	goto	l3486
 12031     03E1                     l3444:
 12032                           
 12033                           ;/opt/microchip/xc8/v3.10/pic/sources/c99/common/doprnt.c: 780:         l = floorf(h/u.f
      +                          );
 12034     03E1  1683               	bsf	3,5	;RP0=1, select bank1
 12035     03E2  1303               	bcf	3,6	;RP1=0, select bank1
 12036     03E3  084B               	movf	(efgtoa@u+3)^(0+128),w
 12037     03E4  1283               	bcf	3,5	;RP0=0, select bank0
 12038     03E5  1303               	bcf	3,6	;RP1=0, select bank0
 12039     03E6  00A3               	movwf	___fldiv@a+3
 12040     03E7  1683               	bsf	3,5	;RP0=1, select bank1
 12041     03E8  1303               	bcf	3,6	;RP1=0, select bank1
 12042     03E9  084A               	movf	(efgtoa@u+2)^(0+128),w
 12043     03EA  1283               	bcf	3,5	;RP0=0, select bank0
 12044     03EB  1303               	bcf	3,6	;RP1=0, select bank0
 12045     03EC  00A2               	movwf	___fldiv@a+2
 12046     03ED  1683               	bsf	3,5	;RP0=1, select bank1
 12047     03EE  1303               	bcf	3,6	;RP1=0, select bank1
 12048     03EF  0849               	movf	(efgtoa@u+1)^(0+128),w
 12049     03F0  1283               	bcf	3,5	;RP0=0, select bank0
 12050     03F1  1303               	bcf	3,6	;RP1=0, select bank0
 12051     03F2  00A1               	movwf	___fldiv@a+1
 12052     03F3  1683               	bsf	3,5	;RP0=1, select bank1
 12053     03F4  1303               	bcf	3,6	;RP1=0, select bank1
 12054     03F5  0848               	movf	efgtoa@u^(0+128),w
 12055     03F6  1283               	bcf	3,5	;RP0=0, select bank0
 12056     03F7  1303               	bcf	3,6	;RP1=0, select bank0
 12057     03F8  00A0               	movwf	___fldiv@a
 12058     03F9  1683               	bsf	3,5	;RP0=1, select bank1
 12059     03FA  1303               	bcf	3,6	;RP1=0, select bank1
 12060     03FB  083C               	movf	(efgtoa@h+3)^(0+128),w
 12061     03FC  1283               	bcf	3,5	;RP0=0, select bank0
 12062     03FD  1303               	bcf	3,6	;RP1=0, select bank0
 12063     03FE  00A7               	movwf	___fldiv@b+3
 12064     03FF  1683               	bsf	3,5	;RP0=1, select bank1
 12065     0400  1303               	bcf	3,6	;RP1=0, select bank1
 12066     0401  083B               	movf	(efgtoa@h+2)^(0+128),w
 12067     0402  1283               	bcf	3,5	;RP0=0, select bank0
 12068     0403  1303               	bcf	3,6	;RP1=0, select bank0
 12069     0404  00A6               	movwf	___fldiv@b+2
 12070     0405  1683               	bsf	3,5	;RP0=1, select bank1
 12071     0406  1303               	bcf	3,6	;RP1=0, select bank1
 12072     0407  083A               	movf	(efgtoa@h+1)^(0+128),w
 12073     0408  1283               	bcf	3,5	;RP0=0, select bank0
 12074     0409  1303               	bcf	3,6	;RP1=0, select bank0
 12075     040A  00A5               	movwf	___fldiv@b+1
 12076     040B  1683               	bsf	3,5	;RP0=1, select bank1
 12077     040C  1303               	bcf	3,6	;RP1=0, select bank1
 12078     040D  0839               	movf	efgtoa@h^(0+128),w
 12079     040E  1283               	bcf	3,5	;RP0=0, select bank0
 12080     040F  1303               	bcf	3,6	;RP1=0, select bank0
 12081     0410  00A4               	movwf	___fldiv@b
 12082     0411  160A  118A  2160  120A  118A  	fcall	___fldiv
 12083     0416  1283               	bcf	3,5	;RP0=0, select bank0
 12084     0417  1303               	bcf	3,6	;RP1=0, select bank0
 12085     0418  0823               	movf	?___fldiv+3,w
 12086     0419  00BD               	movwf	floorf@x+3
 12087     041A  0822               	movf	?___fldiv+2,w
 12088     041B  00BC               	movwf	floorf@x+2
 12089     041C  0821               	movf	?___fldiv+1,w
 12090     041D  00BB               	movwf	floorf@x+1
 12091     041E  0820               	movf	?___fldiv,w
 12092     041F  00BA               	movwf	floorf@x
 12093     0420  120A  158A  2035  120A  118A  	fcall	_floorf
 12094     0425  1283               	bcf	3,5	;RP0=0, select bank0
 12095     0426  1303               	bcf	3,6	;RP1=0, select bank0
 12096     0427  083D               	movf	?_floorf+3,w
 12097     0428  1683               	bsf	3,5	;RP0=1, select bank1
 12098     0429  1303               	bcf	3,6	;RP1=0, select bank1
 12099     042A  00C0               	movwf	(efgtoa@l+3)^(0+128)
 12100     042B  1283               	bcf	3,5	;RP0=0, select bank0
 12101     042C  1303               	bcf	3,6	;RP1=0, select bank0
 12102     042D  083C               	movf	?_floorf+2,w
 12103     042E  1683               	bsf	3,5	;RP0=1, select bank1
 12104     042F  1303               	bcf	3,6	;RP1=0, select bank1
 12105     0430  00BF               	movwf	(efgtoa@l+2)^(0+128)
 12106     0431  1283               	bcf	3,5	;RP0=0, select bank0
 12107     0432  1303               	bcf	3,6	;RP1=0, select bank0
 12108     0433  083B               	movf	?_floorf+1,w
 12109     0434  1683               	bsf	3,5	;RP0=1, select bank1
 12110     0435  1303               	bcf	3,6	;RP1=0, select bank1
 12111     0436  00BE               	movwf	(efgtoa@l+1)^(0+128)
 12112     0437  1283               	bcf	3,5	;RP0=0, select bank0
 12113     0438  1303               	bcf	3,6	;RP1=0, select bank0
 12114     0439  083A               	movf	?_floorf,w
 12115     043A  1683               	bsf	3,5	;RP0=1, select bank1
 12116     043B  1303               	bcf	3,6	;RP1=0, select bank1
 12117     043C  00BD               	movwf	efgtoa@l^(0+128)
 12118                           
 12119                           ;/opt/microchip/xc8/v3.10/pic/sources/c99/common/doprnt.c: 781:         d = (int)l > 9 ?
      +                           9 : (int)l;
 12120     043D  0840               	movf	(efgtoa@l+3)^(0+128),w
 12121     043E  1283               	bcf	3,5	;RP0=0, select bank0
 12122     043F  1303               	bcf	3,6	;RP1=0, select bank0
 12123     0440  00CB               	movwf	___fltol@f1+3
 12124     0441  1683               	bsf	3,5	;RP0=1, select bank1
 12125     0442  1303               	bcf	3,6	;RP1=0, select bank1
 12126     0443  083F               	movf	(efgtoa@l+2)^(0+128),w
 12127     0444  1283               	bcf	3,5	;RP0=0, select bank0
 12128     0445  1303               	bcf	3,6	;RP1=0, select bank0
 12129     0446  00CA               	movwf	___fltol@f1+2
 12130     0447  1683               	bsf	3,5	;RP0=1, select bank1
 12131     0448  1303               	bcf	3,6	;RP1=0, select bank1
 12132     0449  083E               	movf	(efgtoa@l+1)^(0+128),w
 12133     044A  1283               	bcf	3,5	;RP0=0, select bank0
 12134     044B  1303               	bcf	3,6	;RP1=0, select bank0
 12135     044C  00C9               	movwf	___fltol@f1+1
 12136     044D  1683               	bsf	3,5	;RP0=1, select bank1
 12137     044E  1303               	bcf	3,6	;RP1=0, select bank1
 12138     044F  083D               	movf	efgtoa@l^(0+128),w
 12139     0450  1283               	bcf	3,5	;RP0=0, select bank0
 12140     0451  1303               	bcf	3,6	;RP1=0, select bank0
 12141     0452  00C8               	movwf	___fltol@f1
 12142     0453  160A  158A  25EA  120A  118A  	fcall	___fltol
 12143     0458  1283               	bcf	3,5	;RP0=0, select bank0
 12144     0459  1303               	bcf	3,6	;RP1=0, select bank0
 12145     045A  0849               	movf	?___fltol+1,w
 12146     045B  3A80               	xorlw	128
 12147     045C  00FF               	movwf	btemp1
 12148     045D  3080               	movlw	128
 12149     045E  027F               	subwf	btemp1,w
 12150     045F  1D03               	skipz
 12151     0460  2C63               	goto	u4955
 12152     0461  300A               	movlw	10
 12153     0462  0248               	subwf	?___fltol,w
 12154     0463                     u4955:
 12155     0463  1803               	skipnc
 12156     0464  2C66               	goto	u4951
 12157     0465  2C67               	goto	u4950
 12158     0466                     u4951:
 12159     0466  2C91               	goto	l3448
 12160     0467                     u4950:
 12161     0467                     l3446:
 12162     0467  1683               	bsf	3,5	;RP0=1, select bank1
 12163     0468  1303               	bcf	3,6	;RP1=0, select bank1
 12164     0469  0840               	movf	(efgtoa@l+3)^(0+128),w
 12165     046A  1283               	bcf	3,5	;RP0=0, select bank0
 12166     046B  1303               	bcf	3,6	;RP1=0, select bank0
 12167     046C  00CB               	movwf	___fltol@f1+3
 12168     046D  1683               	bsf	3,5	;RP0=1, select bank1
 12169     046E  1303               	bcf	3,6	;RP1=0, select bank1
 12170     046F  083F               	movf	(efgtoa@l+2)^(0+128),w
 12171     0470  1283               	bcf	3,5	;RP0=0, select bank0
 12172     0471  1303               	bcf	3,6	;RP1=0, select bank0
 12173     0472  00CA               	movwf	___fltol@f1+2
 12174     0473  1683               	bsf	3,5	;RP0=1, select bank1
 12175     0474  1303               	bcf	3,6	;RP1=0, select bank1
 12176     0475  083E               	movf	(efgtoa@l+1)^(0+128),w
 12177     0476  1283               	bcf	3,5	;RP0=0, select bank0
 12178     0477  1303               	bcf	3,6	;RP1=0, select bank0
 12179     0478  00C9               	movwf	___fltol@f1+1
 12180     0479  1683               	bsf	3,5	;RP0=1, select bank1
 12181     047A  1303               	bcf	3,6	;RP1=0, select bank1
 12182     047B  083D               	movf	efgtoa@l^(0+128),w
 12183     047C  1283               	bcf	3,5	;RP0=0, select bank0
 12184     047D  1303               	bcf	3,6	;RP1=0, select bank0
 12185     047E  00C8               	movwf	___fltol@f1
 12186     047F  160A  158A  25EA  120A  118A  	fcall	___fltol
 12187     0484  1283               	bcf	3,5	;RP0=0, select bank0
 12188     0485  1303               	bcf	3,6	;RP1=0, select bank0
 12189     0486  0849               	movf	?___fltol+1,w
 12190     0487  1683               	bsf	3,5	;RP0=1, select bank1
 12191     0488  1303               	bcf	3,6	;RP1=0, select bank1
 12192     0489  00AC               	movwf	(efgtoa@d+1)^(0+128)
 12193     048A  1283               	bcf	3,5	;RP0=0, select bank0
 12194     048B  1303               	bcf	3,6	;RP1=0, select bank0
 12195     048C  0848               	movf	?___fltol,w
 12196     048D  1683               	bsf	3,5	;RP0=1, select bank1
 12197     048E  1303               	bcf	3,6	;RP1=0, select bank1
 12198     048F  00AB               	movwf	efgtoa@d^(0+128)
 12199     0490  2C97               	goto	l3450
 12200     0491                     l3448:
 12201     0491  3009               	movlw	9
 12202     0492  1683               	bsf	3,5	;RP0=1, select bank1
 12203     0493  1303               	bcf	3,6	;RP1=0, select bank1
 12204     0494  00AB               	movwf	efgtoa@d^(0+128)
 12205     0495  3000               	movlw	0
 12206     0496  00AC               	movwf	(efgtoa@d^(0+128)+1)
 12207     0497                     l3450:
 12208                           
 12209                           ;/opt/microchip/xc8/v3.10/pic/sources/c99/common/doprnt.c: 792:   {;/opt/microchip/xc8/v
      +                          3.10/pic/sources/c99/common/doprnt.c: 793:             if (!pp && (ne < 0)) {
 12210     0497  0828               	movf	efgtoa@pp^(0+128),w
 12211     0498  1D03               	btfss	3,2
 12212     0499  2C9B               	goto	u4961
 12213     049A  2C9C               	goto	u4960
 12214     049B                     u4961:
 12215     049B  2CCD               	goto	l3470
 12216     049C                     u4960:
 12217     049C                     l3452:
 12218     049C  1FA1               	btfss	(efgtoa@ne+1)^(0+128),7
 12219     049D  2C9F               	goto	u4971
 12220     049E  2CA0               	goto	u4970
 12221     049F                     u4971:
 12222     049F  2CCD               	goto	l3470
 12223     04A0                     u4970:
 12224     04A0                     l3454:
 12225                           
 12226                           ;/opt/microchip/xc8/v3.10/pic/sources/c99/common/doprnt.c: 794:                 dbuf[n++
      +                          ] = '.';
 12227     04A0  0842               	movf	efgtoa@n^(0+128),w
 12228     04A1  3E10               	addlw	(low (_dbuf| (0+256)))& (0+255)
 12229     04A2  0084               	movwf	4
 12230     04A3  302E               	movlw	46
 12231     04A4  1783               	bsf	3,7	;select IRP bank2
 12232     04A5  0080               	movwf	0
 12233     04A6                     l3456:
 12234     04A6  3001               	movlw	1
 12235     04A7  07C2               	addwf	efgtoa@n^(0+128),f
 12236     04A8  1803               	skipnc
 12237     04A9  0AC3               	incf	(efgtoa@n+1)^(0+128),f
 12238     04AA  3000               	movlw	0
 12239     04AB  07C3               	addwf	(efgtoa@n+1)^(0+128),f
 12240     04AC                     l3458:
 12241                           
 12242                           ;/opt/microchip/xc8/v3.10/pic/sources/c99/common/doprnt.c: 795:                 --w;
 12243     04AC  30FF               	movlw	255
 12244     04AD  07B1               	addwf	efgtoa@w^(0+128),f
 12245     04AE  1803               	skipnc
 12246     04AF  0AB2               	incf	(efgtoa@w+1)^(0+128),f
 12247     04B0  30FF               	movlw	255
 12248     04B1  07B2               	addwf	(efgtoa@w+1)^(0+128),f
 12249     04B2                     l3460:
 12250                           
 12251                           ;/opt/microchip/xc8/v3.10/pic/sources/c99/common/doprnt.c: 796:                 pp = 1;
 12252     04B2  3001               	movlw	1
 12253     04B3  00A8               	movwf	efgtoa@pp^(0+128)
 12254     04B4  2CCD               	goto	l3470
 12255     04B5                     l3462:
 12256                           
 12257                           ;/opt/microchip/xc8/v3.10/pic/sources/c99/common/doprnt.c: 799:                 dbuf[n++
      +                          ] = '0';
 12258     04B5  0842               	movf	efgtoa@n^(0+128),w
 12259     04B6  3E10               	addlw	(low (_dbuf| (0+256)))& (0+255)
 12260     04B7  0084               	movwf	4
 12261     04B8  3030               	movlw	48
 12262     04B9  1783               	bsf	3,7	;select IRP bank2
 12263     04BA  0080               	movwf	0
 12264     04BB                     l3464:
 12265     04BB  3001               	movlw	1
 12266     04BC  07C2               	addwf	efgtoa@n^(0+128),f
 12267     04BD  1803               	skipnc
 12268     04BE  0AC3               	incf	(efgtoa@n+1)^(0+128),f
 12269     04BF  3000               	movlw	0
 12270     04C0  07C3               	addwf	(efgtoa@n+1)^(0+128),f
 12271     04C1                     l3466:
 12272                           
 12273                           ;/opt/microchip/xc8/v3.10/pic/sources/c99/common/doprnt.c: 800:                 --w;
 12274     04C1  30FF               	movlw	255
 12275     04C2  07B1               	addwf	efgtoa@w^(0+128),f
 12276     04C3  1803               	skipnc
 12277     04C4  0AB2               	incf	(efgtoa@w+1)^(0+128),f
 12278     04C5  30FF               	movlw	255
 12279     04C6  07B2               	addwf	(efgtoa@w+1)^(0+128),f
 12280     04C7                     l3468:
 12281                           
 12282                           ;/opt/microchip/xc8/v3.10/pic/sources/c99/common/doprnt.c: 801:                 --t;
 12283     04C7  30FF               	movlw	255
 12284     04C8  07A4               	addwf	efgtoa@t^(0+128),f
 12285     04C9  1803               	skipnc
 12286     04CA  0AA5               	incf	(efgtoa@t+1)^(0+128),f
 12287     04CB  30FF               	movlw	255
 12288     04CC  07A5               	addwf	(efgtoa@t+1)^(0+128),f
 12289     04CD                     l3470:
 12290                           
 12291                           ;/opt/microchip/xc8/v3.10/pic/sources/c99/common/doprnt.c: 798:             while (t) {
 12292     04CD  0824               	movf	efgtoa@t^(0+128),w
 12293     04CE  0425               	iorwf	(efgtoa@t+1)^(0+128),w
 12294     04CF  1D03               	btfss	3,2
 12295     04D0  2CD2               	goto	u4981
 12296     04D1  2CD3               	goto	u4980
 12297     04D2                     u4981:
 12298     04D2  2CB5               	goto	l3462
 12299     04D3                     u4980:
 12300     04D3                     l3472:
 12301                           
 12302                           ;/opt/microchip/xc8/v3.10/pic/sources/c99/common/doprnt.c: 803:             dbuf[n++] = 
      +                          (char)((int)'0' + d);
 12303     04D3  0842               	movf	efgtoa@n^(0+128),w
 12304     04D4  3E10               	addlw	(low (_dbuf| (0+256)))& (0+255)
 12305     04D5  0084               	movwf	4
 12306     04D6  082B               	movf	efgtoa@d^(0+128),w
 12307     04D7  3E30               	addlw	48
 12308     04D8  1783               	bsf	3,7	;select IRP bank2
 12309     04D9  0080               	movwf	0
 12310     04DA                     l3474:
 12311     04DA  3001               	movlw	1
 12312     04DB  07C2               	addwf	efgtoa@n^(0+128),f
 12313     04DC  1803               	skipnc
 12314     04DD  0AC3               	incf	(efgtoa@n+1)^(0+128),f
 12315     04DE  3000               	movlw	0
 12316     04DF  07C3               	addwf	(efgtoa@n+1)^(0+128),f
 12317     04E0                     l3476:
 12318                           
 12319                           ;/opt/microchip/xc8/v3.10/pic/sources/c99/common/doprnt.c: 804:             --w;
 12320     04E0  30FF               	movlw	255
 12321     04E1  07B1               	addwf	efgtoa@w^(0+128),f
 12322     04E2  1803               	skipnc
 12323     04E3  0AB2               	incf	(efgtoa@w+1)^(0+128),f
 12324     04E4  30FF               	movlw	255
 12325     04E5  07B2               	addwf	(efgtoa@w+1)^(0+128),f
 12326     04E6                     l3478:
 12327                           
 12328                           ;/opt/microchip/xc8/v3.10/pic/sources/c99/common/doprnt.c: 805:         };/opt/microchip
      +                          /xc8/v3.10/pic/sources/c99/common/doprnt.c: 806:         h -= l*u.f;
 12329     04E6  084B               	movf	(efgtoa@u+3)^(0+128),w
 12330     04E7  1283               	bcf	3,5	;RP0=0, select bank0
 12331     04E8  1303               	bcf	3,6	;RP1=0, select bank0
 12332     04E9  00B5               	movwf	___flmul@a+3
 12333     04EA  1683               	bsf	3,5	;RP0=1, select bank1
 12334     04EB  1303               	bcf	3,6	;RP1=0, select bank1
 12335     04EC  084A               	movf	(efgtoa@u+2)^(0+128),w
 12336     04ED  1283               	bcf	3,5	;RP0=0, select bank0
 12337     04EE  1303               	bcf	3,6	;RP1=0, select bank0
 12338     04EF  00B4               	movwf	___flmul@a+2
 12339     04F0  1683               	bsf	3,5	;RP0=1, select bank1
 12340     04F1  1303               	bcf	3,6	;RP1=0, select bank1
 12341     04F2  0849               	movf	(efgtoa@u+1)^(0+128),w
 12342     04F3  1283               	bcf	3,5	;RP0=0, select bank0
 12343     04F4  1303               	bcf	3,6	;RP1=0, select bank0
 12344     04F5  00B3               	movwf	___flmul@a+1
 12345     04F6  1683               	bsf	3,5	;RP0=1, select bank1
 12346     04F7  1303               	bcf	3,6	;RP1=0, select bank1
 12347     04F8  0848               	movf	efgtoa@u^(0+128),w
 12348     04F9  1283               	bcf	3,5	;RP0=0, select bank0
 12349     04FA  1303               	bcf	3,6	;RP1=0, select bank0
 12350     04FB  00B2               	movwf	___flmul@a
 12351     04FC  1683               	bsf	3,5	;RP0=1, select bank1
 12352     04FD  1303               	bcf	3,6	;RP1=0, select bank1
 12353     04FE  0840               	movf	(efgtoa@l+3)^(0+128),w
 12354     04FF  1283               	bcf	3,5	;RP0=0, select bank0
 12355     0500  1303               	bcf	3,6	;RP1=0, select bank0
 12356     0501  00B1               	movwf	___flmul@b+3
 12357     0502  1683               	bsf	3,5	;RP0=1, select bank1
 12358     0503  1303               	bcf	3,6	;RP1=0, select bank1
 12359     0504  083F               	movf	(efgtoa@l+2)^(0+128),w
 12360     0505  1283               	bcf	3,5	;RP0=0, select bank0
 12361     0506  1303               	bcf	3,6	;RP1=0, select bank0
 12362     0507  00B0               	movwf	___flmul@b+2
 12363     0508  1683               	bsf	3,5	;RP0=1, select bank1
 12364     0509  1303               	bcf	3,6	;RP1=0, select bank1
 12365     050A  083E               	movf	(efgtoa@l+1)^(0+128),w
 12366     050B  1283               	bcf	3,5	;RP0=0, select bank0
 12367     050C  1303               	bcf	3,6	;RP1=0, select bank0
 12368     050D  00AF               	movwf	___flmul@b+1
 12369     050E  1683               	bsf	3,5	;RP0=1, select bank1
 12370     050F  1303               	bcf	3,6	;RP1=0, select bank1
 12371     0510  083D               	movf	efgtoa@l^(0+128),w
 12372     0511  1283               	bcf	3,5	;RP0=0, select bank0
 12373     0512  1303               	bcf	3,6	;RP1=0, select bank0
 12374     0513  00AE               	movwf	___flmul@b
 12375     0514  120A  158A  2144  120A  118A  	fcall	___flmul
 12376     0519  1283               	bcf	3,5	;RP0=0, select bank0
 12377     051A  1303               	bcf	3,6	;RP1=0, select bank0
 12378     051B  0831               	movf	?___flmul+3,w
 12379     051C  00CB               	movwf	___flsub@a+3
 12380     051D  0830               	movf	?___flmul+2,w
 12381     051E  00CA               	movwf	___flsub@a+2
 12382     051F  082F               	movf	?___flmul+1,w
 12383     0520  00C9               	movwf	___flsub@a+1
 12384     0521  082E               	movf	?___flmul,w
 12385     0522  00C8               	movwf	___flsub@a
 12386     0523  1683               	bsf	3,5	;RP0=1, select bank1
 12387     0524  1303               	bcf	3,6	;RP1=0, select bank1
 12388     0525  083C               	movf	(efgtoa@h+3)^(0+128),w
 12389     0526  1283               	bcf	3,5	;RP0=0, select bank0
 12390     0527  1303               	bcf	3,6	;RP1=0, select bank0
 12391     0528  00CF               	movwf	___flsub@b+3
 12392     0529  1683               	bsf	3,5	;RP0=1, select bank1
 12393     052A  1303               	bcf	3,6	;RP1=0, select bank1
 12394     052B  083B               	movf	(efgtoa@h+2)^(0+128),w
 12395     052C  1283               	bcf	3,5	;RP0=0, select bank0
 12396     052D  1303               	bcf	3,6	;RP1=0, select bank0
 12397     052E  00CE               	movwf	___flsub@b+2
 12398     052F  1683               	bsf	3,5	;RP0=1, select bank1
 12399     0530  1303               	bcf	3,6	;RP1=0, select bank1
 12400     0531  083A               	movf	(efgtoa@h+1)^(0+128),w
 12401     0532  1283               	bcf	3,5	;RP0=0, select bank0
 12402     0533  1303               	bcf	3,6	;RP1=0, select bank0
 12403     0534  00CD               	movwf	___flsub@b+1
 12404     0535  1683               	bsf	3,5	;RP0=1, select bank1
 12405     0536  1303               	bcf	3,6	;RP1=0, select bank1
 12406     0537  0839               	movf	efgtoa@h^(0+128),w
 12407     0538  1283               	bcf	3,5	;RP0=0, select bank0
 12408     0539  1303               	bcf	3,6	;RP1=0, select bank0
 12409     053A  00CC               	movwf	___flsub@b
 12410     053B  160A  158A  221E  120A  118A  	fcall	___flsub
 12411     0540  1283               	bcf	3,5	;RP0=0, select bank0
 12412     0541  1303               	bcf	3,6	;RP1=0, select bank0
 12413     0542  084B               	movf	?___flsub+3,w
 12414     0543  1683               	bsf	3,5	;RP0=1, select bank1
 12415     0544  1303               	bcf	3,6	;RP1=0, select bank1
 12416     0545  00BC               	movwf	(efgtoa@h+3)^(0+128)
 12417     0546  1283               	bcf	3,5	;RP0=0, select bank0
 12418     0547  1303               	bcf	3,6	;RP1=0, select bank0
 12419     0548  084A               	movf	?___flsub+2,w
 12420     0549  1683               	bsf	3,5	;RP0=1, select bank1
 12421     054A  1303               	bcf	3,6	;RP1=0, select bank1
 12422     054B  00BB               	movwf	(efgtoa@h+2)^(0+128)
 12423     054C  1283               	bcf	3,5	;RP0=0, select bank0
 12424     054D  1303               	bcf	3,6	;RP1=0, select bank0
 12425     054E  0849               	movf	?___flsub+1,w
 12426     054F  1683               	bsf	3,5	;RP0=1, select bank1
 12427     0550  1303               	bcf	3,6	;RP1=0, select bank1
 12428     0551  00BA               	movwf	(efgtoa@h+1)^(0+128)
 12429     0552  1283               	bcf	3,5	;RP0=0, select bank0
 12430     0553  1303               	bcf	3,6	;RP1=0, select bank0
 12431     0554  0848               	movf	?___flsub,w
 12432     0555  1683               	bsf	3,5	;RP0=1, select bank1
 12433     0556  1303               	bcf	3,6	;RP1=0, select bank1
 12434     0557  00B9               	movwf	efgtoa@h^(0+128)
 12435     0558                     l3480:
 12436                           
 12437                           ;/opt/microchip/xc8/v3.10/pic/sources/c99/common/doprnt.c: 807:         u.f = u.f/10.0;
 12438     0558  3041               	movlw	65
 12439     0559  1283               	bcf	3,5	;RP0=0, select bank0
 12440     055A  1303               	bcf	3,6	;RP1=0, select bank0
 12441     055B  00A3               	movwf	___fldiv@a+3
 12442     055C  3020               	movlw	32
 12443     055D  00A2               	movwf	___fldiv@a+2
 12444     055E  3000               	movlw	0
 12445     055F  00A1               	movwf	___fldiv@a+1
 12446     0560  3000               	movlw	0
 12447     0561  00A0               	movwf	___fldiv@a
 12448     0562  1683               	bsf	3,5	;RP0=1, select bank1
 12449     0563  1303               	bcf	3,6	;RP1=0, select bank1
 12450     0564  084B               	movf	(efgtoa@u+3)^(0+128),w
 12451     0565  1283               	bcf	3,5	;RP0=0, select bank0
 12452     0566  1303               	bcf	3,6	;RP1=0, select bank0
 12453     0567  00A7               	movwf	___fldiv@b+3
 12454     0568  1683               	bsf	3,5	;RP0=1, select bank1
 12455     0569  1303               	bcf	3,6	;RP1=0, select bank1
 12456     056A  084A               	movf	(efgtoa@u+2)^(0+128),w
 12457     056B  1283               	bcf	3,5	;RP0=0, select bank0
 12458     056C  1303               	bcf	3,6	;RP1=0, select bank0
 12459     056D  00A6               	movwf	___fldiv@b+2
 12460     056E  1683               	bsf	3,5	;RP0=1, select bank1
 12461     056F  1303               	bcf	3,6	;RP1=0, select bank1
 12462     0570  0849               	movf	(efgtoa@u+1)^(0+128),w
 12463     0571  1283               	bcf	3,5	;RP0=0, select bank0
 12464     0572  1303               	bcf	3,6	;RP1=0, select bank0
 12465     0573  00A5               	movwf	___fldiv@b+1
 12466     0574  1683               	bsf	3,5	;RP0=1, select bank1
 12467     0575  1303               	bcf	3,6	;RP1=0, select bank1
 12468     0576  0848               	movf	efgtoa@u^(0+128),w
 12469     0577  1283               	bcf	3,5	;RP0=0, select bank0
 12470     0578  1303               	bcf	3,6	;RP1=0, select bank0
 12471     0579  00A4               	movwf	___fldiv@b
 12472     057A  160A  118A  2160  120A  118A  	fcall	___fldiv
 12473     057F  1283               	bcf	3,5	;RP0=0, select bank0
 12474     0580  1303               	bcf	3,6	;RP1=0, select bank0
 12475     0581  0823               	movf	?___fldiv+3,w
 12476     0582  1683               	bsf	3,5	;RP0=1, select bank1
 12477     0583  1303               	bcf	3,6	;RP1=0, select bank1
 12478     0584  00CB               	movwf	(efgtoa@u+3)^(0+128)
 12479     0585  1283               	bcf	3,5	;RP0=0, select bank0
 12480     0586  1303               	bcf	3,6	;RP1=0, select bank0
 12481     0587  0822               	movf	?___fldiv+2,w
 12482     0588  1683               	bsf	3,5	;RP0=1, select bank1
 12483     0589  1303               	bcf	3,6	;RP1=0, select bank1
 12484     058A  00CA               	movwf	(efgtoa@u+2)^(0+128)
 12485     058B  1283               	bcf	3,5	;RP0=0, select bank0
 12486     058C  1303               	bcf	3,6	;RP1=0, select bank0
 12487     058D  0821               	movf	?___fldiv+1,w
 12488     058E  1683               	bsf	3,5	;RP0=1, select bank1
 12489     058F  1303               	bcf	3,6	;RP1=0, select bank1
 12490     0590  00C9               	movwf	(efgtoa@u+1)^(0+128)
 12491     0591  1283               	bcf	3,5	;RP0=0, select bank0
 12492     0592  1303               	bcf	3,6	;RP1=0, select bank0
 12493     0593  0820               	movf	?___fldiv,w
 12494     0594  1683               	bsf	3,5	;RP0=1, select bank1
 12495     0595  1303               	bcf	3,6	;RP1=0, select bank1
 12496     0596  00C8               	movwf	efgtoa@u^(0+128)
 12497     0597                     l3482:
 12498                           
 12499                           ;/opt/microchip/xc8/v3.10/pic/sources/c99/common/doprnt.c: 808:         --ne;
 12500     0597  30FF               	movlw	255
 12501     0598  07A0               	addwf	efgtoa@ne^(0+128),f
 12502     0599  1803               	skipnc
 12503     059A  0AA1               	incf	(efgtoa@ne+1)^(0+128),f
 12504     059B  30FF               	movlw	255
 12505     059C  07A1               	addwf	(efgtoa@ne+1)^(0+128),f
 12506     059D                     l3484:
 12507                           
 12508                           ;/opt/microchip/xc8/v3.10/pic/sources/c99/common/doprnt.c: 809:         ++i;
 12509     059D  3001               	movlw	1
 12510     059E  07B7               	addwf	efgtoa@i^(0+128),f
 12511     059F  1803               	skipnc
 12512     05A0  0AB8               	incf	(efgtoa@i+1)^(0+128),f
 12513     05A1  3000               	movlw	0
 12514     05A2  07B8               	addwf	(efgtoa@i+1)^(0+128),f
 12515     05A3                     l3486:
 12516                           
 12517                           ;/opt/microchip/xc8/v3.10/pic/sources/c99/common/doprnt.c: 779:     while ((i < m) && (n
      +                           < (80 - 5))) {
 12518     05A3  0838               	movf	(efgtoa@i+1)^(0+128),w
 12519     05A4  3A80               	xorlw	128
 12520     05A5  1283               	bcf	3,5	;RP0=0, select bank0
 12521     05A6  1303               	bcf	3,6	;RP1=0, select bank0
 12522     05A7  00DA               	movwf	??_efgtoa
 12523     05A8  1683               	bsf	3,5	;RP0=1, select bank1
 12524     05A9  1303               	bcf	3,6	;RP1=0, select bank1
 12525     05AA  082E               	movf	(efgtoa@m+1)^(0+128),w
 12526     05AB  3A80               	xorlw	128
 12527     05AC  1283               	bcf	3,5	;RP0=0, select bank0
 12528     05AD  1303               	bcf	3,6	;RP1=0, select bank0
 12529     05AE  025A               	subwf	??_efgtoa,w
 12530     05AF  1D03               	skipz
 12531     05B0  2DB5               	goto	u4995
 12532     05B1  1683               	bsf	3,5	;RP0=1, select bank1
 12533     05B2  1303               	bcf	3,6	;RP1=0, select bank1
 12534     05B3  082D               	movf	efgtoa@m^(0+128),w
 12535     05B4  0237               	subwf	efgtoa@i^(0+128),w
 12536     05B5                     u4995:
 12537     05B5  1803               	skipnc
 12538     05B6  2DB8               	goto	u4991
 12539     05B7  2DB9               	goto	u4990
 12540     05B8                     u4991:
 12541     05B8  2DC8               	goto	l3490
 12542     05B9                     u4990:
 12543     05B9                     l3488:
 12544     05B9  1683               	bsf	3,5	;RP0=1, select bank1
 12545     05BA  1303               	bcf	3,6	;RP1=0, select bank1
 12546     05BB  0843               	movf	(efgtoa@n+1)^(0+128),w
 12547     05BC  3A80               	xorlw	128
 12548     05BD  00FF               	movwf	btemp1
 12549     05BE  3080               	movlw	128
 12550     05BF  027F               	subwf	btemp1,w
 12551     05C0  1D03               	skipz
 12552     05C1  2DC4               	goto	u5005
 12553     05C2  304B               	movlw	75
 12554     05C3  0242               	subwf	efgtoa@n^(0+128),w
 12555     05C4                     u5005:
 12556     05C4  1C03               	skipc
 12557     05C5  2DC7               	goto	u5001
 12558     05C6  2DC8               	goto	u5000
 12559     05C7                     u5001:
 12560     05C7  2BE1               	goto	l3444
 12561     05C8                     u5000:
 12562     05C8                     l3490:
 12563                           
 12564                           ;/opt/microchip/xc8/v3.10/pic/sources/c99/common/doprnt.c: 816:  i = sizeof(dbuf) - 1;
 12565     05C8  304F               	movlw	79
 12566     05C9  1683               	bsf	3,5	;RP0=1, select bank1
 12567     05CA  1303               	bcf	3,6	;RP1=0, select bank1
 12568     05CB  00B7               	movwf	efgtoa@i^(0+128)
 12569     05CC  3000               	movlw	0
 12570     05CD  00B8               	movwf	(efgtoa@i^(0+128)+1)
 12571     05CE                     l3492:
 12572                           
 12573                           ;/opt/microchip/xc8/v3.10/pic/sources/c99/common/doprnt.c: 817:     dbuf[i] = '\0';
 12574     05CE  0837               	movf	efgtoa@i^(0+128),w
 12575     05CF  3E10               	addlw	(low (_dbuf| (0+256)))& (0+255)
 12576     05D0  0084               	movwf	4
 12577     05D1  1783               	bsf	3,7	;select IRP bank2
 12578     05D2  0180               	clrf	0
 12579     05D3                     l3494:
 12580                           
 12581                           ;/opt/microchip/xc8/v3.10/pic/sources/c99/common/doprnt.c: 848:  memcpy(&dbuf[i-n], &dbu
      +                          f[0], (size_t)n);
 12582     05D3  3010               	movlw	(low (_dbuf| (0+256)))& (0+255)
 12583     05D4  1283               	bcf	3,5	;RP0=0, select bank0
 12584     05D5  1303               	bcf	3,6	;RP1=0, select bank0
 12585     05D6  00DA               	movwf	??_efgtoa
 12586     05D7  1683               	bsf	3,5	;RP0=1, select bank1
 12587     05D8  1303               	bcf	3,6	;RP1=0, select bank1
 12588     05D9  0842               	movf	efgtoa@n^(0+128),w
 12589     05DA  1283               	bcf	3,5	;RP0=0, select bank0
 12590     05DB  1303               	bcf	3,6	;RP1=0, select bank0
 12591     05DC  02DA               	subwf	??_efgtoa,f
 12592     05DD  1683               	bsf	3,5	;RP0=1, select bank1
 12593     05DE  1303               	bcf	3,6	;RP1=0, select bank1
 12594     05DF  0837               	movf	efgtoa@i^(0+128),w
 12595     05E0  1283               	bcf	3,5	;RP0=0, select bank0
 12596     05E1  1303               	bcf	3,6	;RP1=0, select bank0
 12597     05E2  075A               	addwf	??_efgtoa,w
 12598     05E3  00A0               	movwf	memcpy@d1
 12599     05E4  3010               	movlw	(low (_dbuf| (0+256)))& (0+255)
 12600     05E5  00A1               	movwf	memcpy@s1
 12601     05E6  1683               	bsf	3,5	;RP0=1, select bank1
 12602     05E7  1303               	bcf	3,6	;RP1=0, select bank1
 12603     05E8  0843               	movf	(efgtoa@n+1)^(0+128),w
 12604     05E9  1283               	bcf	3,5	;RP0=0, select bank0
 12605     05EA  1303               	bcf	3,6	;RP1=0, select bank0
 12606     05EB  00A3               	movwf	memcpy@n+1
 12607     05EC  1683               	bsf	3,5	;RP0=1, select bank1
 12608     05ED  1303               	bcf	3,6	;RP1=0, select bank1
 12609     05EE  0842               	movf	efgtoa@n^(0+128),w
 12610     05EF  1283               	bcf	3,5	;RP0=0, select bank0
 12611     05F0  1303               	bcf	3,6	;RP1=0, select bank0
 12612     05F1  00A2               	movwf	memcpy@n
 12613     05F2  160A  158A  21FB  120A  118A  	fcall	_memcpy
 12614     05F7                     l3496:
 12615                           
 12616                           ;/opt/microchip/xc8/v3.10/pic/sources/c99/common/doprnt.c: 849:  n = i-n;
 12617     05F7  1683               	bsf	3,5	;RP0=1, select bank1
 12618     05F8  1303               	bcf	3,6	;RP1=0, select bank1
 12619     05F9  0842               	movf	efgtoa@n^(0+128),w
 12620     05FA  0237               	subwf	efgtoa@i^(0+128),w
 12621     05FB  00C2               	movwf	efgtoa@n^(0+128)
 12622     05FC  0843               	movf	(efgtoa@n+1)^(0+128),w
 12623     05FD  1C03               	skipc
 12624     05FE  0A43               	incf	(efgtoa@n+1)^(0+128),w
 12625     05FF  0238               	subwf	(efgtoa@i+1)^(0+128),w
 12626     0600  00C3               	movwf	(efgtoa@n+1)^(0+128)
 12627     0601                     l3498:
 12628                           
 12629                           ;/opt/microchip/xc8/v3.10/pic/sources/c99/common/doprnt.c: 850:  i = sign == 0 ? 0 : 1;
 12630     0601  0841               	movf	efgtoa@sign^(0+128),w
 12631     0602  1D03               	btfss	3,2
 12632     0603  2E05               	goto	u5011
 12633     0604  2E07               	goto	u5010
 12634     0605                     u5011:
 12635     0605  3001               	movlw	1
 12636     0606  2E08               	goto	u5020
 12637     0607                     u5010:
 12638     0607  3000               	movlw	0
 12639     0608                     u5020:
 12640     0608  1283               	bcf	3,5	;RP0=0, select bank0
 12641     0609  1303               	bcf	3,6	;RP1=0, select bank0
 12642     060A  00DA               	movwf	??_efgtoa
 12643     060B  01DB               	clrf	??_efgtoa+1
 12644     060C  085A               	movf	??_efgtoa,w
 12645     060D  1683               	bsf	3,5	;RP0=1, select bank1
 12646     060E  1303               	bcf	3,6	;RP1=0, select bank1
 12647     060F  00B7               	movwf	efgtoa@i^(0+128)
 12648     0610  1283               	bcf	3,5	;RP0=0, select bank0
 12649     0611  1303               	bcf	3,6	;RP1=0, select bank0
 12650     0612  085B               	movf	??_efgtoa+1,w
 12651     0613  1683               	bsf	3,5	;RP0=1, select bank1
 12652     0614  1303               	bcf	3,6	;RP1=0, select bank1
 12653     0615  00B8               	movwf	(efgtoa@i+1)^(0+128)
 12654     0616                     l3500:
 12655                           
 12656                           ;/opt/microchip/xc8/v3.10/pic/sources/c99/common/doprnt.c: 861:  if (sign) {
 12657     0616  0841               	movf	efgtoa@sign^(0+128),w
 12658     0617  1903               	btfsc	3,2
 12659     0618  2E1A               	goto	u5031
 12660     0619  2E1B               	goto	u5030
 12661     061A                     u5031:
 12662     061A  2E27               	goto	l3504
 12663     061B                     u5030:
 12664     061B                     l3502:
 12665                           
 12666                           ;/opt/microchip/xc8/v3.10/pic/sources/c99/common/doprnt.c: 862:   dbuf[--n] = sign;
 12667     061B  30FF               	movlw	255
 12668     061C  07C2               	addwf	efgtoa@n^(0+128),f
 12669     061D  1803               	skipnc
 12670     061E  0AC3               	incf	(efgtoa@n+1)^(0+128),f
 12671     061F  30FF               	movlw	255
 12672     0620  07C3               	addwf	(efgtoa@n+1)^(0+128),f
 12673     0621  0842               	movf	efgtoa@n^(0+128),w
 12674     0622  3E10               	addlw	(low (_dbuf| (0+256)))& (0+255)
 12675     0623  0084               	movwf	4
 12676     0624  0841               	movf	efgtoa@sign^(0+128),w
 12677     0625  1783               	bsf	3,7	;select IRP bank2
 12678     0626  0080               	movwf	0
 12679     0627                     l3504:
 12680                           
 12681                           ;/opt/microchip/xc8/v3.10/pic/sources/c99/common/doprnt.c: 864:  w -= i;
 12682     0627  0837               	movf	efgtoa@i^(0+128),w
 12683     0628  02B1               	subwf	efgtoa@w^(0+128),f
 12684     0629  0838               	movf	(efgtoa@i+1)^(0+128),w
 12685     062A  1C03               	skipc
 12686     062B  03B2               	decf	(efgtoa@w+1)^(0+128),f
 12687     062C  02B2               	subwf	(efgtoa@w+1)^(0+128),f
 12688     062D                     l3506:
 12689                           
 12690                           ;/opt/microchip/xc8/v3.10/pic/sources/c99/common/doprnt.c: 867:     return (void) pad(fp
      +                          , &dbuf[n], w);
 12691     062D  1283               	bcf	3,5	;RP0=0, select bank0
 12692     062E  1303               	bcf	3,6	;RP1=0, select bank0
 12693     062F  0854               	movf	efgtoa@fp,w
 12694     0630  00B0               	movwf	pad@fp
 12695     0631  1683               	bsf	3,5	;RP0=1, select bank1
 12696     0632  1303               	bcf	3,6	;RP1=0, select bank1
 12697     0633  0842               	movf	efgtoa@n^(0+128),w
 12698     0634  3E10               	addlw	(low (_dbuf| (0+256)))& (0+255)
 12699     0635  1283               	bcf	3,5	;RP0=0, select bank0
 12700     0636  1303               	bcf	3,6	;RP1=0, select bank0
 12701     0637  00B1               	movwf	pad@buf
 12702     0638  1683               	bsf	3,5	;RP0=1, select bank1
 12703     0639  1303               	bcf	3,6	;RP1=0, select bank1
 12704     063A  0832               	movf	(efgtoa@w+1)^(0+128),w
 12705     063B  1283               	bcf	3,5	;RP0=0, select bank0
 12706     063C  1303               	bcf	3,6	;RP1=0, select bank0
 12707     063D  00B3               	movwf	pad@p+1
 12708     063E  1683               	bsf	3,5	;RP0=1, select bank1
 12709     063F  1303               	bcf	3,6	;RP1=0, select bank1
 12710     0640  0831               	movf	efgtoa@w^(0+128),w
 12711     0641  1283               	bcf	3,5	;RP0=0, select bank0
 12712     0642  1303               	bcf	3,6	;RP1=0, select bank0
 12713     0643  00B2               	movwf	pad@p
 12714     0644  160A  158A  22BB  120A  118A  	fcall	_pad
 12715     0649                     l828:
 12716     0649  0008               	return
 12717     064A                     __end_of_efgtoa:

Data Sizes:
    Strings     138
    Constant    0
    Data        0
    BSS         114
    Persistent  0
    Stack       0

Auto Spaces:
    Space          Size  Autos    Used
    COMMON           14      7      14
    BANK0            80     76      79
    BANK1            80     73      77
    BANK3            96     30      50
    BANK2            96      0      80

Pointer List with Targets:

    efgtoa@fp	PTR struct _IO_FILE size(1) Largest target is 0
		 -> NULL(NULL[0]), 

    fputc@fp	PTR struct _IO_FILE size(1) Largest target is 0
		 -> NULL(NULL[0]), 

    fputc@fp$.$buffer	PTR unsigned char  size(1) Largest target is 0

    fputc@fp$.$source	PTR const unsigned char  size(1) Largest target is 0

    fputs@fp	PTR struct _IO_FILE size(1) Largest target is 0
		 -> NULL(NULL[0]), 

    fputs@s	PTR const unsigned char  size(1) Largest target is 80
		 -> dbuf(BANK2[80]), 

    memcpy@d	PTR unsigned char  size(1) Largest target is 80
		 -> dbuf(BANK2[80]), 

    memcpy@d1	PTR void  size(1) Largest target is 80
		 -> dbuf(BANK2[80]), 

    memcpy@s	PTR const unsigned char  size(1) Largest target is 80
		 -> dbuf(BANK2[80]), 

    memcpy@s1	PTR const void  size(1) Largest target is 80
		 -> dbuf(BANK2[80]), 

    pad@buf	PTR unsigned char  size(1) Largest target is 80
		 -> dbuf(BANK2[80]), 

    pad@fp	PTR struct _IO_FILE size(1) Largest target is 0
		 -> NULL(NULL[0]), 

    printf@ap	PTR void [1] size(1) Largest target is 2
		 -> ?_printf(BANK1[2]), 

    printf@fmt	PTR const unsigned char  size(1) Largest target is 119
		 -> STR_1(CODE[119]), STR_2(CODE[11]), 

    S1239$buffer	PTR unsigned char  size(1) Largest target is 0

    S1239$source	PTR const unsigned char  size(1) Largest target is 0

    send_frame@data	PTR unsigned char  size(1) Largest target is 4
		 -> main@payload(BANK3[4]), 

    sp__memcpy	PTR void  size(1) Largest target is 80
		 -> dbuf(BANK2[80]), 

    sp__strcpy	PTR unsigned char  size(1) Largest target is 80
		 -> dbuf(BANK2[80]), 

    strcpy@d	PTR unsigned char  size(1) Largest target is 80
		 -> dbuf(BANK2[80]), 

    strcpy@dest	PTR unsigned char  size(1) Largest target is 80
		 -> dbuf(BANK2[80]), 

    strcpy@src	PTR const unsigned char  size(1) Largest target is 4
		 -> STR_3(CODE[4]), STR_6(CODE[4]), 

    vfpfcnvrt@ap	PTR PTR void  size(1) Largest target is 1
		 -> printf@ap(BANK0[1]), 

    vfpfcnvrt@cp	PTR unsigned char  size(1) Largest target is 119
		 -> STR_1(CODE[119]), STR_2(CODE[11]), 

    vfpfcnvrt@fmt	PTR PTR unsigned char  size(1) Largest target is 1
		 -> vfprintf@cfmt(BANK0[1]), 

    vfpfcnvrt@fp	PTR struct _IO_FILE size(1) Largest target is 0
		 -> NULL(NULL[0]), 

    vfprintf@ap	PTR PTR void  size(1) Largest target is 1
		 -> printf@ap(BANK0[1]), 

    vfprintf@cfmt	PTR unsigned char  size(1) Largest target is 119
		 -> STR_1(CODE[119]), STR_2(CODE[11]), 

    vfprintf@fmt	PTR const unsigned char  size(1) Largest target is 119
		 -> STR_1(CODE[119]), STR_2(CODE[11]), 

    vfprintf@fp	PTR struct _IO_FILE size(1) Largest target is 0
		 -> NULL(NULL[0]), 


Critical Paths under _main in COMMON

    None.

Critical Paths under _interrupt_manager in COMMON

    None.

Critical Paths under _main in BANK0

    _main->_printf
    _set_leds->_spi_write_read
    _set_PWM->___fltol
    _send_frame->_uart_write
    _printf->_vfprintf
    _vfprintf->_vfpfcnvrt
    _vfpfcnvrt->_efgtoa
    _efgtoa->___flge
    _pad->_fputs
    _fputs->_fputc
    _fputc->_putch
    _floorf->___fldiv
    ___flsub->___flmul
    ___flge->___flmul
    _abs->___awmod
    _init_PWM->___fltol
    ___fltol->___flmul
    ___flmul->___xxtofl

Critical Paths under _interrupt_manager in BANK0

    None.

Critical Paths under _main in BANK1

    _main->_printf
    _printf->_vfprintf
    _vfprintf->_vfpfcnvrt
    _vfpfcnvrt->_efgtoa

Critical Paths under _interrupt_manager in BANK1

    None.

Critical Paths under _main in BANK3

    None.

Critical Paths under _interrupt_manager in BANK3

    None.

Critical Paths under _main in BANK2

    None.

Critical Paths under _interrupt_manager in BANK2

    None.

Call Graph Tables:

 ---------------------------------------------------------------------------------
 (Depth) Function   	        Calls       Base Space   Used Autos Params    Refs
 ---------------------------------------------------------------------------------
 (0) _main                                                44    44      0   21457
                                             73 BANK0      3     3      0
                                              0 BANK3     30    30      0
                            ___flmul
                            ___fltol
                           _init_ADC
                           _init_PWM
                          _init_TMR0
                             _printf
                         _send_frame
                            _set_PWM
                           _set_leds
                          _uart_init
 ---------------------------------------------------------------------------------
 (1) _uart_init                                            0     0      0       0
 ---------------------------------------------------------------------------------
 (1) _set_leds                                            10     2      8     288
                                              4 BANK0     10     2      8
                     _spi_write_read
 ---------------------------------------------------------------------------------
 (2) _spi_write_read                                       4     4      0     150
                                              0 BANK0      4     4      0
 ---------------------------------------------------------------------------------
 (1) _set_PWM                                             10     4      6    2548
                                             50 BANK0     10     4      6
                            ___aldiv
                            ___flmul
                            ___fltol
                           ___xxtofl
 ---------------------------------------------------------------------------------
 (1) _send_frame                                           8     6      2     183
                                              2 BANK0      8     6      2
                         _uart_write
 ---------------------------------------------------------------------------------
 (2) _uart_write                                           2     0      2      28
                                              0 BANK0      2     0      2
 ---------------------------------------------------------------------------------
 (1) _printf                                              26     3     23   13070
                                             72 BANK0      1     1      0
                                             50 BANK1     23     0     23
                           _vfprintf
 ---------------------------------------------------------------------------------
 (2) _vfprintf                                             4     1      3   13010
                                             71 BANK0      1     1      0
                                             47 BANK1      3     0      3
                          _vfpfcnvrt
 ---------------------------------------------------------------------------------
 (3) _vfpfcnvrt                                           12     9      3   12882
                                             62 BANK0      9     9      0
                                             44 BANK1      3     0      3
                            ___awdiv
                            ___awmod
                                _abs
                             _efgtoa
                              _fputc
 ---------------------------------------------------------------------------------
 (4) _efgtoa                                              55    49      6   11122
                                             52 BANK0     10     4      6
                                              0 BANK1     44    44      0
                            ___fladd
                            ___fldiv
                             ___fleq
                             ___flge
                            ___flmul
                            ___flneg
                            ___flsub
                            ___fltol
                      ___fpclassifyf
                             _floorf
                               _labs
                             _memcpy
                                _pad
                             _strcpy
 ---------------------------------------------------------------------------------
 (6) _strcpy                                               3     1      2      77
                                              0 BANK0      3     1      2
 ---------------------------------------------------------------------------------
 (5) _pad                                                  7     3      4     769
                                             16 BANK0      7     3      4
                              _fputc
                              _fputs
 ---------------------------------------------------------------------------------
 (6) _fputs                                                7     5      2     362
                                              9 BANK0      7     5      2
                              _fputc
 ---------------------------------------------------------------------------------
 (7) _fputc                                                8     5      3     263
                                              1 BANK0      8     5      3
                              _putch
 ---------------------------------------------------------------------------------
 (8) _putch                                                1     1      0      29
                                              0 BANK0      1     1      0
 ---------------------------------------------------------------------------------
 (5) _memcpy                                               7     3      4     146
                                              0 BANK0      7     3      4
 ---------------------------------------------------------------------------------
 (5) _labs                                                 4     0      4      69
                                              0 BANK0      4     0      4
 ---------------------------------------------------------------------------------
 (5) _floorf                                              20    16      4     340
                                             26 BANK0     20    16      4
                            ___fldiv (ARG)
 ---------------------------------------------------------------------------------
 (5) ___fpclassifyf                                       16    12      4     137
                                              0 BANK0     16    12      4
 ---------------------------------------------------------------------------------
 (5) ___flsub                                              8     0      8    2039
                                             40 BANK0      8     0      8
                            ___fladd
                            ___flmul (ARG)
 ---------------------------------------------------------------------------------
 (6) ___fladd                                             20    12      8    1990
                                              0 BANK0     20    12      8
 ---------------------------------------------------------------------------------
 (5) ___flneg                                              4     0      4      46
                                              0 BANK0      4     0      4
 ---------------------------------------------------------------------------------
 (5) ___flge                                              12     4      8     192
                                             40 BANK0     12     4      8
                            ___flmul (ARG)
 ---------------------------------------------------------------------------------
 (5) ___fleq                                              12     4      8      94
                                              0 BANK0     12     4      8
 ---------------------------------------------------------------------------------
 (5) ___fldiv                                             26    18      8    1132
                                              0 BANK0     26    18      8
 ---------------------------------------------------------------------------------
 (4) _abs                                                  4     2      2      67
                                              6 BANK0      4     2      2
                            ___awmod (ARG)
 ---------------------------------------------------------------------------------
 (4) ___awmod                                              6     2      4     298
                                              0 BANK0      6     2      4
 ---------------------------------------------------------------------------------
 (4) ___awdiv                                              8     4      4     302
                                              0 BANK0      8     4      4
 ---------------------------------------------------------------------------------
 (1) _init_TMR0                                            0     0      0       0
 ---------------------------------------------------------------------------------
 (1) _init_PWM                                            10     4      6    2548
                                             50 BANK0     10     4      6
                            ___aldiv
                            ___flmul
                            ___fltol
                           ___xxtofl
 ---------------------------------------------------------------------------------
 (2) ___xxtofl                                            14    10      4     338
                                              0 BANK0     14    10      4
 ---------------------------------------------------------------------------------
 (5) ___fltol                                             10     6      4     236
                                             40 BANK0     10     6      4
                            ___flmul (ARG)
                           ___xxtofl (ARG)
 ---------------------------------------------------------------------------------
 (5) ___flmul                                             26    18      8    1624
                                             14 BANK0     26    18      8
                          __Umul8_16
                           ___xxtofl (ARG)
 ---------------------------------------------------------------------------------
 (6) __Umul8_16                                            9     7      2     139
                                              0 BANK0      9     7      2
 ---------------------------------------------------------------------------------
 (2) ___aldiv                                             15     7      8     304
                                              0 BANK0     15     7      8
 ---------------------------------------------------------------------------------
 (1) _init_ADC                                             0     0      0       0
 ---------------------------------------------------------------------------------
 Estimated maximum stack depth 8
 ---------------------------------------------------------------------------------
 (Depth) Function   	        Calls       Base Space   Used Autos Params    Refs
 ---------------------------------------------------------------------------------
 (9) _interrupt_manager                                    7     7      0      23
                                              0 COMMON     7     7      0
 ---------------------------------------------------------------------------------
 Estimated maximum stack depth 9
 ---------------------------------------------------------------------------------

 Call Graph Graphs:

 _main (ROOT)
   ___flmul
     __Umul8_16
     ___xxtofl (ARG)
   ___fltol
     ___flmul (ARG)
     ___xxtofl (ARG)
   _init_ADC
   _init_PWM
     ___aldiv
     ___flmul
     ___fltol
     ___xxtofl
   _init_TMR0
   _printf
     _vfprintf
       _vfpfcnvrt
         ___awdiv
         ___awmod
         _abs
           ___awmod (ARG)
         _efgtoa
           ___fladd
           ___fldiv
           ___fleq
           ___flge
             ___flmul (ARG)
           ___flmul
           ___flneg
           ___flsub
             ___fladd
             ___flmul (ARG)
           ___fltol
           ___fpclassifyf
           _floorf
             ___fldiv (ARG)
           _labs
           _memcpy
           _pad
             _fputc
               _putch
             _fputs
               _fputc
           _strcpy
         _fputc
   _send_frame
     _uart_write
   _set_PWM
     ___aldiv
     ___flmul
     ___fltol
     ___xxtofl
   _set_leds
     _spi_write_read
   _uart_init

 _interrupt_manager (ROOT)

Address spaces:
Name               Size   Autos  Total    Usage
BITCOMMON           14      0       0      0.0%
BITBANK0            80      0       0      0.0%
BITBANK1            80      0       0      0.0%
BITBANK3            96      0       0      0.0%
BITBANK2            96      0       0      0.0%
COMMON              14      7      14    100.0%
BANK0               80     76      79     98.8%
BANK1               80     73      77     96.2%
BANK3               96     30      50     52.1%
BANK2               96      0      80     83.3%
STACK                0      0       0      0.0%
DATA                 0      0     300      0.0%


Microchip Technology PIC Macro Assembler V3.10 build 20250813170317 
Symbol Table                                                                                   Sat Dec 13 19:08:43 2025

             ___fldiv@aexp 0039               ___fldiv@bexp 0038                          pc 0002  
             ___fldiv@sign 0031                         l13 1ED9                         l16 1D13  
                       l42 1964                         l45 196A                         l55 1958  
                       l39 19FA                         l64 1D7E                         l81 07FF  
                       l58 1960               ___awdiv@sign 0025                         fsr 0004  
      __Umul8_16@word_mpld 0026                        l120 0834                        l221 1DE9  
                      l119 082D                        l231 175F                        l208 1986  
                      l502 1090                        l511 1977                        l522 1E4A  
                      l515 1E5F                        l507 10A9                        l700 1315  
                      l525 1E5F                        l702 1321                        l622 1387  
                      l617 1356                        l386 1F7B                        l730 0C7B  
                      l474 1CAA                        l490 1B13                        l626 1406  
                      l491 1B2F                        l643 14CC                        l635 1579  
                      l396 1FFF                        l724 0BF7                        l628 13E1  
                      l653 1513                        l813 1AC3                        l718 0C85  
                      l487 1C45                        l647 14F0                        l680 1329  
                      l496 1B44                        l664 156F                        l656 154F  
                      l737 1A7F                        l665 1579                        l817 1AF4  
                      l825 0D1A                        l762 10CE                        l930 0943  
                      l906 1A68                        l739 1A91                        l763 10DF  
                      l499 1024                        l764 115F                        l924 19AA  
                      l668 1A41                        l916 1F66                        l844 008A  
                      l828 0649                        l694 12A3                        l678 11B5  
                      l934 093B                        l950 1A1D                        l854 03CD  
                      l775 1129                        l776 1135                        l768 110D  
                      l944 19C1                        l784 1997                        l929 0882  
                      l962 1BEC                        l970 1ABA                        l947 1A0F  
                      l884 07E0                        l976 19DC                        l889 0735  
                      _PR2 0092                        _abs 1998                        _pad 1ABB  
                      fsr0 0004                        indf 0000               ___awmod@sign 0025  
           send_frame@data 0023               ___flmul@aexp 0040               ___flmul@bexp 0041  
             ___flmul@sign 003B               ___flmul@temp 0046               ___flmul@prod 0042  
             ___fltol@exp1 0051                       ?_abs 0026                       l3000 095D  
                     l3010 0976                       l3002 0965                       l3100 0C0F  
                     l3020 098D                       l3012 097A                       l3004 0967  
                     l3110 0C4A                       l3102 0C13                       l3022 098F  
                     l3014 097B                       l3006 096F                       l3120 0C75  
                     l3112 0C59                       l3104 0C2C                       l3040 09FC  
                     l3032 09AA                       l3024 0997                       l3016 0980  
                     l3008 0972                       l3200 091A                       l4000 16B2  
                     l3122 0C76                       l3114 0C63                       l3106 0C32  
                     l3050 0A75                       l3042 0A26                       l3034 09B8  
                     l3026 099C                       l3018 0985                       l3202 0933  
                     l3210 1A07                       l3130 1AC1                       l4010 170A  
                     l4002 16BE                       l3124 0C7D                       l3116 0C65  
                     l3108 0C3F                       l3060 0AF1                       l3052 0A92  
                     l3044 0A42                       l3036 09C5                       l3028 09A1  
                     l3220 1C52                       l3140 1EDA                       l3212 1A09  
                     l3132 1AC6                       l3300 0CA1                       l4020 1720  
                     l4012 170C                       l4004 16F8                       l3118 0C71  
                     l3070 0BA3                       l3062 0B1C                       l3054 0AA0  
                     l3046 0A5E                       l3038 09E0                       l3230 1C61  
                     l3222 1C54                       l3214 1C46                       l3150 1F35  
                     l3142 1EFA                       l3206 19FB                       l3134 1AD3  
                     l3310 0D07                       l3302 0CC8                       l4030 173A  
                     l4022 172C                       l4014 170E                       l4006 16FA  
                     l3080 0BC8                       l3072 0BAC                       l3064 0B2A  
                     l3056 0ABD                       l3048 0A67                       l3240 1C77  
                     l3232 1C67                       l3224 1C58                       l3216 1C49  
                     l2600 139D                       l3160 1F62                       l3144 1F11  
                     l3208 1A02                       l3136 1ADB                       l3128 1ABB  
                     l3400 00BE                       l3320 0D3F                       l3312 0D0C  
                     l3304 0CCC                       l4040 177D                       l4032 1747  
                     l4016 1710                       l4008 1706                       l4024 1730  
                     l3090 0BE0                       l3082 0BD1                       l3074 0BBA  
                     l3066 0B55                       l3058 0AD4                       l3242 1C88  
                     l3234 1C6A                       l3250 1C9C                       l3226 1C5D  
                     l3218 1C4D                       l2610 13A7                       l2602 139F  
                     l3146 1F17                       l3154 1F3A                       l3170 19B1  
                     l2522 1964                       l2530 1BA2                       l3138 1AE9  
                     l3410 01FB                       l3402 00C7                       l3322 0D46  
                     l3314 0D11                       l3306 0CFF                       l4050 17ED  
                     l4042 1781                       l4034 174B                       l4026 1736  
                     l4018 171C                       l3092 0BF4                       l3076 0BC3  
                     l3084 0BD7                       l3068 0B7B                       l3252 1CA1  
                     l3244 1C8E                       l3236 1C71                       l3228 1C5F  
                     l3260 1BF0                       l2700 1505                       l2612 13A9  
                     l2604 13A1                       l2620 13B1                       l2540 132A  
                     l3156 1F40                       l3148 1F30                       l3180 0874  
                     l3172 19B2                       l2524 1968                       l2532 1BA9  
                     l3164 19C2                       l3500 0616                       l3420 0298  
                     l3404 0123                       l3412 0201                       l3324 0D56  
                     l3332 0D84                       l3316 0D16                       l3308 0D03  
                     l4036 175A                       l4028 1736                       l4044 178D  
                     l3086 0BDB                       l3078 0BC7                       l3254 1CA6  
                     l3246 1C8F                       l3238 1C73                       l3270 1C04  
                     l3262 1BF4                       l3510 1998                       l2710 1518  
                     l2702 1506                       l2630 13EE                       l2622 13B2  
                     l2614 13AB                       l2606 13A3                       l2550 1339  
                     l2542 132E                       l3190 08B7                       l3182 0881  
                     l2534 1BB8                       l2526 1B96                       l3166 19C6  
                     l3502 061B                       l3430 037A                       l3422 02D1  
                     l3414 0217                       l3406 014A                       l3350 0DD9  
                     l3334 0DA9                       l3326 0D62                       l3318 0D1C  
                     l4046 17B0                       l4038 1763                       l3096 0BFC  
                     l3088 0BDC                       l2800 1DEA                       l3248 1C96  
                     l3280 1C1A                       l3272 1C0A                       l3264 1BF9  
                     l3512 199E                       l2720 1554                       l2712 151D  
                     l2704 150A                       l2640 140A                       l2632 13F2  
                     l2624 13C9                       l2616 13AD                       l2608 13A5  
                     l2552 133E                       l2560 134E                       l2544 1330  
                     l3192 08D0                       l3184 0888                       l3176 0835  
                     l3168 19AB                       l2536 1BD5                       l2528 1B9D  
                     l3504 0627                       l3440 03DC                       l3432 0382  
                     l3424 02D7                       l3416 0256                       l3408 01BC  
                     l3360 0EB2                       l3336 0DB0                       l3328 0D6A  
                     l3520 065B                       l4048 17E5                       l3098 0C01  
                     l2810 1E12                       l2802 1DF5                       l3290 1C3C  
                     l3282 1C24                       l3274 1C0D                       l3266 1BFB  
                     l3258 1BED                       l3514 199F                       l2730 156B  
                     l2722 1559                       l2714 152B                       l2706 1510  
                     l2650 1433                       l2642 140F                       l2634 13F3  
                     l2626 13E5                       l2618 13AF                       l2570 1365  
                     l2562 1358                       l2554 1343                       l2546 1334  
                     l3194 08E7                       l3186 08A2                       l3178 0855  
                     l3506 062D                       l3450 0497                       l3442 03DE  
                     l3434 03C1                       l3426 02DF                       l3418 028D  
                     l3370 0F9F                       l3362 0EEB                       l3354 0E03  
                     l3338 0DC0                       l3346 0DCD                       l3530 067D  
                     l3522 065F                       l3602 1958                       l2740 1A6E  
                     l2812 1E1A                       l3700 1156                       l3292 1C41  
                     l3284 1C2A                       l3276 1C14                       l3268 1BFF  
                     l2900 11F4                       l2732 156D                       l2724 1561  
                     l2716 152F                       l2660 1445                       l2652 1437  
                     l2636 13FC                       l2628 13EC                       l2580 137C  
                     l2572 1369                       l2564 135A                       l2556 134B  
                     l2548 1338                       l3196 08F8                       l3460 04B2  
                     l3452 049C                       l3444 03E1                       l3436 03C7  
                     l3428 032C                       l3380 0081                       l3364 0F4F  
                     l3356 0E13                       l3348 0DD7                       l3540 06AC  
                     l3532 0689                       l3524 0665                       l3604 195E  
                     l3620 0823                       l3630 1F7F                       l2742 1A75  
                     l2830 1E3F                       l2822 1E28                       l2814 1E1C  
                     l2806 1DFE                       l3702 1157                       l3286 1C31  
                     l3278 1C16                       l2910 1213                       l2902 11FC  
                     l2734 1574                       l2726 1566                       l2718 154D  
                     l2670 14A7                       l2662 144E                       l2654 143E  
                     l2646 1418                       l2638 13FE                       l2590 1393  
                     l2582 137D                       l2574 136A                       l2566 1360  
                     l2558 134C                       l3198 0911                       l3462 04B5  
                     l3454 04A0                       l3470 04CD                       l3446 0467  
                     l3438 03DB                       l3390 00A6                       l3382 0086  
                     l3366 0F5A                       l3374 003A                       l3358 0E52  
                     l3550 06F2                       l3542 06CF                       l3534 069A  
                     l3526 066B                       l3518 064A                       l3710 1A56  
                     l3622 0829                       l3614 0807                       l3606 0804  
                     l3640 1F9F                       l3632 1F8A                       l3624 1F67  
                     l2744 1A79                       l2832 1E4F                       l2816 1E20  
                     l2824 1E38                       l2808 1E11                       l3720 1E8D  
                     l3800 1981                       l3288 1C37                       l2920 1245  
                     l2912 1225                       l2904 1204                       l2760 1AF5  
                     l2736 1578                       l2728 1567                       l2680 14D9  
                     l2672 14AA                       l2656 1440                       l2648 142F  
                     l2664 1451                       l2592 1395                       l2576 136F  
                     l2584 137F                       l2568 1361                       l2752 1A92  
                     l3480 0558                       l3472 04D3                       l3464 04BB  
                     l3456 04A6                       l3448 0491                       l3392 00A8  
                     l3384 0094                       l3368 0F99                       l3376 0075  
                     l3296 0C86                       l3552 06F7                       l3544 06E2  
                     l3536 06A3                       l3560 0721                       l3528 0671  
                     l3712 1A64                       l3616 081C                       l3608 0805  
                     l3650 1FD7                       l3642 1FAA                       l3634 1F8C  
                     l3626 1F6A                       l2746 1A88                       l2738 1A6C  
                     l2834 1E54                       l3722 1E8E                       l3802 1982  
                     l2930 1264                       l2922 1246                       l2914 1229  
                     l2906 120C                       l2850 116E                       l2842 1160  
                     l2762 1B0B                       l2690 14F4                       l2674 14AF  
                     l2666 1467                       l2658 1444                       l2594 1397  
                     l2586 138D                       l2578 1374                       l2754 1A97  
                     l3490 05C8                       l3482 0597                       l3474 04DA  
                     l3466 04C1                       l3458 04AC                       l3394 00AE  
                     l3386 009A                       l3378 007D                       l3298 0C89  
                     l3570 073A                       l3562 0729                       l3554 0700  
                     l3546 06E8                       l3538 06A5                       l3706 1A42  
                     l3730 1CAB                       l3618 0822                       l3660 1FF7  
                     l3652 1FD8                       l3644 1FAE                       l3636 1F94  
                     l3628 1F6E                       l2748 1A8D                       l3724 1E91  
                     l3716 1E60                       l2940 127D                       l2932 1266  
                     l2924 1254                       l2916 122A                       l2908 120E  
                     l2860 1182                       l2852 116F                       l2844 1164  
                     l2764 1B27                       l2780 1044                       l2772 1006  
                     l2692 14F8                       l2684 14E2                       l2668 14A5  
                     l2676 14BE                       l2596 1399                       l2588 1391  
                     l2836 1A1E                       l2756 1AA5                       l3492 05CE  
                     l3484 059D                       l3476 04E0                       l3468 04C7  
                     l3388 009E                       l3396 00B4                       l3580 0782  
                     l3572 0745                       l3564 0732                       l3556 0716  
                     l3548 06ED                       l3708 1A49                       l3820 1987  
                     l3732 1CD4                       l3812 1D9B                       l3804 1D7F  
                     l3740 19E8                       l3654 1FE1                       l3646 1FB7  
                     l3638 1F9C                       l3670 10C6                       l3726 1E92  
                     l3718 1E89                       l2950 12A0                       l2934 126F  
                     l2942 1283                       l2918 1233                       l2926 1256  
                     l2870 1197                       l2854 1174                       l2862 1184  
                     l2846 1166                       l2766 1B41                       l2782 1068  
                     l2774 101C                       l2694 14FA                       l2686 14EB  
                     l2678 14D4                       l2598 139B                       l2838 1A22  
                     l2758 1AAD                       l3494 05D3                       l3478 04E6  
                     l3486 05A3                       l3398 00B6                       l3590 07B0  
                     l3582 078A                       l3574 0752                       l3566 0738  
                     l3558 071A                       l3822 198B                       l3814 1DBC  
                     l3806 1D97                       l3750 19F1                       l3742 19E9  
                     l3734 19DD                       ?_pad 0030                       l3648 1FC9  
                     l3656 1FE7                       l3680 10F4                       l3672 10D6  
                     l3664 10AD                       l3728 1E98                       l2960 12BF  
                     l2944 1287                       l2936 1273                       l2928 125C  
                     l2880 11AB                       l2872 1198                       l2864 118C  
                     l2856 1179                       l2848 116A                       l2768 1B43  
                     l2784 106C                       l2776 1038                       l2792 196B  
                     l2696 14FF                       l2688 14EF                       l3496 05F7  
                     l3488 05B9                       l3584 0794                       l3576 076A  
                     l3592 07BB                       l3760 1D41                       l3816 1DC4  
                     l3752 19F4                       l3744 19EA                       l3736 19E3  
                     l3770 07E5                       l3658 1FEC                       l3690 1123  
                     l3682 10F6                       l3666 10B2                       l2970 1308  
                     l2962 12D8                       l2954 12A8                       l2946 1288  
                     l2938 1274                       l2874 119D                       l2882 11AD  
                     l2866 118F                       l2858 1181                       l2786 10A6  
                     l2778 1040                       l2794 1975                       l2698 1501  
                     l3498 0601                       l3762 1D55                       l3818 1DD1  
                     l3754 19F7                       l3746 19ED                       l3738 19E6  
                     l3780 07EF                       l3772 07E6                       l3692 112D  
                     l3684 1104                       l3676 10E2                       l3668 10B6  
                     l2980 131F                       l2972 130C                       l2956 12AD  
                     l2964 12DE                       l2948 128C                       l2884 11BD  
                     l2892 11D4                       l2876 11A2                       l2868 1193  
                     l2788 10A8                       l2796 1977                       l3596 07C3  
                     l3764 1D5D                       l3756 1D17                       l3748 19F0  
                     l3790 07F9                       l3782 07F3                       l3774 07E9  
                     l2990 094A                       l3694 1137                       l3686 1114  
                     l3678 10ED                       l2974 1314                       l2966 12EB  
                     l2958 12BB                       l2894 11D9                       l2886 11C9  
                     l2878 11AA                       l3766 1D6A                       l3758 1D3C  
                     l3792 07FC                       l3784 07F4                       l3776 07EA  
                     l3768 07E1                       l2992 094E                       l3696 114D  
                     l3688 111F                       l2976 1319                       l2968 12F9  
                     l2888 11CB                       l3960 158A                       l3952 157A  
                     l3786 07F7                       l3778 07EB                       l2994 0952  
                     l2986 0944                       l3698 1152                       l3794 1978  
                     l2978 131D                       l2898 11E2                       l3970 159A  
                     l3962 1590                       l3954 1584                       l3788 07F8  
                     l2996 0953                       l2988 0948                       l3796 197C  
                     l3980 165D                       l3972 15BD                       l3964 1593  
                     l3956 1586                       l2998 0958                       l3798 1980  
                     l3990 169A                       l3982 1686                       l3974 15C2  
                     l3966 1598                       l3958 1588                       l3992 169C  
                     l3984 1688                       l3976 15C7                       l3968 1599  
                     l3994 16A8                       l3986 168A                       l3978 15D0  
                     l3996 16AE                       l3988 1696                       l3998 16B0  
          spi_write_read@x 0023                       STR_1 1806                       STR_2 187D  
                     STR_3 1888                       STR_6 188C                       u3000 13E5  
                     u3001 13E4                       u3010 13F2                       u3011 13F1  
                     u3110 1467                       u3030 1406                       u3111 1466  
                     u3031 1405                       u3200 14FF                       u3040 140A  
                     u3201 14FE                       u3121 147E                       u3113 1463  
                     u3105 1447                       u3041 1409                       u3025 13F5  
                     u3210 1505                       u3130 1492                       u3122 147F  
                     u3050 140F                       u4011 0A84                       u3211 1504  
                     u3131 1493                       u3123 1484                       u3051 140E  
                     u4012 0A8B                       u3300 1559                       u3220 150A  
                     u3140 14AF                       u3132 1498                       u3124 1485  
                     u4101 0B95                       u4021 0AAF                       u4013 0A92  
                     u4005 0A60                       u3301 1558                       u3221 1509  
                     u3141 14AE                       u3133 1499                       u3125 148A  
                     u3061 1421                       u4102 0B9C                       u4022 0AB6  
                     u3310 1566                       u3230 1510                       u3150 14D4  
                     u3126 148B                       u3070 1433                       u3062 1428  
                     u4103 0BA3                       u4023 0ABD                       u3311 1565  
                     u3231 150F                       u3151 14D3                       u3071 1432  
                     u3063 142F                       u4200 0C13                       u3400 1B41  
                     u3320 156B                       u3240 1517                       u3160 14D9  
                     u3080 1437                       u5000 05C8                       u4201 0C12  
                     u4041 0AE3                       u3401 1B40                       u3321 156A  
                     u3241 1516                       u3161 14D8                       u3081 1436  
                     u5001 05C7                       u4210 0C22                       u4130 0BC7  
                     u4042 0AEA                       u3410 101C                       u3330 1578  
                     u3250 151D                       u3090 1444                       u5010 0607  
                     u4131 0BC6                       u4115 0BA5                       u4051 0B0E  
                     u4043 0AF1                       u4035 0ABF                       u3411 101B  
                     u3331 1577                       u3251 151C                       u3091 1443  
                     u5011 0605                       u3340 1A79                       u4220 0C3F  
                     u4052 0B15                       u3500 1E0C                       u3420 1038  
                     u3260 152F                       u3180 14EF                       u4300 1F30  
                     u5020 0608                       u5100 06E8                       u3341 1A78  
                     u4221 0C3E                       u4125 0BBC                       u4061 0B39  
                     u4053 0B1C                       u3405 1B3D                       u3421 1037  
                     u3261 152E                       u3181 14EE                       u4301 1F2F  
                     u5005 05C4                       u5101 06E7                       u4230 0C59  
                     u4150 0BDB                       u4070 0B61                       u4062 0B40  
                     u3510 1E20                       u3430 1044                       u3270 153E  
                     u3190 14F4                       u4310 1F40                       u5030 061B  
                     u5110 06ED                       u4231 0C58                       u4215 0C1D  
                     u4151 0BDA                       u4063 0B47                       u3511 1E1F  
                     u3431 1043                       u3191 14F3                       u3175 14E4  
                     u4311 1F3F                       u5031 061A                       u5111 06EC  
                     u3360 1A8D                       u4240 0C75                       u4160 0BE0  
                     u3520 1E27                       u5040 199E                       u3600 1174  
                     u3280 154D                       u4320 1F4E                       u4400 0898  
                     u5120 06F2                       u5200 0829                       u3361 1A8C  
                     u4241 0C74                       u4225 0C3B                       u4161 0BDF  
                     u4145 0BCA                       u4081 0B6D                       u3521 1E26  
                     u3505 1E07                       u5041 199D                       u3601 1173  
                     u3441 1053                       u3281 154C                       u5121 06F1  
                     u5201 0828                       u4170 0BF4                       u4090 0B89  
                     u4082 0B74                       u3610 1179                       u3450 106C  
                     u3442 1054                       u3290 1554                       u4330 1F5A  
                     u4410 08B6                       u3370 1ABA                       u4250 1AC1  
                     u5130 06F7                       u5050 065B                       u5210 0834  
                     u3355 1A80                       u4235 0C55                       u4171 0BF3  
                     u4083 0B7B                       u4075 0B5C                       u3611 1178  
                     u3451 106B                       u3443 1059                       u3291 1553  
                     u3275 1539                       u4331 1F58                       u4411 08B5  
                     u3371 1AB9                       u4251 1AC0                       u5131 06F6  
                     u5051 065A                       u5211 0833                       u5300 1FE7  
                     u5220 1F6E                       u4180 0BFB                       u3540 1E37  
                     u4500 1C4D                       u3700 1229                       u3620 1197  
                     u3380 1B0B                       u3444 105A                       u2900 1343  
                     u4340 1F5B                       u4420 08C5                       u4260 1AE9  
                     u5140 0720                       u5060 067D                       u5301 1FE6  
                     u5221 1F6D                       u4181 0BFA                       u3541 1E36  
                     u4501 1C4C                       u3701 1228                       u3621 1196  
                     u3381 1B0A                       u3461 107B                       u3445 105F  
                     u2901 1342                       u4325 1F49                       u4405 0893  
                     u4261 1AE8                       u5141 071F                       u5061 067C  
                     u5310 1FEC                       u5230 1F7F                       u4190 0C01  
                     u3550 1E3E                       u4510 1C58                       u3630 119D  
                     u3390 1B27                       u3470 10A6                       u3462 107C  
                     u3446 1060                       u2910 1360                       u4270 1F08  
                     u4430 08D0                       u2830 1968                       u4350 19DC  
                     u5150 0751                       u5070 0689                       u5311 1FEB  
                     u5231 1F7E                       u4191 0C00                       u4095 0B84  
                     u3551 1E3D                       u3535 1E29                       u4511 1C57  
                     u3631 119C                       u3391 1B26                       u3471 10A5  
                     u3463 1081                       u2911 135F                       u4431 08CF  
                     u2831 1967                       u4351 19DB                       u5151 0750  
                     u5071 0688                       u5240 1F9C                       u5400 1123  
                     u5320 10B2                       u4520 1C67                       u4600 1BF4  
                     u3800 12A0                       u3720 1245                       u3640 11A2  
                     u3464 1082                       u3480 1975                       u2920 1369  
                     u4280 1F17                       u4360 19B1                       u2840 1B9D  
                     u5080 06AA                       u5160 195E                       u5241 1F9B  
                     u5401 1122                       u5321 10B1                       u4521 1C66  
                     u4601 1BF3                       u3801 129F                       u3721 1244  
                     u3641 11A1                       u3465 1087                       u3481 1974  
                     u2921 1368                       u4281 1F16                       u4441 08D9  
                     u4425 08C0                       u4361 19B0                       u2841 1B9C  
                     u4265 1AE5                       u5081 06A8                       u5161 195D  
                     u3570 1E4F                       u3490 1DF5                       u5410 1129  
                     u5330 10B6                       u4610 1BFF                       u3810 12A7  
                     u3730 125C                       u3650 11BD                       u3466 1088  
                     u2930 136F                       u4290 1F25                       u4450 0906  
                     u4442 08E0                       u4370 0863                       u2850 1BA2  
                     u5090 06AB                       u3571 1E4E                       u3491 1DF4  
                     u5411 1128                       u5331 10B5                       u4611 1BFE  
                     u3811 12A6                       u3731 125B                       u3715 122C  
                     u3651 11BC                       u3475 10A2                       u2931 136E  
                     u4275 1F03                       u4443 08E7                       u2851 1BA1  
                     u5260 1FAE                       u3900 095D                       u3580 1E54  
                     u5420 112D                       u5340 10D6                       u4540 1C77  
                     u4620 1C0A                       u3820 12AD                       u3740 1264  
                     u3660 11D9                       u2940 1374                       u4460 0911  
                     u4380 0881                       u2860 1BB8                       u4700 0D0C  
                     u5180 0819                       u5261 1FAD                       u3901 095C  
                     u3581 1E53                       u3565 1E41                       u5421 112C  
                     u5341 10D5                       u4541 1C76                       u4621 1C09  
                     u3821 12AC                       u3741 1263                       u3725 1241  
                     u3661 11D8                       u2941 1373                       u4461 0910  
                     u4381 0880                       u2861 1BB7                       u4701 0D0B  
                     u5181 0815                       u3910 097A                       u5430 1142  
                     u3830 12BF                       u3670 1213                       u3590 116E  
                     u2950 138D                       u4470 0928                       u4390 0888  
                     u2870 1BD5                       u4710 0D11                       u5174 080F  
                     u5255 1FA1                       u3911 0979                       u4535 1C6B  
                     u3831 12BE                       u3671 1212                       u3591 116D  
                     u2951 138C                       u4295 1F20                       u4455 0901  
                     u4391 0887                       u4375 085E                       u2871 1BD4  
                     u4711 0D10                       u5175 080D                       u5280 1FC9  
                     u3920 0980                       u5440 1152                       u5360 10F3  
                     u4560 1C88                       u4640 1C1A                       u3840 12CE  
                     u3760 1273                       u2960 1391                       u2880 1338  
                     u4480 0933                       u4720 0D3F                       u5600 1747  
                     u5281 1FC8                       u3921 097F                       u5441 1151  
                     u5361 10F2                       u4561 1C87                       u4641 1C19  
                     u3761 1272                       u2961 1390                       u2881 1337  
                     u4481 0932                       u4385 087D                       u4801 0F10  
                     u4721 0D3E                       u5601 1746                       u3930 0985  
                     u5450 1156                       u4650 1C24                       u3850 12EB  
                     u2970 13C9                       u2890 133E                       u4490 1A1D  
                     u4810 0F4F                       u4802 0F13                       u4730 0D46  
                     u5194 081C                       u5610 175A                       u5275 1FB0  
                     u3931 0984                       u5451 1155                       u5435 113D  
                     u5355 10E5                       u4555 1C78                       u4651 1C23  
                     u4635 1C0E                       u3851 12EA                       u3755 1268  
                     u2971 13C8                       u2891 133D                       u4475 0923  
                     u4491 1A1C                       u2875 1BD1                       u4811 0F4C  
                     u4803 0F1A                       u4731 0D45                       u5611 1759  
                     u3940 099C                       u5380 1113                       u4580 1C9C  
                     u3860 1308                       u3780 1287                       u2980 13D4  
                     u4900 028D                       u4804 0F1D                       u4740 0DA9  
                     u5460 1A64                       u5285 1FC5                       u3941 099B  
                     u5381 1112                       u4581 1C9B                       u4565 1C84  
                     u3861 1307                       u3845 12C9                       u3781 1286  
                     u3685 1215                       u2981 13D2                       u4901 028C  
                     u4821 0FC2                       u4813 0F49                       u4805 0F24  
                     u4741 0DA8                       u5461 1A63                       u5605 1743  
                     u3950 09A1                       u4590 1CA1                       u4670 1C37  
                     u3870 131D                       u3790 128C                       u2990 13D5  
                     u4910 02D1                       u4830 0FFF                       u4822 0FC5  
                     u4806 0F27                       u4750 0DB0                       u5470 1D6A  
                     u5295 1FD9                       u3951 09A0                       u5375 1105  
                     u4591 1CA0                       u4575 1C90                       u4671 1C36  
                     u4655 1C20                       u3871 131C                       u3855 12E7  
                     u3791 128B                       u3775 1276                       u3695 121E  
                     u2975 13C5                       u4911 02D0                       u4831 0FFE  
                     u4823 0FCC                       u4751 0DAF                       u5471 1D69  
                     u5615 1756                       u3880 0952                       u4680 1C3C  
                     u4920 02D7                       u4840 0075                       u4824 0FCF  
                     u4760 0E02                       u5480 1DD1                       u3961 09EE  
                     u3881 0951                       u4681 1C3B                       u4665 1C2B  
                     u3865 1304                       u4921 02D6                       u4841 0072  
                     u4833 0FFB                       u4825 0FD6                       u4761 0DFF  
                     u5481 1DD0                       u3962 09F5                       u3890 0958  
                     u4930 037A                       u4850 0081                       u4826 0FD9  
                     u4690 0CC8                       u3971 0A0A                       u3963 09FC  
                     u3891 0957                       u5395 1118                       u4931 0379  
                     u4851 0080                       u4771 0E75                       u4691 0CC7  
                     u5475 1D66                       u5627 17F5                       u3972 0A11  
                     u4940 03C7                       u4860 009A                       u4780 0EB2  
                     u4772 0E78                       u5580 15D0                       u3981 0A34  
                     u3973 0A18                       u4941 03C6                       u4861 0099  
                     u4781 0EB1                       u4773 0E7F                       u5485 1DCD  
                     u5581 15CF                       u3982 0A3B                       u4950 0467  
                     u4870 009E                       u4790 0EEB                       u4774 0E82  
                     u5590 1736                       u3991 0A50                       u3983 0A42  
                     u4951 0466                       u4871 009D                       u4791 0EEA  
                     u4783 0EAE                       u4775 0E89                       u5591 1735  
                     u3992 0A57                       u4960 049C                       u4880 00AE  
                     u4776 0E8C                       u3993 0A5E                       u4961 049B  
                     u4881 00AD                       u4970 04A0                       u4890 0217  
                     u4971 049F                       u4955 0463                       u4891 0216  
                     u4980 04D3                       u4981 04D2                       u4990 05B9  
                     u4991 05B8                       u4895 0213                       u4995 05B5  
                     _TMR0 0001                       _TXIF 0064                main@hum_int 0197  
   __end_of_spi_write_read 0835                       abs@a 0026                main@payload 01AA  
                     _dbuf 0110                       _dato 0074                       _labs 19AB  
                     _main 157A                       _prec 00EB                       pad@i 0035  
                     pad@p 0032                       btemp 007E                main@lux_int 0195  
            ___fpclassifyf 1EDA                       start 0010            ___fldiv@new_exp 0032  
                    ??_abs 0028                      ??_pad 0034              ___fltol@sign1 0050  
          __end_of___aldiv 2000                      ?_labs 0020            __end_of___fladd 157A  
                    ?_main 0077            __end_of___fldiv 132A            __end_of___awdiv 1CAB  
          __end_of___flneg 1978            __end_of___awmod 1C46            __end_of___flmul 0C86  
          __end_of___flsub 1A42            __end_of___fltol 1E60                      _ANSEL 0188  
          ___awdiv@divisor 0020                      i1l213 1B4F                      i1l216 1B8B  
          ___awdiv@counter 0024                      _RCREG 001A               vfpfcnvrt@fmt 00CD  
                    _SPBRG 0099                      _TXREG 0019                      _flags 006E  
                    _fputc 1B96                      _fputs 1A92                      labs@a 0020  
                    btemp0 007E                      pad@fp 0030                      btemp1 007F  
                    _width 00E9                      _putch 1961            __end_of_set_PWM 1D14  
                    pclath 000A            ?_spi_write_read 0077                      status 0003  
                    wtemp0 007E             ?___fpclassifyf 0020              main@adc_noise 0199  
         send_frame@length 0022            __initialization 0013               __end_of_labs 19C2  
             __end_of_main 1800                     ??_labs 0024                     ??_main 0069  
                   ?_fputc 0021                     ?_fputs 0029                     _ADRESH 001E  
                   _ADRESL 009E                     _CCPR1L 0015           ___awdiv@dividend 0022  
                   ?_putch 0077                     _ANSELH 0189                     i1l3940 1B66  
                   i1l3932 1B45                     i1l3950 1B8A                     i1l3942 1B6C  
                   i1l3934 1B49                     i1l3944 1B79                     i1l3936 1B55  
                   i1l3946 1B7B                     i1l3938 1B5B                     i1l3948 1B7F  
                   u555_20 1B49                     u555_21 1B48                     u556_20 1B55  
                   u556_21 1B54                     u557_20 1B79                     u557_21 1B78  
                   u557_25 1B75              vfpfcnvrt@done 0060                     _SPBRGH 009A  
                   _SSPADD 0093                     _SSPBUF 0013                     _SSPCON 0014  
         __end_of___xxtofl 1160            _tvoc_prediction 006C              main@intensity 01A3  
             vfprintf@cfmt 0067                     ___flge 1006                     ___fleq 1AF5  
             _canal_actual 0072                  ??___aldiv 0028                  ??___fladd 0028  
                ??___fldiv 0028                  ??___awdiv 0024                  ??___flneg 0024  
                ??___awmod 0024                  ??___flmul 0036                  ??___flsub 0050  
                ??___fltol 004C           __end_of_init_ADC 0800                     _efgtoa 0C86  
         __end_of_init_PWM 1EDA                     _floorf 0835                     _memcpy 19FB  
         ___awdiv@quotient 0026            ___awmod@divisor 0020            ___awmod@counter 0024  
                   _printf 1987                     pad@buf 0031                     _status 0076  
                   _strcpy 19C2                     fputc@c 0021                     fputs@c 002D  
                   fputs@i 002E                     fputs@s 0029           __end_of_set_leds 1DEA  
            main@lux_value 0191                     ltemp0a 0080            ___fpclassifyf@e 002A  
          ___fpclassifyf@u 002C            ___fpclassifyf@x 0020                  ??_set_PWM 0058  
                   saved_w 007E                     putch@c 0020                     ttemp0a 007F  
         __end_of_vfprintf 1A69                     wtemp0a 007F          send_frame@command 0027  
               ___flge@ff1 0048                 ___flge@ff2 004C            ??___fpclassifyf 0024  
             ___xxtofl@arg 002A               ___xxtofl@exp 0029               ___xxtofl@val 0020  
               ___fleq@ff1 0020                 ___fleq@ff2 0024    __end_of__initialization 0036  
               ___flneg@f1 0020                 ___fltol@f1 0048             __pcstackCOMMON 0077  
            __end_of_fputc 1BED              __end_of_fputs 1ABB              __end_of_putch 196B  
           _OPTION_REGbits 0081                    ??_fputc 0024                    ??_fputs 002B  
                  ??_putch 0020                 __pbssBANK0 006C                 __pbssBANK1 00E9  
               __pbssBANK2 0110                 __pbssBANK3 01AE          __end_of__Umul8_16 1A92  
               __pmaintext 157A                set_PWM@freq 0052                    ?___flge 0048  
                  ?___fleq 0020               init_PWM@freq 0052                 __pintentry 0004  
                  ?_efgtoa 0054                    ?_floorf 003A                    ?_memcpy 0020  
                  ?_printf 00D2                    ?_strcpy 0020                  ?___xxtofl 0020  
         ??_spi_write_read 0020                    _SSPSTAT 0094                 __stringtab 1800  
              send_frame@i 0028                  ?_init_ADC 0077                  ?_init_PWM 0052  
     spi_write_read@answer 0022                  ?_set_leds 0024                    ___aldiv 1F67  
                  ___fladd 132A                    ___fldiv 1160                    ___awdiv 1C46  
                  ___flneg 196B                    ___awmod 1BED                    ___flmul 0944  
                  ___flsub 1A1E                    ___fltol 1DEA          set_leds@intensity 002A  
                ?_vfprintf 00CF                    __ptext1 19DD                    __ptext2 1D7F  
                  __ptext3 0801                    __ptext4 1CAB                    __ptext5 1D14  
                  __ptext6 1958                    __ptext7 1987                    __ptext8 1A42  
                  __ptext9 064A          __end_of_init_TMR0 1987                  _T2CONbits 0012  
               ??___xxtofl 0024                set_leds@red 0024           ___awmod@dividend 0022  
         ___aldiv@dividend 0024                    _set_PWM 1CAB                    efgtoa@c 0059  
                  efgtoa@d 00AB                    efgtoa@e 00AF                    efgtoa@f 0055  
                  efgtoa@g 00C4                    efgtoa@h 00B9                    efgtoa@i 00B7  
                  efgtoa@l 00BD                    efgtoa@m 00AD                    efgtoa@n 00C2  
                  efgtoa@p 00A2                    efgtoa@t 00A4                    efgtoa@u 00C8  
                  efgtoa@w 00B1                    clrloop0 1951       end_of_initialization 0036  
                  floorf@e 0048                    floorf@m 0044                    floorf@u 004A  
                  floorf@x 003A          set_PWM@porcentaje 0054                 ??_init_ADC 0020  
                  memcpy@d 0025                    memcpy@n 0022                    memcpy@s 0026  
               ??_init_PWM 0058                    fputc@fp 0023                 _send_frame 1D14  
                  fputs@fp 002A          __end_of_uart_init 19FB                 ??_set_leds 002C  
        __end_of_vfpfcnvrt 07E1                 efgtoa@mode 00A9                 efgtoa@sign 00C1  
                _RCSTAbits 0018           ___aldiv@quotient 002B                    psplit$0 180036  
               _resistance 01BC           vfpfcnvrt@convarg 0061                 ??_vfprintf 0067  
                  strcpy@d 0022                 _uart_write 1958                  _PORTAbits 0005  
                _PORTCbits 0007                ___fladd@grs 0033              ___xxtofl@sign 0028  
                _TRISAbits 0085                  _TRISCbits 0087                uart_write@c 0020  
              ___fldiv@grs 0034                ___fldiv@rem 002D                ___flmul@grs 003C  
              _CCP1CONbits 0017                  _TXSTAbits 0098             __end_of___flge 10AA  
           __end_of___fleq 1B45                vfpfcnvrt@ap 00CE                vfpfcnvrt@cp 0065  
              vfpfcnvrt@fp 00CC             __end_of_efgtoa 064A                _BAUDCTLbits 0187  
           __end_of_floorf 0944             __end_of_memcpy 1A1E                 floorf@F521 01B4  
           __end_of_printf 1998             __end_of_strcpy 19DD        start_initialization 0013  
              __end_of_abs 19AB                __end_of_pad 1AF5                ?_send_frame 0022  
    __end_of___fpclassifyf 1F67            main@fan_percent 0190                vfprintf@fmt 00D0  
                 ??___flge 0050                   ??___fleq 0028                   ??_efgtoa 005A  
                __Umul8_16 1A69     spi_write_read@one_byte 0021                   ??_floorf 003E  
                 ??_memcpy 0024                ?_uart_write 0020                   ??_printf 0068  
                 ??_strcpy 0022                  ___fladd@a 0024                  ___fladd@b 0020  
        main@velocidad_pwm 01A6                  ___fldiv@a 0020                  ___fldiv@b 0024  
                ___flmul@a 0032                  ___flmul@b 002E                __pbssCOMMON 0070  
                ___flsub@a 0048                  ___flsub@b 004C                  ___latbits 0002  
            __pcstackBANK0 0020              __pcstackBANK1 00A0              __pcstackBANK3 0190  
              _efgtoa$1357 00A6                   ?___aldiv 0020                   ?___fladd 0020  
                 ?___fldiv 0020                   ?___awdiv 0020                   ?___flneg 0020  
                 ?___awmod 0020                   ?___flmul 002E                   ?___flsub 0048  
                 ?___fltol 0048                 ?__Umul8_16 0020     interrupt_manager@valor 007C  
                __pstrings 1800          _interrupt_manager 1B45                   ?_set_PWM 0052  
                _init_TMR0 1978         ?_interrupt_manager 0077                 pnum$text10 0018  
            set_leds@green 0026            ___aldiv@divisor 0020        ??_interrupt_manager 0077  
        interrupt_function 0004            ___aldiv@counter 0029           _conversion_lista 0070  
                clear_ram0 1950                   _PIE1bits 008C                   _PIR1bits 000C  
                _uart_init 19DD                  _vfpfcnvrt 064A  __end_of_interrupt_manager 1B96  
               _ADCON0bits 001F                __stringbase 1805                 _ADCON1bits 009F  
                main@count 019B                  main@verde 019F                 ?_init_TMR0 0077  
               vfpfcnvrt@c 0066         main@noise_category 01A5                  memcpy@tmp 0024  
               vfprintf@ap 00D1                 vfprintf@fp 00CF                 ?_uart_init 0077  
              ??__Umul8_16 0022                 ?_vfpfcnvrt 00CC             _co2_prediction 01C0  
       __end_of__stringtab 1806         ___fpclassifyf@F465 01B8                   ___xxtofl 10AA  
                 __ptext10 0C86                   __ptext11 19C2                   __ptext20 1A1E  
                 __ptext12 1ABB                   __ptext21 132A                   __ptext13 1A92  
                 __ptext30 1E60                   __ptext22 196B                   __ptext14 1B96  
                 __ptext31 10AA                   __ptext23 1006                   __ptext15 1961  
                 __ptext32 1DEA                   __ptext24 1AF5                   __ptext16 19FB  
                 __ptext33 0944                   __ptext25 1160                   __ptext17 19AB  
                 __ptext34 1A69                   __ptext26 1998                   __ptext18 0835  
                 __ptext35 1F67                   __ptext27 1BED                   __ptext19 1EDA  
                 __ptext36 07E1                   __ptext28 1C46                   __ptext37 1B45  
                 __ptext29 1978                 strcpy@dest 0020                   _init_ADC 07E1  
                 _lecturas 01AE                   _init_PWM 1E60               ??_send_frame 0024  
             set_leds@blue 0028                  set_leds@i 002C         pnum$text10_split_1 0036  
                 _set_leds 1D7F                   efgtoa@fp 0054                   efgtoa@ne 00A0  
                 efgtoa@pp 00A8                   efgtoa@ou 00B3                   _vfprintf 1A42  
                printf@fmt 00D2                   main@azul 01A1                   main@rojo 019D  
             ??_uart_write 0022         __end_of_send_frame 1D7F                 _INTCONbits 000B  
                 memcpy@d1 0020                   memcpy@s1 0021                ??_init_TMR0 0020  
                 intlevel1 0000                  strcpy@src 0021         __end_of_uart_write 1961  
                stringcode 1800                 _OSCCONbits 008F                efgtoa@nmode 00AA  
              ??_uart_init 0020                   printf@ap 0068                ??_vfpfcnvrt 005E  
   __Umul8_16@multiplicand 0020         init_PWM@porcentaje 0054                   stringdir 1800  
                 stringtab 1800               ___aldiv@sign 002A                _SSPCON2bits 0091  
            ___fladd@signs 0030               ___fladd@aexp 0031               ___fladd@bexp 0032  
     __Umul8_16@multiplier 0028             _spi_write_read 0801          __Umul8_16@product 0024  
